L251 LINKER/LOCATER V4.66.93.0                                                          07/26/2023  23:53:40  PAGE 1


L251 LINKER/LOCATER V4.66.93.0, INVOKED BY:
D:\SOFTWARE\WORKSOFTWARE\KEIL5_C251\C251\BIN\L251.EXE main.obj, oled.obj, Meun.obj, Encoders.obj, timer.obj, Uart.obj, i
>> ic.obj, pwm.obj, GPIO.obj, motor.obj, ADC.obj, LineFollower.obj, MPU6050.obj TO LED CASE CLASSES (EDATA (0X0-0XFFF), 
>> HDATA (0X0-0XFFF))


CPU MODE:     251 SOURCE MODE
INTR FRAME:   2 BYTES SAVED ON INTERRUPT
MEMORY MODEL: XSMALL WITH FLOATING POINT ARITHMETIC


INPUT MODULES INCLUDED:
  main.obj (main)
         COMMENT TYPE 0: C251 V5.60.0
  oled.obj (oled)
         COMMENT TYPE 0: C251 V5.60.0
  Meun.obj (Meun)
         COMMENT TYPE 0: C251 V5.60.0
  Encoders.obj (Encoders)
         COMMENT TYPE 0: C251 V5.60.0
  timer.obj (timer)
         COMMENT TYPE 0: C251 V5.60.0
  Uart.obj (Uart)
         COMMENT TYPE 0: C251 V5.60.0
  iic.obj (iic)
         COMMENT TYPE 0: C251 V5.60.0
  pwm.obj (pwm)
         COMMENT TYPE 0: C251 V5.60.0
  GPIO.obj (GPIO)
         COMMENT TYPE 0: C251 V5.60.0
  motor.obj (motor)
         COMMENT TYPE 0: C251 V5.60.0
  ADC.obj (ADC)
         COMMENT TYPE 0: C251 V5.60.0
  LineFollower.obj (LineFollower)
         COMMENT TYPE 0: C251 V5.60.0
  MPU6050.obj (MPU6050)
         COMMENT TYPE 0: C251 V5.60.0
  D:\SOFTWARE\WORKSOFTWARE\KEIL5_C251\C251\LIB\C2SFPXS.LIB (?C?FPADD)
         COMMENT TYPE 0: A251 V4.69.6.0
  D:\SOFTWARE\WORKSOFTWARE\KEIL5_C251\C251\LIB\C2SFPXS.LIB (?C?FPMUL)
         COMMENT TYPE 0: A251 V4.69.6.0
  D:\SOFTWARE\WORKSOFTWARE\KEIL5_C251\C251\LIB\C2SFPXS.LIB (?C?FPDIV)
         COMMENT TYPE 0: A251 V4.69.6.0
  D:\SOFTWARE\WORKSOFTWARE\KEIL5_C251\C251\LIB\C2SFPXS.LIB (?C?FPNEG)
         COMMENT TYPE 0: A251 V4.69.6.0
  D:\SOFTWARE\WORKSOFTWARE\KEIL5_C251\C251\LIB\C2SFPXS.LIB (?C?FCAST)
         COMMENT TYPE 0: A251 V4.69.6.0
  D:\SOFTWARE\WORKSOFTWARE\KEIL5_C251\C251\LIB\C2SFPXS.LIB (?C?CASTF)
         COMMENT TYPE 0: A251 V4.69.6.0
  D:\SOFTWARE\WORKSOFTWARE\KEIL5_C251\C251\LIB\C2SFPXS.LIB (SPRINTF)
         COMMENT TYPE 0: A251 V4.69.6.0
  D:\SOFTWARE\WORKSOFTWARE\KEIL5_C251\C251\LIB\C2SFPXS.LIB (SQRT?_)
         COMMENT TYPE 0: A251 V4.69.6.0
  D:\SOFTWARE\WORKSOFTWARE\KEIL5_C251\C251\LIB\C2SFPXS.LIB (ASIN?_)
         COMMENT TYPE 0: A251 V4.69.6.0
  D:\SOFTWARE\WORKSOFTWARE\KEIL5_C251\C251\LIB\C2SFPXS.LIB (atan2)
         COMMENT TYPE 0: C251 V5.58.7
  D:\SOFTWARE\WORKSOFTWARE\KEIL5_C251\C251\LIB\C2SFPXS.LIB (?C?FPGETOPN)
         COMMENT TYPE 0: A251 V4.69.6.0
  D:\SOFTWARE\WORKSOFTWARE\KEIL5_C251\C251\LIB\C2SFPXS.LIB (?C?FPCMP)
         COMMENT TYPE 0: A251 V4.69.6.0
  D:\SOFTWARE\WORKSOFTWARE\KEIL5_C251\C251\LIB\C2SFPXS.LIB (?C?PRNFMT)
         COMMENT TYPE 0: A251 V4.69.6.0
  D:\SOFTWARE\WORKSOFTWARE\KEIL5_C251\C251\LIB\C2SFPXS.LIB (ATAN?_)
         COMMENT TYPE 0: A251 V4.69.6.0
L251 LINKER/LOCATER V4.66.93.0                                                        07/26/2023  23:53:40  PAGE 2


  D:\SOFTWARE\WORKSOFTWARE\KEIL5_C251\C251\LIB\C2SFPXS.LIB (?C?FPCONVERT)
         COMMENT TYPE 0: A251 V4.69.6.0
  D:\SOFTWARE\WORKSOFTWARE\KEIL5_C251\C251\LIB\C2SFPXS.LIB (?C?FPSERIES)
         COMMENT TYPE 0: A251 V4.69.6.0
  D:\SOFTWARE\WORKSOFTWARE\KEIL5_C251\C251\LIB\C2SFPXS.LIB (?C?FTNPWR)
         COMMENT TYPE 0: A251 V4.69.6.0
  D:\SOFTWARE\WORKSOFTWARE\KEIL5_C251\C251\LIB\C2SXS.LIB (?C_START)
         COMMENT TYPE 0: A251 V4.69.6.0
  D:\SOFTWARE\WORKSOFTWARE\KEIL5_C251\C251\LIB\C2SXS.LIB (?C?INITEDATA)
         COMMENT TYPE 0: A251 V4.69.6.0
  D:\SOFTWARE\WORKSOFTWARE\KEIL5_C251\C251\LIB\C2SXS.LIB (?C?INITHDATA)
         COMMENT TYPE 0: A251 V4.69.6.0
  D:\SOFTWARE\WORKSOFTWARE\KEIL5_C251\C251\LIB\C2SXS.LIB (?C?LIMUL)
         COMMENT TYPE 0: A251 V4.69.6.0
  D:\SOFTWARE\WORKSOFTWARE\KEIL5_C251\C251\LIB\C2SXS.LIB (?C?ULDIV)
         COMMENT TYPE 0: A251 V4.69.6.0
  D:\SOFTWARE\WORKSOFTWARE\KEIL5_C251\C251\LIB\C2SXS.LIB (?C?INITEDATA_END)
         COMMENT TYPE 0: A251 V4.69.6.0
  D:\SOFTWARE\WORKSOFTWARE\KEIL5_C251\C251\LIB\C2SXS.LIB (?C?INITHDATA_END)
         COMMENT TYPE 0: A251 V4.69.6.0


ACTIVE MEMORY CLASSES OF MODULE:  LED (main)

BASE        START       END         USED      MEMORY CLASS
==========================================================
000000H     000000H     000FFFH     000201H   EDATA
000000H     000000H     000FFFH               HDATA
000000H     FF0000H     FFFFFFH     00021AH   HCONST
FF0000H     FF0000H     FFFFFFH     0028A1H   CODE
000000H     000000H     0000FFH     00000CH   IDATA
010000H     010000H     01FFFFH     00000EH   XDATA
000000H     000000H     00007FH     00000CH   DATA
000020H.0   000020H.0   00002FH.7   000000H.7 BIT
FF0000H     FF0000H     FFFFFFH     000004H   CONST


MEMORY MAP OF MODULE:  LED (main)


START     STOP      LENGTH    ALIGN  RELOC    MEMORY CLASS   SEGMENT NAME
=========================================================================
000000H   000007H   000008H   ---    AT..     DATA           "REG BANK 0"
000008H   00000BH   000004H   BYTE   UNIT     DATA           ?DT?MAIN
00000CH   000013H   000008H   BYTE   UNIT     IDATA          ?ID?MAIN
000014H   000017H   000004H   BYTE   UNIT     IDATA          _IDATA_GROUP_
000018H   00001FH   000008H   BYTE   UNIT     EDATA          ?ED?OLED_SHOWNUM?OLED
000020H.0 000020H.4 000000H.5 BIT    UNIT     BIT            ?BI?ENCODERS
000020H.5 000020H.5 000000H.1 BIT    UNIT     BIT            ?BI?IIC_SENDACK?IIC
000020H.6 000020H.6 000000H.1 BIT    UNIT     BIT            ?BI?IIC_WAITACK?IIC
000020H.7 000020H   000000H.1 ---    ---      **GAP**
000021H   0000BDH   00009DH   BYTE   UNIT     EDATA          ?ED?MAIN
0000BEH   0000F8H   00003BH   BYTE   UNIT     EDATA          _EDATA_GROUP_
0000F9H   000106H   00000EH   BYTE   UNIT     EDATA          ?ED?ENCODERS
000107H   00010AH   000004H   BYTE   UNIT     EDATA          ?ED?OLED
00010BH   00010EH   000004H   BYTE   UNIT     EDATA          ?ED?PWM
00010FH   000112H   000004H   BYTE   UNIT     EDATA          ?ED?ADC_READ?ADC
000113H   000114H   000002H   BYTE   UNIT     EDATA          ?ED?OLED_DISPLAY_128X64?OLED
000115H   000116H   000002H   BYTE   UNIT     EDATA          ?ED?MEUN
000117H   000118H   000002H   BYTE   UNIT     EDATA          ?ED?TIMER
000119H   000119H   000001H   BYTE   UNIT     EDATA          ?ED?LINEFOLLOWER
00011AH   000219H   000100H   BYTE   UNIT     EDATA          ?STACK
00021AH   00FFFFH   00FDE6H   ---    ---      **GAP**
010000H   01000DH   00000EH   BYTE   INSEG    XDATA          ?XD?MAIN
01000EH   FEFFFFH   FDFFF2H   ---    ---      **GAP**
L251 LINKER/LOCATER V4.66.93.0                                                        07/26/2023  23:53:40  PAGE 3


FF0000H   FF0002H   000003H   ---    OFFS..   CODE           ?CO?start251?4
FF0003H   FF0019H   000017H   BYTE   INSEG    CODE           ?PR?GET_DATA_FROM_ROM?OLED
FF001AH   FF001AH   000001H   ---    ---      **GAP**
FF001BH   FF001DH   000003H   ---    OFFS..   CODE           ?PR?IV?3
FF001EH   FF0021H   000004H   BYTE   UNIT     CONST          ?CO?PRINTF
FF0022H   FF0022H   000001H   ---    ---      **GAP**
FF0023H   FF0025H   000003H   ---    OFFS..   CODE           ?PR?IV?4
FF0026H   FF0B1AH   000AF5H   BYTE   UNIT     CODE           ?C?LIB_CODE
FF0B1BH   FF0F5BH   000441H   BYTE   INSEG    CODE           ?PR?IMUUPDATE?MAIN
FF0F5CH   FF1184H   000229H   BYTE   INSEG    CODE           ?PR?OLED_16X16?OLED
FF1185H   FF134FH   0001CBH   BYTE   INSEG    CODE           ?PR?MAIN_MEUN?MEUN
FF1350H   FF1509H   0001BAH   BYTE   INSEG    CODE           ?PR?MPU6050_READ?MAIN
FF150AH   FF167EH   000175H   BYTE   INSEG    CODE           ?PR?SECOND_MENU_VALUE?ENCODERS
FF167FH   FF17BBH   00013DH   BYTE   INSEG    CODE           ?PR?OLED_SHOWNUM?OLED
FF17BCH   FF187EH   0000C3H   BYTE   INSEG    CODE           ?PR?OLED_INIT?OLED
FF187FH   FF1931H   0000B3H   BYTE   INSEG    CODE           ?PR?MEMU?MEUN
FF1932H   FF19DAH   0000A9H   BYTE   INSEG    CODE           ?PR?OLED_DISPLAY_STRING_5X7?OLED
FF19DBH   FF1A82H   0000A8H   BYTE   INSEG    CODE           ?PR?DISP_REFRESH?MAIN
FF1A83H   FF1B21H   00009FH   BYTE   INSEG    CODE           ?PR?MEUN_2_CONTROL?MEUN
FF1B22H   FF1BC0H   00009FH   BYTE   INSEG    CODE           ?PR?MEUN_2_ANGLE?MEUN
FF1BC1H   FF1C5FH   00009FH   BYTE   INSEG    CODE           ?PR?MEUN_2_SPEED?MEUN
FF1C60H   FF1CFEH   00009FH   BYTE   INSEG    CODE           ?PR?MEUN_2_PITCHING?MEUN
FF1CFFH   FF1D90H   000092H   BYTE   INSEG    CODE           ?PR?CANCEL_DETERMINE?ENCODERS
FF1D91H   FF1E21H   000091H   BYTE   INSEG    CODE           ?PR?PWMA_CONFIG?PWM
FF1E22H   FF1EA9H   000088H   BYTE   INSEG    CODE           ?PR?TIMER1?MAIN
FF1EAAH   FF1EBCH   000013H   BYTE   UNIT     CODE           ?C_C51STARTUP
FF1EBDH   FF1EC6H   00000AH   BYTE   UNIT     CODE           ?C_C51STARTUP?1
FF1EC7H   FF1F20H   00005AH   BYTE   UNIT     CODE           ?C_C51STARTUP?2
FF1F21H   FF1F23H   000003H   BYTE   UNIT     CODE           ?C_C51STARTUP?3
FF1F24H   FF1F9CH   000079H   BYTE   INSEG    CODE           ?PR?ADD?ENCODERS
FF1F9DH   FF2015H   000079H   BYTE   INSEG    CODE           ?PR?LOSE?ENCODERS
FF2016H   FF2083H   00006EH   BYTE   INSEG    CODE           ?PR?READ_MPU6050?MPU6050
FF2084H   FF20DEH   00005BH   BYTE   INSEG    CODE           ?PR?OLED_GET_DATA_FROM_ROM?OLED
FF20DFH   FF2134H   000056H   BYTE   INSEG    CODE           ?PR?OLED_DISPLAY_16X16?OLED
FF2135H   FF218AH   000056H   BYTE   INSEG    CODE           ?PR?OLED_DISPLAY_8X16?OLED
FF218BH   FF21DEH   000054H   BYTE   INSEG    CODE           ?PR?READLINE?LINEFOLLOWER
FF21DFH   FF222DH   00004FH   BYTE   INSEG    CODE           ?PR?UP_KEY_DETECTION?ENCODERS
FF222EH   FF2278H   00004BH   BYTE   INSEG    CODE           ?PR?ROTARY_ENCODER?ENCODERS
FF2279H   FF22BEH   000046H   BYTE   INSEG    CODE           ?PR?OLED_DISPLAY_128X64?OLED
FF22BFH   FF2303H   000045H   BYTE   INSEG    CODE           ?PR?ATAN2?_?ATAN2
FF2304H   FF2345H   000042H   BYTE   INSEG    CODE           ?PR?MOTOR_CONTROL?MAIN
FF2346H   FF2382H   00003DH   BYTE   INSEG    CODE           ?PR?UPDATE_DUTY?PWM
FF2383H   FF23BDH   00003BH   BYTE   INSEG    CODE           ?PR?INITMPU6050?MPU6050
FF23BEH   FF23F7H   00003AH   BYTE   INSEG    CODE           ?PR?MAIN?MAIN
FF23F8H   FF2431H   00003AH   BYTE   INSEG    CODE           ?PR?GPIO_INIT?GPIO
FF2432H   FF2468H   000037H   BYTE   INSEG    CODE           ?PR?OLED_CLEAR_0_2?OLED
FF2469H   FF249FH   000037H   BYTE   INSEG    CODE           ?PR?OLED_CLEAR?OLED
FF24A0H   FF24CEH   00002FH   BYTE   INSEG    CODE           ?PR?HALL_ELEMENT?IIC
FF24CFH   FF24FCH   00002EH   BYTE   INSEG    CODE           ?PR?IIC_SENDBYTE?IIC
FF24FDH   FF2528H   00002CH   BYTE   INSEG    CODE           ?PR?OLED_DISPLAYTURN?OLED
FF2529H   FF2554H   00002CH   BYTE   INSEG    CODE           ?PR?OLED_DISPLAY_5X7?OLED
FF2555H   FF257FH   00002BH   BYTE   INSEG    CODE           ?PR?OLED_WR_BYTE?OLED
FF2580H   FF25AAH   00002BH   BYTE   INSEG    CODE           ?PR?OLED_ADDRESS?OLED
FF25ABH   FF25D0H   000026H   BYTE   INSEG    CODE           ?PR?IIC_RECBYTE?IIC
FF25D1H   FF25F6H   000026H   BYTE   INSEG    CODE           ?PR?ADC_READ?ADC
FF25F7H   FF261CH   000026H   BYTE   INSEG    CODE           ?PR?I2C_RECVBYTE?MPU6050
FF261DH   FF263FH   000023H   BYTE   INSEG    CODE           ?PR?I2C_SENDBYTE?MPU6050
FF2640H   FF2660H   000021H   BYTE   INSEG    CODE           ?PR?ADC_READCHANNEL_1?ADC
FF2661H   FF2681H   000021H   BYTE   INSEG    CODE           ?PR?ADC_READCHANNEL_2?ADC
FF2682H   FF26A2H   000021H   BYTE   INSEG    CODE           ?PR?DELAY50MS?MPU6050
FF26A3H   FF26C2H   000020H   BYTE   INSEG    CODE           ?PR?MOTOR_FRCONTROL?MOTOR
FF26C3H   FF26E0H   00001EH   BYTE   INSEG    CODE           ?PR?OLED_COLORTURN?OLED
FF26E1H   FF26FCH   00001CH   BYTE   INSEG    CODE           ?PR?ADC_READCHANNEL_3?ADC
FF26FDH   FF2718H   00001CH   BYTE   INSEG    CODE           ?PR?SINGLE_WRITEI2C?MPU6050
FF2719H   FF2733H   00001BH   BYTE   INSEG    CODE           ?PR?SEND_COMMAND_TO_ROM?OLED
L251 LINKER/LOCATER V4.66.93.0                                                        07/26/2023  23:53:40  PAGE 4


FF2734H   FF274DH   00001AH   BYTE   INSEG    CODE           ?PR?I2C_START?MPU6050
FF274EH   FF2764H   000017H   BYTE   INSEG    CODE           ?PR?DELAY_MS?OLED
FF2765H   FF277BH   000017H   BYTE   INSEG    CODE           ?PR?UARTINIT?UART
FF277CH   FF2792H   000017H   BYTE   INSEG    CODE           ?PR?IIC_SENDACK?IIC
FF2793H   FF27A9H   000017H   BYTE   INSEG    CODE           ?PR?ADC_INIT?ADC
FF27AAH   FF27BFH   000016H   BYTE   INSEG    CODE           ?PR?UART_STRING?UART
FF27C0H   FF27D5H   000016H   BYTE   INSEG    CODE           ?PR?I2C_RECVACK?MPU6050
FF27D6H   FF27EAH   000015H   BYTE   INSEG    CODE           ?PR?OLED_DISPLAY_OFF?OLED
FF27EBH   FF27FFH   000015H   BYTE   INSEG    CODE           ?PR?OLED_DISPLAY_ON?OLED
FF2800H   FF2814H   000015H   BYTE   INSEG    CODE           ?PR?TIMER1INIT?TIMER
FF2815H   FF2827H   000013H   BYTE   INSEG    CODE           ?PR?IIC_WAITACK?IIC
FF2828H   FF2838H   000011H   BYTE   INSEG    CODE           ?PR?IIC_START?IIC
FF2839H   FF2847H   00000FH   BYTE   INSEG    CODE           ?PR?DELAY?TIMER
FF2848H   FF2856H   00000FH   BYTE   INSEG    CODE           ?PR?I2C_STOP?MPU6050
FF2857H   FF2864H   00000EH   BYTE   INSEG    CODE           ?PR?IIC_STOP?IIC
FF2865H   FF2870H   00000CH   BYTE   INSEG    CODE           ?PR?IIC_DELAY?IIC
FF2871H   FF287BH   00000BH   BYTE   INSEG    CODE           ?PR?DELAY2US?MPU6050
FF287CH   FF2885H   00000AH   BYTE   INSEG    CODE           ?PR?UART1_ISR?UART
FF2886H   FF288EH   000009H   BYTE   INSEG    CODE           ?PR?UART_SENDBYTE?UART
FF288FH   FF2897H   000009H   BYTE   INSEG    CODE           ?PR?MOTOR_FORWARD?MOTOR
FF2898H   FF28A0H   000009H   BYTE   INSEG    CODE           ?PR?MOTOR_REVERSE?MOTOR
FF28A1H   FF28A6H   000006H   BYTE   INSEG    CODE           ?PR?MOTOR_INIT?MOTOR
FF28A7H   FF2984H   0000DEH   BYTE   UNIT     HCONST         ?C_INITEDATA
FF2985H   FF2A5FH   0000DBH   BYTE   UNIT     HCONST         ?HC?MEUN
FF2A60H   FF2A86H   000027H   BYTE   UNIT     HCONST         ?HC?MAIN
FF2A87H   FF2AAAH   000024H   BYTE   UNIT     HCONST         ?C_INITHDATA
FF2AABH   FF2AC0H   000016H   BYTE   UNIT     HCONST         ?HC?OLED



OVERLAY MAP OF MODULE:   LED (main)


FUNCTION/MODULE                   EDATA_GROUP  IDATA_GROUP
--> CALLED FUNCTION/MODULE        START  STOP  START  STOP
==========================================================
timer1/main                       ----- -----  ----- -----

*** NEW ROOT ********************

?C_C51STARTUP?1                   ----- -----  ----- -----

*** NEW ROOT ********************

Uart1_Isr/Uart                    ----- -----  ----- -----

*** NEW ROOT ********************

?C_C51STARTUP                     ----- -----  ----- -----

*** NEW ROOT ********************

?C_C51STARTUP?3                   ----- -----  ----- -----
  +--> main/main

main/main                         ----- -----  ----- -----
  +--> GPIO_init/GPIO
  +--> OLED_Init/oled
  +--> OLED_ColorTurn/oled
  +--> OLED_DisplayTurn/oled
  +--> OLED_Clear/oled
  +--> Timer1Init/timer
  +--> UartInit/Uart
  +--> InitMPU6050/MPU6050
  +--> Motor_Init/motor
L251 LINKER/LOCATER V4.66.93.0                                                        07/26/2023  23:53:40  PAGE 5


  +--> Motor_control/main
  +--> Disp_refresh/main
  +--> MPU6050_Read/main

GPIO_init/GPIO                    ----- -----  ----- -----

OLED_Init/oled                    ----- -----  ----- -----
  +--> delay_ms/oled
  +--> OLED_WR_Byte/oled
  +--> OLED_Clear/oled

delay_ms/oled                     ----- -----  ----- -----

OLED_WR_Byte/oled                 ----- -----  ----- -----

OLED_Clear/oled                   ----- -----  ----- -----
  +--> OLED_WR_Byte/oled

OLED_ColorTurn/oled               ----- -----  ----- -----
  +--> OLED_WR_Byte/oled

OLED_DisplayTurn/oled             ----- -----  ----- -----
  +--> OLED_WR_Byte/oled

Timer1Init/timer                  ----- -----  ----- -----

UartInit/Uart                     ----- -----  ----- -----

InitMPU6050/MPU6050               ----- -----  ----- -----
  +--> Delay2us/MPU6050
  +--> Single_WriteI2C/MPU6050
  +--> Delay50ms/MPU6050

Delay2us/MPU6050                  ----- -----  ----- -----

Single_WriteI2C/MPU6050           ----- -----  ----- -----
  +--> I2C_Start/MPU6050
  +--> I2C_SendByte/MPU6050
  +--> I2C_Stop/MPU6050

I2C_Start/MPU6050                 ----- -----  ----- -----
  +--> Delay2us/MPU6050

I2C_SendByte/MPU6050              ----- -----  ----- -----
  +--> Delay2us/MPU6050
  +--> I2C_RecvACK/MPU6050

I2C_RecvACK/MPU6050               ----- -----  ----- -----
  +--> Delay2us/MPU6050

I2C_Stop/MPU6050                  ----- -----  ----- -----
  +--> Delay2us/MPU6050

Delay50ms/MPU6050                 ----- -----  ----- -----

Motor_Init/motor                  ----- -----  ----- -----
  +--> PWMA_Config/pwm
  +--> Motor_Forward/motor

PWMA_Config/pwm                   ----- -----  ----- -----

Motor_Forward/motor               ----- -----  ----- -----

Motor_control/main                ----- -----  ----- -----
  +--> ReadLine/LineFollower
L251 LINKER/LOCATER V4.66.93.0                                                        07/26/2023  23:53:40  PAGE 6


  +--> Motor_FRcontrol/motor
  +--> Update_duty/pwm

ReadLine/LineFollower             ----- -----  ----- -----

Motor_FRcontrol/motor             ----- -----  ----- -----

Update_duty/pwm                   ----- -----  ----- -----

Disp_refresh/main                 ----- -----  ----- -----
  +--> SPRINTF/SPRINTF
  +--> OLED_16x16/oled
  +--> OLED_Display_string_5x7/oled

SPRINTF/SPRINTF                   00BEH 00E5H  ----- -----
  +--> OUT/SPRINTF

OUT/SPRINTF                       ----- -----  ----- -----
  +--> PUTCH/SPRINTF

PUTCH/SPRINTF                     ----- -----  ----- -----

OLED_16x16/oled                   00BEH 00F3H  ----- -----
  +--> OLED_get_data_from_ROM/oled
  +--> OLED_Display_16x16/oled
  +--> OLED_Display_8x16/oled

OLED_get_data_from_ROM/oled       00F4H 00F8H  ----- -----
  +--> Send_Command_to_ROM/oled
  +--> Get_data_from_ROM/oled

Send_Command_to_ROM/oled          ----- -----  ----- -----

Get_data_from_ROM/oled            ----- -----  ----- -----

OLED_Display_16x16/oled           00F4H 00F7H  ----- -----
  +--> OLED_address/oled
  +--> OLED_WR_Byte/oled

OLED_address/oled                 ----- -----  ----- -----
  +--> OLED_WR_Byte/oled

OLED_Display_8x16/oled            00F4H 00F7H  ----- -----
  +--> OLED_address/oled
  +--> OLED_WR_Byte/oled

OLED_Display_string_5x7/oled      00BEH 00CBH  ----- -----
  +--> OLED_get_data_from_ROM/oled
  +--> OLED_Display_5x7/oled

OLED_Display_5x7/oled             00CCH 00CCH  ----- -----
  +--> OLED_address/oled
  +--> OLED_WR_Byte/oled

MPU6050_Read/main                 ----- -----  ----- -----
  +--> Read_MPU6050/MPU6050
  +--> IMUupdate/main

Read_MPU6050/MPU6050              00BEH 00BEH  ----- -----
  +--> I2C_Start/MPU6050
  +--> I2C_SendByte/MPU6050
  +--> I2C_RecvByte/MPU6050
  +--> Delay2us/MPU6050
  +--> I2C_Stop/MPU6050

L251 LINKER/LOCATER V4.66.93.0                                                        07/26/2023  23:53:40  PAGE 7


I2C_RecvByte/MPU6050              ----- -----  ----- -----
  +--> Delay2us/MPU6050

IMUupdate/main                    00BEH 00D1H  0014H 0017H
  +--> atan2?_/atan2

atan2?_/atan2                     ----- -----  ----- -----

*** NEW ROOT ********************

?C_C51STARTUP?2                   ----- -----  ----- -----



PUBLIC SYMBOLS OF MODULE:  LED (main)


      VALUE       CLASS    TYPE      PUBLIC SYMBOL NAME
      =================================================
      00000107H   EDATA    BYTE      ?ADC_Read?BYTE
      00FF0250H   CODE     NEAR LAB  ?C?CASTF
      000000FFH   NUMBER   ---       ?C?CODESEG
      00FF021DH   CODE     NEAR LAB  ?C?FCASTC
      00FF0218H   CODE     NEAR LAB  ?C?FCASTI
      00FF0213H   CODE     NEAR LAB  ?C?FCASTL
      00FF0A2BH   CODE     ---       ?C?FP2SERIES
      00FF002CH   CODE     ---       ?C?FPADD
      00FF03B0H   CODE     ---       ?C?FPCMP
      00FF03AEH   CODE     ---       ?C?FPCMP3
      00FF0930H   CODE     ---       ?C?FPCONVERT
      00FF0184H   CODE     ---       ?C?FPDIV
      00FF035DH   CODE     ---       ?C?FPGETOPN2
      00FF00E4H   CODE     ---       ?C?FPMUL
      00FF039AH   CODE     ---       ?C?FPNANRESULT
      00FF0205H   CODE     ---       ?C?FPNEG
      00FF03A2H   CODE     ---       ?C?FPOVERFLOW
      00FF0376H   CODE     ---       ?C?FPRESULT
      00FF038CH   CODE     ---       ?C?FPRESULT2
      00FF09E8H   CODE     ---       ?C?FPROUND
      00FF0A34H   CODE     ---       ?C?FPSERIES
      00FF0029H   CODE     ---       ?C?FPSUB
      00FF039FH   CODE     ---       ?C?FPUNDERFLOW
      00FF0A88H   CODE     ---       ?C?FTNPWR
      00FF1EC7H   CODE     ---       ?C?INITEDATA
      00FF2983H   HCONST   WORD      ?C?INITEDATA_END
      00FF1EF0H   CODE     ---       ?C?INITHDATA
      00FF2AA9H   HCONST   WORD      ?C?INITHDATA_END
      00FF0ABFH   CODE     ---       ?C?LIMUL
      00FF0421H   CODE     ---       ?C?PRNFMT
      00FF0000H   CODE     ---       ?C?STARTUP
      00FF0ACAH   CODE     NEAR LAB  ?C?ULDIV
      00FF0AC8H   CODE     NEAR LAB  ?C?ULIDIV
      00000001H   NUMBER   ---       ?C?XDATASEG
      00FF0000H   CODE     ---       ?C_STARTUP
      00000020H.5 BIT      BIT       ?IIC_SendAck?BIT
      000000BAH   EDATA    BYTE      ?IMUupdate?BYTE
      000000E6H   EDATA    ---       ?sprintf?BYTE
      00010008H   XDATA    FLOAT     a_x
      00000081H   EDATA    FLOAT     a_y
      000000AAH   EDATA    INT       Acc_x
      000000ACH   EDATA    INT       Acc_y
      000000AEH   EDATA    INT       Acc_z
*SFR* 000000BCH   DATA     BYTE      ADC_CONTR
*SFR* 000000BCH.5 DATA     BIT       ADC_FLAG
      00FF2793H   CODE     ---       ADC_Init
L251 LINKER/LOCATER V4.66.93.0                                                        07/26/2023  23:53:40  PAGE 8


*SFR* 000000BCH.7 DATA     BIT       ADC_POWER
      00FF25D1H   CODE     ---       ADC_Read
      00FF2640H   CODE     ---       ADC_Readchannel_1
      00FF2661H   CODE     ---       ADC_Readchannel_2
      00FF26E1H   CODE     ---       ADC_Readchannel_3
*SFR* 000000BDH   DATA     BYTE      ADC_RES
*SFR* 000000BEH   DATA     BYTE      ADC_RESL
*SFR* 000000BCH.6 DATA     BIT       ADC_START
*SFR* 000000DEH   DATA     BYTE      ADCCFG
      00FF1F24H   CODE     ---       add
      00000020H.2 BIT      BIT       add_lose
      000000FBH   EDATA    ---       adjust
      00010000H   XDATA    FLOAT     Angle_ax
      00000058H   EDATA    FLOAT     Angle_ay
      0000005EH   EDATA    FLOAT     Angle_az
      00010004H   XDATA    FLOAT     Angle_gx
      00000064H   EDATA    FLOAT     Angle_gy
      0000007CH   EDATA    FLOAT     Angle_gz
      00000049H   EDATA    WORD      Angle_of_pitch
      00000008H   DATA     FLOAT     AngleX
      00000097H   EDATA    FLOAT     AngleY
      0000009BH   EDATA    FLOAT     AngleZ
      00000020H.1 BIT      BIT       arrow_Value
      00FF033DH   CODE     ---       asin?_
      00FF22BFH   CODE     ---       atan2?_
      00FF0850H   CODE     ---       ATAN?_
*SFR* 000000EFH   DATA     BYTE      AUXINTIF
*SFR* 0000008EH   DATA     BYTE      AUXR
*SFR* 00000097H   DATA     BYTE      AUXR2
      00FF1CFFH   CODE     ---       Cancel_determine
*SFR* 000000F1H   DATA     BYTE      CANICR
*SFR* 000000EAH   DATA     BYTE      CKCON
*SFR* 000000E6H   DATA     BYTE      CMPCR1
*SFR* 000000E7H   DATA     BYTE      CMPCR2
      00000105H   EDATA    BYTE      Confirm_exit
*SFR* 000000D0H.7 DATA     BIT       CY
      00FF2839H   CODE     ---       delay
      00FF2871H   CODE     ---       Delay2us
      00FF2682H   CODE     ---       Delay50ms
      00000117H   EDATA    WORD      delay_cnt
      00FF274EH   CODE     ---       delay_ms
*SFR* 00000080H.5 DATA     BIT       det_CL
*SFR* 000000C8H.3 DATA     BIT       det_CR
*SFR* 00000080H.6 DATA     BIT       det_L
*SFR* 000000C8H.2 DATA     BIT       det_R
      0000005CH   EDATA    WORD      disp_delay
      00FF19DBH   CODE     ---       Disp_refresh
      0000010BH   EDATA    INT       dutyL
      0000010DH   EDATA    INT       dutyR
*SFR* 000000A8H.7 DATA     BIT       EA
*SFR* 000000BAH.7 DATA     BIT       EAXFR
*SFR* 000000B0H.2 DATA     BIT       EC11_A
*SFR* 000000B0H.3 DATA     BIT       EC11_B
*SFR* 000000B0H.4 DATA     BIT       EC11_K
*SFR* 000000A8H.4 DATA     BIT       ES
*SFR* 000000A8H.3 DATA     BIT       ET1
      0000000CH   IDATA    FLOAT     exInt
      00000022H   EDATA    FLOAT     eyInt
      00000026H   EDATA    FLOAT     ezInt
      00000020H.4 BIT      BIT       falling_Down
      00000107H   EDATA    DWORD     fontaddr
      0001000CH   XDATA    INT       g_x
      00000093H   EDATA    INT       g_y
      00000095H   EDATA    INT       g_z
      00FF0003H   CODE     ---       Get_data_from_ROM
L251 LINKER/LOCATER V4.66.93.0                                                        07/26/2023  23:53:40  PAGE 9


      00FF23F8H   CODE     ---       GPIO_init
      000000B2H   EDATA    INT       Gyro_angle_x
      000000B4H   EDATA    INT       Gyro_angle_y
      000000B6H   EDATA    INT       Gyro_angle_z
      000000B8H   EDATA    INT       Gyro_x
      000000A4H   EDATA    INT       Gyro_x_
      000000BAH   EDATA    INT       Gyro_y
      000000A6H   EDATA    INT       Gyro_y_
      000000BCH   EDATA    INT       Gyro_z
      000000A8H   EDATA    INT       Gyro_z_
      00FF24A0H   CODE     ---       Hall_element
      00FF27C0H   CODE     ---       I2C_RecvACK
      00FF25F7H   CODE     ---       I2C_RecvByte
      00FF261DH   CODE     ---       I2C_SendByte
      00FF2734H   CODE     ---       I2C_Start
      00FF2848H   CODE     ---       I2C_Stop
*SFR* 000000C7H   DATA     BYTE      IAP_CONTR
*SFR* 000000A8H   DATA     BYTE      IE
*SFR* 000000AFH   DATA     BYTE      IE2
      00FF2865H   CODE     ---       IIC_Delay
      00FF25ABH   CODE     ---       IIC_RecByte
      00FF277CH   CODE     ---       IIC_SendAck
      00FF24CFH   CODE     ---       IIC_SendByte
      00FF2828H   CODE     ---       IIC_Start
      00FF2857H   CODE     ---       IIC_Stop
      00FF2815H   CODE     ---       IIC_WaitAck
      00FF0B1BH   CODE     ---       IMUupdate
      00FF2383H   CODE     ---       InitMPU6050
*SFR* 0000008FH   DATA     BYTE      INTCLKO
*SFR* 000000B8H   DATA     BYTE      IP
*SFR* 000000B5H   DATA     BYTE      IP2
*SFR* 000000B6H   DATA     BYTE      IP2H
*SFR* 000000DFH   DATA     BYTE      IP3
*SFR* 000000EEH   DATA     BYTE      IP3H
*SFR* 000000B7H   DATA     BYTE      IPH
*SFR* 0000009DH   DATA     BYTE      IRCBAND
      00000080H   EDATA    CHAR      line_inaccuracy
*SFR* 000000F9H   DATA     BYTE      LINICR
      00000020H.3 BIT      BIT       long_short
      00FF1F9DH   CODE     ---       lose
      00FF23BEH   CODE     ---       main
      00FF1185H   CODE     ---       Main_Meun
      00FF187FH   CODE     ---       Memu
      00FF1B22H   CODE     ---       Meun_2_angle
      00FF1A83H   CODE     ---       Meun_2_control
      00FF1C60H   CODE     ---       Meun_2_Pitching
      00FF1BC1H   CODE     ---       Meun_2_speed
*SFR* 00000080H.2 DATA     BIT       MOTOR_AIN1
*SFR* 00000080H.1 DATA     BIT       MOTOR_AIN2
*SFR* 00000080H.3 DATA     BIT       MOTOR_BIN1
*SFR* 00000080H.4 DATA     BIT       MOTOR_BIN2
      00FF2304H   CODE     ---       Motor_control
      00000062H   EDATA    WORD      motor_delay
      00FF288FH   CODE     ---       Motor_Forward
      00FF26A3H   CODE     ---       Motor_FRcontrol
      00FF28A1H   CODE     ---       Motor_Init
      00FF2898H   CODE     ---       Motor_reverse
      00000021H   EDATA    BYTE      motor_sw
      00000085H   EDATA    ---       MPU6050_DATA
      00000043H   EDATA    WORD      mpu6050_delay
      00FF1350H   CODE     ---       MPU6050_Read
      0000004BH   EDATA    CHAR      old_position
      00FF0F5CH   CODE     ---       OLED_16x16
      00FF2580H   CODE     ---       OLED_address
      00FF2469H   CODE     ---       OLED_Clear
L251 LINKER/LOCATER V4.66.93.0                                                        07/26/2023  23:53:40  PAGE 10


      00FF2432H   CODE     ---       OLED_Clear_0_2
      00FF26C3H   CODE     ---       OLED_ColorTurn
*SFR* 00000090H.6 DATA     BIT       OLED_CS
*SFR* 00000090H.5 DATA     BIT       OLED_DC
      00FF2279H   CODE     ---       OLED_Display_128x64
      00FF20DFH   CODE     ---       OLED_Display_16x16
      00FF2529H   CODE     ---       OLED_Display_5x7
      00FF2135H   CODE     ---       OLED_Display_8x16
      00FF27D6H   CODE     ---       OLED_DisPlay_Off
      00FF27EBH   CODE     ---       OLED_DisPlay_On
      00FF1932H   CODE     ---       OLED_Display_string_5x7
      00FF24FDH   CODE     ---       OLED_DisplayTurn
      00FF2084H   CODE     ---       OLED_get_data_from_ROM
      00FF17BCH   CODE     ---       OLED_Init
*SFR* 00000090H.7 DATA     BIT       OLED_READ_FS0
*SFR* 00000090H.3 DATA     BIT       OLED_ROM_CS
*SFR* 000000C0H.7 DATA     BIT       OLED_SCL
*SFR* 00000090H.4 DATA     BIT       OLED_SDA
      00FF167FH   CODE     ---       OLED_ShowNum
      0000002AH   EDATA    ---       oled_showtext
      00FF2555H   CODE     ---       OLED_WR_Byte
*SFR* 00000080H   DATA     BYTE      P0
*SFR* 00000094H   DATA     BYTE      P0M0
*SFR* 00000093H   DATA     BYTE      P0M1
*SFR* 00000090H   DATA     BYTE      P1
*SFR* 00000092H   DATA     BYTE      P1M0
*SFR* 00000091H   DATA     BYTE      P1M1
*SFR* 000000A0H   DATA     BYTE      P2
*SFR* 00000096H   DATA     BYTE      P2M0
*SFR* 00000095H   DATA     BYTE      P2M1
*SFR* 000000B0H   DATA     BYTE      P3
*SFR* 000000B2H   DATA     BYTE      P3M0
*SFR* 000000B1H   DATA     BYTE      P3M1
*SFR* 000000C0H   DATA     BYTE      P4
*SFR* 000000B4H   DATA     BYTE      P4M0
*SFR* 000000B3H   DATA     BYTE      P4M1
*SFR* 000000C8H   DATA     BYTE      P5
*SFR* 000000FFH.4 DATA     BIT       P54RST
*SFR* 000000CAH   DATA     BYTE      P5M0
*SFR* 000000C9H   DATA     BYTE      P5M1
*SFR* 000000E8H   DATA     BYTE      P6
*SFR* 000000CCH   DATA     BYTE      P6M0
*SFR* 000000CBH   DATA     BYTE      P6M1
*SFR* 000000F8H   DATA     BYTE      P7
*SFR* 000000E2H   DATA     BYTE      P7M0
*SFR* 000000E1H   DATA     BYTE      P7M1
*SFR* 000000A2H   DATA     BYTE      P_SW1
*SFR* 000000BAH   DATA     BYTE      P_SW2
*SFR* 000000BBH   DATA     BYTE      P_SW3
      00000115H   EDATA    INT       page_table
      00000106H   EDATA    BYTE      part2_count
      00000104H   EDATA    BYTE      part_count
*SFR* 00000087H   DATA     BYTE      PCON
      0000009FH   EDATA    ---       positionPID
*SFR* 000000D0H   DATA     BYTE      PSW
      00FF1D91H   CODE     ---       PWMA_Config
      00000010H   IDATA    FLOAT     q0
      0000004CH   EDATA    FLOAT     q1
      00000050H   EDATA    FLOAT     q2
      00000054H   EDATA    FLOAT     q3
      00FF2016H   CODE     ---       Read_MPU6050
      00000119H   EDATA    BYTE      read_value
      00FF218BH   CODE     ---       ReadLine
*SFR* 00000098H.0 DATA     BIT       RI
      00000020H.0 BIT      BIT       rising_edge
L251 LINKER/LOCATER V4.66.93.0                                                        07/26/2023  23:53:40  PAGE 11


      000000B0H   EDATA    WORD      Roll_Angle
      00FF222EH   CODE     ---       rotary_encoder
*SFR* 000000FFH   DATA     BYTE      RSTCFG
*SFR* 000000A2H.6 DATA     BIT       S1_S0
*SFR* 000000A2H.7 DATA     BIT       S1_S1
*SFR* 0000009AH   DATA     BYTE      S2CON
*SFR* 000000ACH   DATA     BYTE      S3CON
*SFR* 000000FDH   DATA     BYTE      S4CON
      000000F9H   EDATA    WORD      s_count
*SFR* 00000099H   DATA     BYTE      SBUF
*SFR* 00000098H   DATA     BYTE      SCON
      00FF150AH   CODE     ---       Second_menu_value
      00FF2719H   CODE     ---       Send_Command_to_ROM
      00FF29D0H   HCONST   ---       set
      00FF26FDH   CODE     ---       Single_WriteI2C
*SFR* 000000CEH   DATA     BYTE      SPCTL
      00000100H   EDATA    ---       spin
      00FF028DH   CODE     NEAR LAB  sprintf
*SFR* 000000CDH   DATA     BYTE      SPSTAT
      00FF02ADH   CODE     ---       sqrt?_
*SFR* 000000D6H   DATA     BYTE      T2H
*SFR* 000000D7H   DATA     BYTE      T2L
*SFR* 000000DDH   DATA     BYTE      T4T3M
*SFR* 00000088H   DATA     BYTE      TCON
      00000047H   EDATA    INT       Temp
*SFR* 00000088H.7 DATA     BIT       TF1
*SFR* 0000008DH   DATA     BYTE      TH1
*SFR* 00000098H.1 DATA     BIT       TI
      00FF1E22H   CODE     ---       timer1
      00FF2800H   CODE     ---       Timer1Init
      00000045H   EDATA    WORD      timer_delay
*SFR* 0000008BH   DATA     BYTE      TL1
*SFR* 00000089H   DATA     BYTE      TMOD
*SFR* 00000088H.6 DATA     BIT       TR1
      00000068H   EDATA    ---       txbuf
      00FF287CH   CODE     ---       Uart1_Isr
      00FF2886H   CODE     ---       Uart_sendbyte
      00FF27AAH   CODE     ---       Uart_String
      00FF2765H   CODE     ---       UartInit
      00FF21DFH   CODE     ---       up_key_detection
      00FF2346H   CODE     ---       Update_duty
*SFR* 000000F4H   DATA     BYTE      USBCON
*SFR* 000000C1H   DATA     BYTE      WDT_CONTR
*SFR* 000000E9H   DATA     BYTE      WTST



IGNORED SYMBOLS:
   SCL
   SDA



SYMBOL TABLE OF MODULE:  LED (main)

      VALUE       REP       CLASS    TYPE      SYMBOL NAME
      ====================================================
      ---         MODULE    ---      ---       main
      00FF1350H   PUBLIC    CODE     ---       MPU6050_Read
      00FF23BEH   PUBLIC    CODE     ---       main
      00FF1E22H   PUBLIC    CODE     ---       timer1
      00FF19DBH   PUBLIC    CODE     ---       Disp_refresh
      00FF0B1BH   PUBLIC    CODE     ---       IMUupdate
      00FF2304H   PUBLIC    CODE     ---       Motor_control
      00000021H   PUBLIC    EDATA    BYTE      motor_sw
L251 LINKER/LOCATER V4.66.93.0                                                        07/26/2023  23:53:40  PAGE 12


      00000022H   PUBLIC    EDATA    FLOAT     eyInt
      00000026H   PUBLIC    EDATA    FLOAT     ezInt
      0000002AH   PUBLIC    EDATA    ---       oled_showtext
      00000043H   PUBLIC    EDATA    WORD      mpu6050_delay
      00000045H   PUBLIC    EDATA    WORD      timer_delay
      00000047H   PUBLIC    EDATA    INT       Temp
      00000049H   PUBLIC    EDATA    WORD      Angle_of_pitch
      0000004BH   PUBLIC    EDATA    CHAR      old_position
      0000004CH   PUBLIC    EDATA    FLOAT     q1
      00000050H   PUBLIC    EDATA    FLOAT     q2
      00000054H   PUBLIC    EDATA    FLOAT     q3
      00000058H   PUBLIC    EDATA    FLOAT     Angle_ay
      0000005CH   PUBLIC    EDATA    WORD      disp_delay
      0000005EH   PUBLIC    EDATA    FLOAT     Angle_az
      00000062H   PUBLIC    EDATA    WORD      motor_delay
      00000064H   PUBLIC    EDATA    FLOAT     Angle_gy
      00000068H   PUBLIC    EDATA    ---       txbuf
      0000007CH   PUBLIC    EDATA    FLOAT     Angle_gz
      00000080H   PUBLIC    EDATA    CHAR      line_inaccuracy
      00000081H   PUBLIC    EDATA    FLOAT     a_y
      00000085H   PUBLIC    EDATA    ---       MPU6050_DATA
      00000093H   PUBLIC    EDATA    INT       g_y
      00000095H   PUBLIC    EDATA    INT       g_z
      00000097H   PUBLIC    EDATA    FLOAT     AngleY
      0000009BH   PUBLIC    EDATA    FLOAT     AngleZ
      0000009FH   PUBLIC    EDATA    ---       positionPID
      000000A4H   PUBLIC    EDATA    INT       Gyro_x_
      000000A6H   PUBLIC    EDATA    INT       Gyro_y_
      000000A8H   PUBLIC    EDATA    INT       Gyro_z_
      000000AAH   PUBLIC    EDATA    INT       Acc_x
      000000ACH   PUBLIC    EDATA    INT       Acc_y
      000000AEH   PUBLIC    EDATA    INT       Acc_z
      000000B0H   PUBLIC    EDATA    WORD      Roll_Angle
      000000B2H   PUBLIC    EDATA    INT       Gyro_angle_x
      000000B4H   PUBLIC    EDATA    INT       Gyro_angle_y
      000000B6H   PUBLIC    EDATA    INT       Gyro_angle_z
      000000B8H   PUBLIC    EDATA    INT       Gyro_x
      000000BAH   PUBLIC    EDATA    INT       Gyro_y
      000000BCH   PUBLIC    EDATA    INT       Gyro_z
      0000000CH   PUBLIC    IDATA    FLOAT     exInt
      00000010H   PUBLIC    IDATA    FLOAT     q0
      00010000H   PUBLIC    XDATA    FLOAT     Angle_ax
      00010004H   PUBLIC    XDATA    FLOAT     Angle_gx
      00010008H   PUBLIC    XDATA    FLOAT     a_x
      0001000CH   PUBLIC    XDATA    INT       g_x
      00000008H   PUBLIC    DATA     FLOAT     AngleX
      000000BAH   PUBLIC    EDATA    BYTE      ?IMUupdate?BYTE
      000000D0H   SFRSYM    DATA     BYTE      PSW
      0000009DH   SFRSYM    DATA     BYTE      IRCBAND
      00000097H   SFRSYM    DATA     BYTE      AUXR2
      000000EFH   SFRSYM    DATA     BYTE      AUXINTIF
      000000A2H.7 SFRSYM    DATA     BIT       S1_S1
      000000FDH   SFRSYM    DATA     BYTE      S4CON
      000000A2H.6 SFRSYM    DATA     BIT       S1_S0
      000000ACH   SFRSYM    DATA     BYTE      S3CON
      0000009AH   SFRSYM    DATA     BYTE      S2CON
      000000B7H   SFRSYM    DATA     BYTE      IPH
      000000CDH   SFRSYM    DATA     BYTE      SPSTAT
      000000DDH   SFRSYM    DATA     BYTE      T4T3M
      000000C1H   SFRSYM    DATA     BYTE      WDT_CONTR
      000000DFH   SFRSYM    DATA     BYTE      IP3
      000000F4H   SFRSYM    DATA     BYTE      USBCON
      000000B5H   SFRSYM    DATA     BYTE      IP2
      000000FFH   SFRSYM    DATA     BYTE      RSTCFG
      000000C7H   SFRSYM    DATA     BYTE      IAP_CONTR
L251 LINKER/LOCATER V4.66.93.0                                                        07/26/2023  23:53:40  PAGE 13


      000000F9H   SFRSYM    DATA     BYTE      LINICR
      0000008EH   SFRSYM    DATA     BYTE      AUXR
      000000AFH   SFRSYM    DATA     BYTE      IE2
      00000088H   SFRSYM    DATA     BYTE      TCON
      00000089H   SFRSYM    DATA     BYTE      TMOD
      00000098H   SFRSYM    DATA     BYTE      SCON
      000000FFH.4 SFRSYM    DATA     BIT       P54RST
      000000F1H   SFRSYM    DATA     BYTE      CANICR
      00000087H   SFRSYM    DATA     BYTE      PCON
      000000BCH   SFRSYM    DATA     BYTE      ADC_CONTR
      000000E7H   SFRSYM    DATA     BYTE      CMPCR2
      000000E6H   SFRSYM    DATA     BYTE      CMPCR1
      000000DEH   SFRSYM    DATA     BYTE      ADCCFG
      000000B8H   SFRSYM    DATA     BYTE      IP
      0000008FH   SFRSYM    DATA     BYTE      INTCLKO
      000000B0H.4 SFRSYM    DATA     BIT       EC11_K
      000000EEH   SFRSYM    DATA     BYTE      IP3H
      000000B6H   SFRSYM    DATA     BYTE      IP2H
      000000A8H   SFRSYM    DATA     BYTE      IE
      000000BBH   SFRSYM    DATA     BYTE      P_SW3
      000000BAH   SFRSYM    DATA     BYTE      P_SW2
      000000A2H   SFRSYM    DATA     BYTE      P_SW1
      000000CEH   SFRSYM    DATA     BYTE      SPCTL
      000000F8H   SFRSYM    DATA     BYTE      P7
      000000E8H   SFRSYM    DATA     BYTE      P6
      000000C8H   SFRSYM    DATA     BYTE      P5
      000000C0H   SFRSYM    DATA     BYTE      P4
      000000B0H   SFRSYM    DATA     BYTE      P3
      000000A0H   SFRSYM    DATA     BYTE      P2
      00000090H   SFRSYM    DATA     BYTE      P1
      00000080H   SFRSYM    DATA     BYTE      P0

      00FF23BEH   BLOCK     CODE     ---       LVL=0
      00FF23BEH   LINE      CODE     ---       #75
      00FF23BEH   LINE      CODE     ---       #77
      00FF23C1H   LINE      CODE     ---       #78
      00FF23C4H   LINE      CODE     ---       #79
      00FF23C8H   LINE      CODE     ---       #80
      00FF23CDH   LINE      CODE     ---       #81
      00FF23D0H   LINE      CODE     ---       #83
      00FF23D3H   LINE      CODE     ---       #85
      00FF23D6H   LINE      CODE     ---       #86
      00FF23D9H   LINE      CODE     ---       #87
      00FF23DCH   LINE      CODE     ---       #89
      00FF23DFH   LINE      CODE     ---       #91
      00FF23E2H   LINE      CODE     ---       #93
      00FF23E5H   LINE      CODE     ---       #94
      00FF23EDH   LINE      CODE     ---       #96
      00FF23EDH   LINE      CODE     ---       #98
      00FF23F0H   LINE      CODE     ---       #99
      00FF23F3H   LINE      CODE     ---       #100
      00FF23F6H   LINE      CODE     ---       #104
      ---         BLOCKEND  ---      ---       LVL=0

      00FF1E22H   BLOCK     CODE     ---       LVL=0
      00FF1E22H   LINE      CODE     ---       #106
      00FF1E28H   LINE      CODE     ---       #108
      00FF1E3EH   LINE      CODE     ---       #109
      00FF1E54H   LINE      CODE     ---       #110
      00FF1E6AH   LINE      CODE     ---       #112
      00FF1E74H   LINE      CODE     ---       #113
      00FF1E7AH   LINE      CODE     ---       #115
      00FF1E8AH   LINE      CODE     ---       #117
      00FF1E90H   LINE      CODE     ---       #119
      00FF1E92H   LINE      CODE     ---       #120
L251 LINKER/LOCATER V4.66.93.0                                                        07/26/2023  23:53:40  PAGE 14


      00FF1E92H   LINE      CODE     ---       #121
      00FF1E99H   LINE      CODE     ---       #123
      00FF1EA3H   LINE      CODE     ---       #124
      ---         BLOCKEND  ---      ---       LVL=0

      00FF19DBH   BLOCK     CODE     ---       LVL=0
      00FF19DBH   LINE      CODE     ---       #129
      00FF19DBH   LINE      CODE     ---       #131
      00FF19E6H   LINE      CODE     ---       #132
      00FF19EEH   LINE      CODE     ---       #134
      00FF1A07H   LINE      CODE     ---       #135
      00FF1A11H   LINE      CODE     ---       #137
      00FF1A30H   LINE      CODE     ---       #138
      00FF1A3BH   LINE      CODE     ---       #140
      00FF1A52H   LINE      CODE     ---       #141
      00FF1A5DH   LINE      CODE     ---       #146
      00FF1A77H   LINE      CODE     ---       #147
      00FF1A82H   LINE      CODE     ---       #153
      ---         BLOCKEND  ---      ---       LVL=0

      00FF2304H   BLOCK     CODE     ---       LVL=0
      00FF2304H   LINE      CODE     ---       #159
      00FF2304H   LINE      CODE     ---       #161
      00FF230CH   LINE      CODE     ---       #162
      00FF2314H   LINE      CODE     ---       #164
      00FF231BH   LINE      CODE     ---       #166
      00FF2331H   LINE      CODE     ---       #167
      00FF233BH   LINE      CODE     ---       #169
      00FF233EH   LINE      CODE     ---       #171
      00FF2345H   LINE      CODE     ---       #172
      ---         BLOCKEND  ---      ---       LVL=0

      00FF1350H   BLOCK     CODE     ---       LVL=0
      00FF1350H   LINE      CODE     ---       #177
      00FF1350H   LINE      CODE     ---       #179
      00FF135BH   LINE      CODE     ---       #180
      00FF1363H   LINE      CODE     ---       #182
      00FF136AH   LINE      CODE     ---       #183
      00FF137AH   LINE      CODE     ---       #184
      00FF138AH   LINE      CODE     ---       #185
      00FF139AH   LINE      CODE     ---       #187
      00FF13AAH   LINE      CODE     ---       #189
      00FF13BAH   LINE      CODE     ---       #190
      00FF13CAH   LINE      CODE     ---       #191
      00FF13DAH   LINE      CODE     ---       #193
      00FF1404H   LINE      CODE     ---       #195
      00FF140CH   LINE      CODE     ---       #196
      00FF1414H   LINE      CODE     ---       #197
      00FF141CH   LINE      CODE     ---       #198
      00FF141EH   LINE      CODE     ---       #201
      00FF1426H   LINE      CODE     ---       #202
      00FF142AH   LINE      CODE     ---       #203
      00FF142EH   LINE      CODE     ---       #204
      00FF142EH   LINE      CODE     ---       #206
      00FF144EH   LINE      CODE     ---       #207
      00FF1462H   LINE      CODE     ---       #208
      00FF1476H   LINE      CODE     ---       #210
      00FF1492H   LINE      CODE     ---       #211
      00FF14A4H   LINE      CODE     ---       #212
      00FF14B6H   LINE      CODE     ---       #214
      00FF14F4H   LINE      CODE     ---       #216
      00FF14FEH   LINE      CODE     ---       #217
      00FF1509H   LINE      CODE     ---       #252
      ---         BLOCKEND  ---      ---       LVL=0

L251 LINKER/LOCATER V4.66.93.0                                                        07/26/2023  23:53:40  PAGE 15


      00FF0B1BH   BLOCK     CODE     ---       LVL=0
      000000BEH   SYMBOL    EDATA    FLOAT     gx
      DR12        REGSYM    ---      FLOAT     gy
      000000C2H   SYMBOL    EDATA    FLOAT     gz
      000000C6H   SYMBOL    EDATA    FLOAT     ax
      000000CAH   SYMBOL    EDATA    FLOAT     ay
      000000CEH   SYMBOL    EDATA    FLOAT     az
      00FF0B23H   BLOCK     CODE     NEAR LAB  LVL=1
      DR28        REGSYM    ---      FLOAT     norm
      00000014H   SYMBOL    IDATA    FLOAT     vx
      DR24        REGSYM    ---      FLOAT     vy
      DR28        REGSYM    ---      FLOAT     vz
      DR16        REGSYM    ---      FLOAT     ex
      DR20        REGSYM    ---      FLOAT     ey
      DR24        REGSYM    ---      FLOAT     ez
      ---         BLOCKEND  ---      ---       LVL=1
      00FF0B1BH   LINE      CODE     ---       #254
      00FF0B23H   LINE      CODE     ---       #255
      00FF0B23H   LINE      CODE     ---       #260
      00FF0B51H   LINE      CODE     ---       #261
      00FF0B5EH   LINE      CODE     ---       #262
      00FF0B6BH   LINE      CODE     ---       #263
      00FF0B78H   LINE      CODE     ---       #269
      00FF0BB1H   LINE      CODE     ---       #270
      00FF0BD3H   LINE      CODE     ---       #271
      00FF0C10H   LINE      CODE     ---       #273
      00FF0C2BH   LINE      CODE     ---       #274
      00FF0C4FH   LINE      CODE     ---       #275
      00FF0C73H   LINE      CODE     ---       #277
      00FF0C8DH   LINE      CODE     ---       #278
      00FF0C9FH   LINE      CODE     ---       #279
      00FF0CB1H   LINE      CODE     ---       #281
      00FF0CD2H   LINE      CODE     ---       #282
      00FF0CE7H   LINE      CODE     ---       #283
      00FF0D00H   LINE      CODE     ---       #285
      00FF0D50H   LINE      CODE     ---       #286
      00FF0D8BH   LINE      CODE     ---       #287
      00FF0DC0H   LINE      CODE     ---       #288
      00FF0DFDH   LINE      CODE     ---       #290
      00FF0E3DH   LINE      CODE     ---       #291
      00FF0E4AH   LINE      CODE     ---       #292
      00FF0E57H   LINE      CODE     ---       #293
      00FF0E64H   LINE      CODE     ---       #294
      00FF0E71H   LINE      CODE     ---       #296
      00FF0EA8H   LINE      CODE     ---       #297
      00FF0EE0H   LINE      CODE     ---       #298
      00FF0F59H   LINE      CODE     ---       #299
      ---         BLOCKEND  ---      ---       LVL=0

      ---         MODULE    ---      ---       oled
      00FF0003H   PUBLIC    CODE     ---       Get_data_from_ROM
      00FF20DFH   PUBLIC    CODE     ---       OLED_Display_16x16
      00FF24FDH   PUBLIC    CODE     ---       OLED_DisplayTurn
      00FF2432H   PUBLIC    CODE     ---       OLED_Clear_0_2
      00FF17BCH   PUBLIC    CODE     ---       OLED_Init
      00FF1932H   PUBLIC    CODE     ---       OLED_Display_string_5x7
      00FF2529H   PUBLIC    CODE     ---       OLED_Display_5x7
      00FF2555H   PUBLIC    CODE     ---       OLED_WR_Byte
      00FF2084H   PUBLIC    CODE     ---       OLED_get_data_from_ROM
      00FF26C3H   PUBLIC    CODE     ---       OLED_ColorTurn
      00FF27D6H   PUBLIC    CODE     ---       OLED_DisPlay_Off
      00FF2279H   PUBLIC    CODE     ---       OLED_Display_128x64
      00FF2719H   PUBLIC    CODE     ---       Send_Command_to_ROM
      00FF0F5CH   PUBLIC    CODE     ---       OLED_16x16
      00FF274EH   PUBLIC    CODE     ---       delay_ms
L251 LINKER/LOCATER V4.66.93.0                                                        07/26/2023  23:53:40  PAGE 16


      00FF2135H   PUBLIC    CODE     ---       OLED_Display_8x16
      00FF167FH   PUBLIC    CODE     ---       OLED_ShowNum
      00FF27EBH   PUBLIC    CODE     ---       OLED_DisPlay_On
      00FF2469H   PUBLIC    CODE     ---       OLED_Clear
      00FF2580H   PUBLIC    CODE     ---       OLED_address
      00000107H   PUBLIC    EDATA    DWORD     fontaddr
      000000D0H   SFRSYM    DATA     BYTE      PSW
      0000009DH   SFRSYM    DATA     BYTE      IRCBAND
      00000097H   SFRSYM    DATA     BYTE      AUXR2
      000000EFH   SFRSYM    DATA     BYTE      AUXINTIF
      00000090H.3 SFRSYM    DATA     BIT       OLED_ROM_CS
      000000FDH   SFRSYM    DATA     BYTE      S4CON
      000000C0H.7 SFRSYM    DATA     BIT       OLED_SCL
      000000ACH   SFRSYM    DATA     BYTE      S3CON
      0000009AH   SFRSYM    DATA     BYTE      S2CON
      000000B7H   SFRSYM    DATA     BYTE      IPH
      000000CDH   SFRSYM    DATA     BYTE      SPSTAT
      00000090H.4 SFRSYM    DATA     BIT       OLED_SDA
      000000DDH   SFRSYM    DATA     BYTE      T4T3M
      000000C1H   SFRSYM    DATA     BYTE      WDT_CONTR
      00000090H.7 SFRSYM    DATA     BIT       OLED_READ_FS0
      000000DFH   SFRSYM    DATA     BYTE      IP3
      000000F4H   SFRSYM    DATA     BYTE      USBCON
      000000B5H   SFRSYM    DATA     BYTE      IP2
      000000FFH   SFRSYM    DATA     BYTE      RSTCFG
      000000C7H   SFRSYM    DATA     BYTE      IAP_CONTR
      000000F9H   SFRSYM    DATA     BYTE      LINICR
      0000008EH   SFRSYM    DATA     BYTE      AUXR
      000000AFH   SFRSYM    DATA     BYTE      IE2
      00000088H   SFRSYM    DATA     BYTE      TCON
      00000089H   SFRSYM    DATA     BYTE      TMOD
      00000098H   SFRSYM    DATA     BYTE      SCON
      000000F1H   SFRSYM    DATA     BYTE      CANICR
      00000087H   SFRSYM    DATA     BYTE      PCON
      000000BCH   SFRSYM    DATA     BYTE      ADC_CONTR
      000000E7H   SFRSYM    DATA     BYTE      CMPCR2
      000000E6H   SFRSYM    DATA     BYTE      CMPCR1
      00000090H.6 SFRSYM    DATA     BIT       OLED_CS
      000000DEH   SFRSYM    DATA     BYTE      ADCCFG
      000000B8H   SFRSYM    DATA     BYTE      IP
      0000008FH   SFRSYM    DATA     BYTE      INTCLKO
      000000EEH   SFRSYM    DATA     BYTE      IP3H
      000000B6H   SFRSYM    DATA     BYTE      IP2H
      000000A8H   SFRSYM    DATA     BYTE      IE
      000000BBH   SFRSYM    DATA     BYTE      P_SW3
      000000BAH   SFRSYM    DATA     BYTE      P_SW2
      00000090H.5 SFRSYM    DATA     BIT       OLED_DC
      000000A2H   SFRSYM    DATA     BYTE      P_SW1
      000000CEH   SFRSYM    DATA     BYTE      SPCTL
      000000F8H   SFRSYM    DATA     BYTE      P7
      000000E8H   SFRSYM    DATA     BYTE      P6
      000000C8H   SFRSYM    DATA     BYTE      P5
      000000C0H   SFRSYM    DATA     BYTE      P4
      000000B0H   SFRSYM    DATA     BYTE      P3
      000000A0H   SFRSYM    DATA     BYTE      P2
      00000090H   SFRSYM    DATA     BYTE      P1
      00000080H   SFRSYM    DATA     BYTE      P0

      00FF274EH   BLOCK     CODE     ---       LVL=0
      WR2         REGSYM    ---      WORD      ms
      00FF2750H   BLOCK     CODE     NEAR LAB  LVL=1
      WR0         REGSYM    ---      WORD      a
      ---         BLOCKEND  ---      ---       LVL=1
      00FF274EH   LINE      CODE     ---       #3
      00FF2750H   LINE      CODE     ---       #4
L251 LINKER/LOCATER V4.66.93.0                                                        07/26/2023  23:53:40  PAGE 17


      00FF2750H   LINE      CODE     ---       #6
      00FF2752H   LINE      CODE     ---       #8
      00FF2756H   LINE      CODE     ---       #9
      00FF275EH   LINE      CODE     ---       #10
      00FF2760H   LINE      CODE     ---       #11
      00FF2764H   LINE      CODE     ---       #12
      00FF2764H   LINE      CODE     ---       #13
      ---         BLOCKEND  ---      ---       LVL=0

      00FF26C3H   BLOCK     CODE     ---       LVL=0
      R15         REGSYM    ---      BYTE      i
      00FF26C3H   LINE      CODE     ---       #16
      00FF26C7H   LINE      CODE     ---       #18
      00FF26CBH   LINE      CODE     ---       #20
      00FF26D2H   LINE      CODE     ---       #21
      00FF26D2H   LINE      CODE     ---       #22
      00FF26D7H   LINE      CODE     ---       #24
      00FF26DEH   LINE      CODE     ---       #25
      ---         BLOCKEND  ---      ---       LVL=0

      00FF24FDH   BLOCK     CODE     ---       LVL=0
      R15         REGSYM    ---      BYTE      i
      00FF24FDH   LINE      CODE     ---       #29
      00FF2501H   LINE      CODE     ---       #31
      00FF2505H   LINE      CODE     ---       #33
      00FF250CH   LINE      CODE     ---       #34
      00FF2513H   LINE      CODE     ---       #35
      00FF2513H   LINE      CODE     ---       #36
      00FF2518H   LINE      CODE     ---       #38
      00FF251FH   LINE      CODE     ---       #39
      00FF2526H   LINE      CODE     ---       #40
      ---         BLOCKEND  ---      ---       LVL=0

      00FF27EBH   BLOCK     CODE     ---       LVL=0
      00FF27EBH   LINE      CODE     ---       #44
      00FF27EBH   LINE      CODE     ---       #46
      00FF27F2H   LINE      CODE     ---       #47
      00FF27F9H   LINE      CODE     ---       #48
      ---         BLOCKEND  ---      ---       LVL=0

      00FF27D6H   BLOCK     CODE     ---       LVL=0
      00FF27D6H   LINE      CODE     ---       #52
      00FF27D6H   LINE      CODE     ---       #54
      00FF27DDH   LINE      CODE     ---       #55
      00FF27E4H   LINE      CODE     ---       #56
      ---         BLOCKEND  ---      ---       LVL=0

      00FF2555H   BLOCK     CODE     ---       LVL=0
      R6          REGSYM    ---      BYTE      dat
      R7          REGSYM    ---      BYTE      cmd
      00FF2557H   BLOCK     CODE     NEAR LAB  LVL=1
      R7          REGSYM    ---      BYTE      i
      ---         BLOCKEND  ---      ---       LVL=1
      00FF2555H   LINE      CODE     ---       #62
      00FF2557H   LINE      CODE     ---       #63
      00FF2557H   LINE      CODE     ---       #65
      00FF255BH   LINE      CODE     ---       #67
      00FF255DH   LINE      CODE     ---       #68
      00FF255FH   LINE      CODE     ---       #71
      00FF2561H   LINE      CODE     ---       #72
      00FF2561H   LINE      CODE     ---       #73
      00FF2563H   LINE      CODE     ---       #74
      00FF2566H   LINE      CODE     ---       #76
      00FF2568H   LINE      CODE     ---       #77
      00FF256DH   LINE      CODE     ---       #79
L251 LINKER/LOCATER V4.66.93.0                                                        07/26/2023  23:53:40  PAGE 18


      00FF256FH   LINE      CODE     ---       #80
      00FF2571H   LINE      CODE     ---       #83
      00FF2573H   LINE      CODE     ---       #84
      00FF2573H   LINE      CODE     ---       #85
      00FF2575H   LINE      CODE     ---       #86
      00FF2577H   LINE      CODE     ---       #87
      00FF257BH   LINE      CODE     ---       #88
      00FF257DH   LINE      CODE     ---       #89
      00FF257FH   LINE      CODE     ---       #90
      ---         BLOCKEND  ---      ---       LVL=0

      00FF2469H   BLOCK     CODE     ---       LVL=0
      00FF246BH   BLOCK     CODE     NEAR LAB  LVL=1
      R15         REGSYM    ---      BYTE      i
      R14         REGSYM    ---      BYTE      n
      ---         BLOCKEND  ---      ---       LVL=1
      00FF2469H   LINE      CODE     ---       #93
      00FF246BH   LINE      CODE     ---       #94
      00FF246BH   LINE      CODE     ---       #96
      00FF246DH   LINE      CODE     ---       #98
      00FF2478H   LINE      CODE     ---       #99
      00FF247FH   LINE      CODE     ---       #100
      00FF2486H   LINE      CODE     ---       #101
      00FF2488H   LINE      CODE     ---       #103
      00FF248FH   LINE      CODE     ---       #104
      00FF2496H   LINE      CODE     ---       #105
      00FF249DH   LINE      CODE     ---       #106
      ---         BLOCKEND  ---      ---       LVL=0

      00FF2432H   BLOCK     CODE     ---       LVL=0
      00FF2434H   BLOCK     CODE     NEAR LAB  LVL=1
      R14         REGSYM    ---      BYTE      i
      R15         REGSYM    ---      BYTE      n
      ---         BLOCKEND  ---      ---       LVL=1
      00FF2432H   LINE      CODE     ---       #108
      00FF2434H   LINE      CODE     ---       #109
      00FF2434H   LINE      CODE     ---       #110
      00FF2434H   LINE      CODE     ---       #111
      00FF2436H   LINE      CODE     ---       #112
      00FF2441H   LINE      CODE     ---       #113
      00FF2448H   LINE      CODE     ---       #114
      00FF244FH   LINE      CODE     ---       #115
      00FF2451H   LINE      CODE     ---       #116
      00FF2458H   LINE      CODE     ---       #117
      00FF245FH   LINE      CODE     ---       #118
      00FF2466H   LINE      CODE     ---       #119
      ---         BLOCKEND  ---      ---       LVL=0

      00FF2580H   BLOCK     CODE     ---       LVL=0
      R15         REGSYM    ---      BYTE      x
      R10         REGSYM    ---      BYTE      y
      00FF2580H   LINE      CODE     ---       #121
      00FF2584H   LINE      CODE     ---       #123
      00FF2586H   LINE      CODE     ---       #124
      00FF2591H   LINE      CODE     ---       #125
      00FF259FH   LINE      CODE     ---       #126
      00FF25A8H   LINE      CODE     ---       #127
      ---         BLOCKEND  ---      ---       LVL=0

      00FF2279H   BLOCK     CODE     ---       LVL=0
      REG=3       REGSYM    ---      ---       dp
      00FF227DH   BLOCK     CODE     NEAR LAB  LVL=1
      00000113H   SYMBOL    EDATA    BYTE      i
      00000114H   SYMBOL    EDATA    BYTE      j
      ---         BLOCKEND  ---      ---       LVL=1
L251 LINKER/LOCATER V4.66.93.0                                                        07/26/2023  23:53:40  PAGE 19


      00FF2279H   LINE      CODE     ---       #130
      00FF227DH   LINE      CODE     ---       #131
      00FF227DH   LINE      CODE     ---       #132
      00FF2282H   LINE      CODE     ---       #133
      00FF2286H   LINE      CODE     ---       #135
      00FF228EH   LINE      CODE     ---       #136
      00FF2293H   LINE      CODE     ---       #138
      00FF229CH   LINE      CODE     ---       #139
      00FF229EH   LINE      CODE     ---       #140
      00FF22AAH   LINE      CODE     ---       #141
      00FF22BCH   LINE      CODE     ---       #142
      ---         BLOCKEND  ---      ---       LVL=0

      00FF20DFH   BLOCK     CODE     ---       LVL=0
      000000F4H   SYMBOL    EDATA    BYTE      x
      000000F5H   SYMBOL    EDATA    BYTE      y
      REG=3       REGSYM    ---      ---       dp
      00FF20EBH   BLOCK     CODE     NEAR LAB  LVL=1
      000000F6H   SYMBOL    EDATA    BYTE      i
      000000F7H   SYMBOL    EDATA    BYTE      j
      ---         BLOCKEND  ---      ---       LVL=1
      00FF20DFH   LINE      CODE     ---       #145
      00FF20EBH   LINE      CODE     ---       #146
      00FF20EBH   LINE      CODE     ---       #148
      00FF20F0H   LINE      CODE     ---       #150
      00FF20FBH   LINE      CODE     ---       #151
      00FF2100H   LINE      CODE     ---       #153
      00FF2109H   LINE      CODE     ---       #154
      00FF210BH   LINE      CODE     ---       #155
      00FF2117H   LINE      CODE     ---       #156
      00FF2120H   LINE      CODE     ---       #157
      00FF2132H   LINE      CODE     ---       #158
      ---         BLOCKEND  ---      ---       LVL=0

      00FF2135H   BLOCK     CODE     ---       LVL=0
      000000F4H   SYMBOL    EDATA    BYTE      x
      000000F5H   SYMBOL    EDATA    BYTE      y
      REG=3       REGSYM    ---      ---       dp
      00FF2141H   BLOCK     CODE     NEAR LAB  LVL=1
      000000F6H   SYMBOL    EDATA    BYTE      i
      000000F7H   SYMBOL    EDATA    BYTE      j
      ---         BLOCKEND  ---      ---       LVL=1
      00FF2135H   LINE      CODE     ---       #161
      00FF2141H   LINE      CODE     ---       #162
      00FF2141H   LINE      CODE     ---       #164
      00FF2146H   LINE      CODE     ---       #166
      00FF2151H   LINE      CODE     ---       #167
      00FF2156H   LINE      CODE     ---       #169
      00FF215FH   LINE      CODE     ---       #170
      00FF2161H   LINE      CODE     ---       #171
      00FF216DH   LINE      CODE     ---       #172
      00FF2176H   LINE      CODE     ---       #173
      00FF2188H   LINE      CODE     ---       #174
      ---         BLOCKEND  ---      ---       LVL=0

      00FF2529H   BLOCK     CODE     ---       LVL=0
      R11         REGSYM    ---      BYTE      x
      R10         REGSYM    ---      BYTE      y
      REG=3       REGSYM    ---      ---       dp
      00FF252DH   BLOCK     CODE     NEAR LAB  LVL=1
      000000CCH   SYMBOL    EDATA    BYTE      i
      ---         BLOCKEND  ---      ---       LVL=1
      00FF2529H   LINE      CODE     ---       #177
      00FF252DH   LINE      CODE     ---       #178
      00FF252DH   LINE      CODE     ---       #180
L251 LINKER/LOCATER V4.66.93.0                                                        07/26/2023  23:53:40  PAGE 20


      00FF2530H   LINE      CODE     ---       #181
      00FF2535H   LINE      CODE     ---       #183
      00FF253EH   LINE      CODE     ---       #184
      00FF2540H   LINE      CODE     ---       #185
      00FF2552H   LINE      CODE     ---       #186
      ---         BLOCKEND  ---      ---       LVL=0

      00FF2719H   BLOCK     CODE     ---       LVL=0
      R6          REGSYM    ---      BYTE      dat
      00FF271BH   BLOCK     CODE     NEAR LAB  LVL=1
      R7          REGSYM    ---      BYTE      i
      ---         BLOCKEND  ---      ---       LVL=1
      00FF2719H   LINE      CODE     ---       #189
      00FF271BH   LINE      CODE     ---       #190
      00FF271BH   LINE      CODE     ---       #192
      00FF271EH   LINE      CODE     ---       #194
      00FF2720H   LINE      CODE     ---       #195
      00FF2725H   LINE      CODE     ---       #197
      00FF2727H   LINE      CODE     ---       #198
      00FF2729H   LINE      CODE     ---       #201
      00FF272BH   LINE      CODE     ---       #202
      00FF272BH   LINE      CODE     ---       #203
      00FF272DH   LINE      CODE     ---       #204
      00FF272FH   LINE      CODE     ---       #205
      00FF2733H   LINE      CODE     ---       #206
      ---         BLOCKEND  ---      ---       LVL=0

      00FF0003H   BLOCK     CODE     ---       LVL=0
      R7          REGSYM    ---      BYTE      i
      R10         REGSYM    ---      BYTE      read
      00FF0003H   LINE      CODE     ---       #209
      00FF0003H   LINE      CODE     ---       #210
      00FF0003H   LINE      CODE     ---       #211
      00FF0005H   LINE      CODE     ---       #212
      00FF0008H   LINE      CODE     ---       #214
      00FF000AH   LINE      CODE     ---       #215
      00FF000CH   LINE      CODE     ---       #216
      00FF000FH   LINE      CODE     ---       #218
      00FF0011H   LINE      CODE     ---       #219
      00FF0011H   LINE      CODE     ---       #220
      00FF0013H   LINE      CODE     ---       #221
      00FF0017H   LINE      CODE     ---       #222
      00FF0019H   LINE      CODE     ---       #223
      ---         BLOCKEND  ---      ---       LVL=0

      00FF2084H   BLOCK     CODE     ---       LVL=0
      000000F4H   SYMBOL    EDATA    BYTE      addrHigh
      000000F5H   SYMBOL    EDATA    BYTE      addrMid
      000000F6H   SYMBOL    EDATA    BYTE      addrLow
      REG=3       REGSYM    ---      ---       pbuff
      000000F7H   SYMBOL    EDATA    BYTE      DataLen
      00FF2098H   BLOCK     CODE     NEAR LAB  LVL=1
      000000F8H   SYMBOL    EDATA    BYTE      i
      ---         BLOCKEND  ---      ---       LVL=1
      00FF2084H   LINE      CODE     ---       #228
      00FF2098H   LINE      CODE     ---       #229
      00FF2098H   LINE      CODE     ---       #231
      00FF209AH   LINE      CODE     ---       #232
      00FF209FH   LINE      CODE     ---       #233
      00FF20A6H   LINE      CODE     ---       #234
      00FF20ADH   LINE      CODE     ---       #235
      00FF20B4H   LINE      CODE     ---       #236
      00FF20B7H   LINE      CODE     ---       #238
      00FF20C7H   LINE      CODE     ---       #239
      00FF20DAH   LINE      CODE     ---       #240
L251 LINKER/LOCATER V4.66.93.0                                                        07/26/2023  23:53:40  PAGE 21


      00FF20DCH   LINE      CODE     ---       #241
      ---         BLOCKEND  ---      ---       LVL=0

      00FF0F5CH   BLOCK     CODE     ---       LVL=0
      000000BEH   SYMBOL    EDATA    BYTE      x
      000000BFH   SYMBOL    EDATA    BYTE      y
      REG=3       REGSYM    ---      ---       text
      00FF0F68H   BLOCK     CODE     NEAR LAB  LVL=1
      000000C0H   SYMBOL    EDATA    BYTE      i
      000000C1H   SYMBOL    EDATA    BYTE      addrHigh
      000000C2H   SYMBOL    EDATA    BYTE      addrMid
      000000C3H   SYMBOL    EDATA    BYTE      addrLow
      000000C4H   SYMBOL    EDATA    ---       fontbuf
      00FF10F4H   BLOCK     CODE     NEAR LAB  LVL=2
      000000E4H   SYMBOL    EDATA    ---       fontbuf
      ---         BLOCKEND  ---      ---       LVL=2
      ---         BLOCKEND  ---      ---       LVL=1
      00FF0F5CH   LINE      CODE     ---       #246
      00FF0F68H   LINE      CODE     ---       #247
      00FF0F68H   LINE      CODE     ---       #248
      00FF0F69H   LINE      CODE     ---       #251
      00FF0F6CH   LINE      CODE     ---       #253
      00FF0F9CH   LINE      CODE     ---       #258
      00FF0FAFH   LINE      CODE     ---       #259
      00FF0FBDH   LINE      CODE     ---       #260
      00FF0FCCH   LINE      CODE     ---       #262
      00FF0FD6H   LINE      CODE     ---       #263
      00FF0FDCH   LINE      CODE     ---       #264
      00FF0FE2H   LINE      CODE     ---       #266
      00FF0FECH   LINE      CODE     ---       #268
      00FF0FFBH   LINE      CODE     ---       #270
      00FF1005H   LINE      CODE     ---       #271
      00FF100BH   LINE      CODE     ---       #272
      00FF100EH   LINE      CODE     ---       #273
      00FF104EH   LINE      CODE     ---       #276
      00FF106EH   LINE      CODE     ---       #277
      00FF107CH   LINE      CODE     ---       #278
      00FF108BH   LINE      CODE     ---       #280
      00FF1095H   LINE      CODE     ---       #281
      00FF109BH   LINE      CODE     ---       #282
      00FF10A1H   LINE      CODE     ---       #284
      00FF10ABH   LINE      CODE     ---       #285
      00FF10BAH   LINE      CODE     ---       #286
      00FF10C4H   LINE      CODE     ---       #287
      00FF10CAH   LINE      CODE     ---       #288
      00FF10CDH   LINE      CODE     ---       #289
      00FF10F4H   LINE      CODE     ---       #290
      00FF10F4H   LINE      CODE     ---       #292
      00FF110DH   LINE      CODE     ---       #293
      00FF1118H   LINE      CODE     ---       #294
      00FF1124H   LINE      CODE     ---       #296
      00FF112EH   LINE      CODE     ---       #297
      00FF1134H   LINE      CODE     ---       #298
      00FF113AH   LINE      CODE     ---       #300
      00FF1144H   LINE      CODE     ---       #301
      00FF1153H   LINE      CODE     ---       #302
      00FF115DH   LINE      CODE     ---       #303
      00FF1162H   LINE      CODE     ---       #304
      00FF1164H   LINE      CODE     ---       #306
      00FF116DH   LINE      CODE     ---       #307
      00FF1182H   LINE      CODE     ---       #308
      ---         BLOCKEND  ---      ---       LVL=0

      00FF1932H   BLOCK     CODE     ---       LVL=0
      000000BEH   SYMBOL    EDATA    BYTE      x
L251 LINKER/LOCATER V4.66.93.0                                                        07/26/2023  23:53:40  PAGE 22


      000000BFH   SYMBOL    EDATA    BYTE      y
      REG=3       REGSYM    ---      ---       text
      00FF193EH   BLOCK     CODE     NEAR LAB  LVL=1
      000000C0H   SYMBOL    EDATA    BYTE      i
      000000C1H   SYMBOL    EDATA    BYTE      addrHigh
      000000C2H   SYMBOL    EDATA    BYTE      addrMid
      000000C3H   SYMBOL    EDATA    BYTE      addrLow
      00FF1958H   BLOCK     CODE     NEAR LAB  LVL=2
      000000C4H   SYMBOL    EDATA    ---       fontbuf
      ---         BLOCKEND  ---      ---       LVL=2
      ---         BLOCKEND  ---      ---       LVL=1
      00FF1932H   LINE      CODE     ---       #310
      00FF193EH   LINE      CODE     ---       #311
      00FF193EH   LINE      CODE     ---       #312
      00FF193FH   LINE      CODE     ---       #314
      00FF1941H   LINE      CODE     ---       #316
      00FF1958H   LINE      CODE     ---       #317
      00FF1958H   LINE      CODE     ---       #319
      00FF1964H   LINE      CODE     ---       #320
      00FF196EH   LINE      CODE     ---       #321
      00FF197AH   LINE      CODE     ---       #323
      00FF1984H   LINE      CODE     ---       #324
      00FF198AH   LINE      CODE     ---       #325
      00FF1990H   LINE      CODE     ---       #327
      00FF199AH   LINE      CODE     ---       #328
      00FF19A9H   LINE      CODE     ---       #329
      00FF19B3H   LINE      CODE     ---       #330
      00FF19B8H   LINE      CODE     ---       #331
      00FF19BAH   LINE      CODE     ---       #333
      00FF19C3H   LINE      CODE     ---       #334
      00FF19D8H   LINE      CODE     ---       #335
      ---         BLOCKEND  ---      ---       LVL=0

      00FF167FH   BLOCK     CODE     ---       LVL=0
      R15         REGSYM    ---      BYTE      x
      R14         REGSYM    ---      BYTE      y
      DR28        REGSYM    ---      FLOAT     num1
      R13         REGSYM    ---      BYTE      len
      00FF1689H   BLOCK     CODE     NEAR LAB  LVL=1
      R12         REGSYM    ---      BYTE      i
      00000018H   SYMBOL    EDATA    DWORD     t
      0000001CH   SYMBOL    EDATA    DWORD     num
      ---         BLOCKEND  ---      ---       LVL=1
      00FF167FH   LINE      CODE     ---       #341
      00FF1689H   LINE      CODE     ---       #342
      00FF1689H   LINE      CODE     ---       #343
      00FF1689H   LINE      CODE     ---       #344
      00FF168FH   LINE      CODE     ---       #345
      00FF169DH   LINE      CODE     ---       #346
      00FF16AFH   LINE      CODE     ---       #347
      00FF16C2H   LINE      CODE     ---       #348
      00FF16C7H   LINE      CODE     ---       #350
      00FF16DAH   LINE      CODE     ---       #351
      00FF16E5H   LINE      CODE     ---       #352
      00FF16E8H   LINE      CODE     ---       #353
      00FF16F0H   LINE      CODE     ---       #354
      00FF1723H   LINE      CODE     ---       #356
      00FF1731H   LINE      CODE     ---       #357
      00FF173FH   LINE      CODE     ---       #358
      00FF174DH   LINE      CODE     ---       #359
      00FF175BH   LINE      CODE     ---       #360
      00FF1769H   LINE      CODE     ---       #361
      00FF1777H   LINE      CODE     ---       #362
      00FF1785H   LINE      CODE     ---       #363
      00FF1793H   LINE      CODE     ---       #364
L251 LINKER/LOCATER V4.66.93.0                                                        07/26/2023  23:53:40  PAGE 23


      00FF17A1H   LINE      CODE     ---       #365
      00FF17B0H   LINE      CODE     ---       #366
      00FF17B0H   LINE      CODE     ---       #367
      00FF17B9H   LINE      CODE     ---       #368
      ---         BLOCKEND  ---      ---       LVL=0

      00FF17BCH   BLOCK     CODE     ---       LVL=0
      00FF17BCH   LINE      CODE     ---       #371
      00FF17BCH   LINE      CODE     ---       #374
      00FF17BEH   LINE      CODE     ---       #375
      00FF17C0H   LINE      CODE     ---       #376
      00FF17C7H   LINE      CODE     ---       #377
      00FF17CEH   LINE      CODE     ---       #378
      00FF17D5H   LINE      CODE     ---       #379
      00FF17DCH   LINE      CODE     ---       #380
      00FF17E3H   LINE      CODE     ---       #381
      00FF17EAH   LINE      CODE     ---       #382
      00FF17F1H   LINE      CODE     ---       #383
      00FF17F8H   LINE      CODE     ---       #384
      00FF17FFH   LINE      CODE     ---       #385
      00FF1806H   LINE      CODE     ---       #386
      00FF180DH   LINE      CODE     ---       #387
      00FF1814H   LINE      CODE     ---       #388
      00FF181BH   LINE      CODE     ---       #389
      00FF1822H   LINE      CODE     ---       #390
      00FF1829H   LINE      CODE     ---       #391
      00FF1830H   LINE      CODE     ---       #392
      00FF1837H   LINE      CODE     ---       #393
      00FF183DH   LINE      CODE     ---       #394
      00FF1844H   LINE      CODE     ---       #395
      00FF184BH   LINE      CODE     ---       #396
      00FF1852H   LINE      CODE     ---       #397
      00FF1859H   LINE      CODE     ---       #398
      00FF1860H   LINE      CODE     ---       #399
      00FF1867H   LINE      CODE     ---       #400
      00FF186EH   LINE      CODE     ---       #401
      00FF1875H   LINE      CODE     ---       #402
      00FF1878H   LINE      CODE     ---       #403
      ---         BLOCKEND  ---      ---       LVL=0

      ---         MODULE    ---      ---       Meun
      00FF29D0H   PUBLIC    HCONST   ---       set
      00FF1185H   PUBLIC    CODE     ---       Main_Meun
      00FF1A83H   PUBLIC    CODE     ---       Meun_2_control
      00FF1B22H   PUBLIC    CODE     ---       Meun_2_angle
      00FF187FH   PUBLIC    CODE     ---       Memu
      00FF1BC1H   PUBLIC    CODE     ---       Meun_2_speed
      00FF1C60H   PUBLIC    CODE     ---       Meun_2_Pitching
      00000115H   PUBLIC    EDATA    INT       page_table
      000000D0H   SFRSYM    DATA     BYTE      PSW
      0000009DH   SFRSYM    DATA     BYTE      IRCBAND
      00000097H   SFRSYM    DATA     BYTE      AUXR2
      000000EFH   SFRSYM    DATA     BYTE      AUXINTIF
      000000FDH   SFRSYM    DATA     BYTE      S4CON
      000000ACH   SFRSYM    DATA     BYTE      S3CON
      0000009AH   SFRSYM    DATA     BYTE      S2CON
      000000B7H   SFRSYM    DATA     BYTE      IPH
      000000CDH   SFRSYM    DATA     BYTE      SPSTAT
      000000DDH   SFRSYM    DATA     BYTE      T4T3M
      000000C1H   SFRSYM    DATA     BYTE      WDT_CONTR
      000000DFH   SFRSYM    DATA     BYTE      IP3
      000000F4H   SFRSYM    DATA     BYTE      USBCON
      000000B5H   SFRSYM    DATA     BYTE      IP2
      000000FFH   SFRSYM    DATA     BYTE      RSTCFG
      000000C7H   SFRSYM    DATA     BYTE      IAP_CONTR
L251 LINKER/LOCATER V4.66.93.0                                                        07/26/2023  23:53:40  PAGE 24


      000000F9H   SFRSYM    DATA     BYTE      LINICR
      0000008EH   SFRSYM    DATA     BYTE      AUXR
      000000AFH   SFRSYM    DATA     BYTE      IE2
      00000088H   SFRSYM    DATA     BYTE      TCON
      00000089H   SFRSYM    DATA     BYTE      TMOD
      00000098H   SFRSYM    DATA     BYTE      SCON
      000000F1H   SFRSYM    DATA     BYTE      CANICR
      00000087H   SFRSYM    DATA     BYTE      PCON
      000000BCH   SFRSYM    DATA     BYTE      ADC_CONTR
      000000E7H   SFRSYM    DATA     BYTE      CMPCR2
      000000E6H   SFRSYM    DATA     BYTE      CMPCR1
      000000DEH   SFRSYM    DATA     BYTE      ADCCFG
      000000B8H   SFRSYM    DATA     BYTE      IP
      0000008FH   SFRSYM    DATA     BYTE      INTCLKO
      000000EEH   SFRSYM    DATA     BYTE      IP3H
      000000B6H   SFRSYM    DATA     BYTE      IP2H
      000000A8H   SFRSYM    DATA     BYTE      IE
      000000BBH   SFRSYM    DATA     BYTE      P_SW3
      000000BAH   SFRSYM    DATA     BYTE      P_SW2
      000000A2H   SFRSYM    DATA     BYTE      P_SW1
      000000CEH   SFRSYM    DATA     BYTE      SPCTL
      000000F8H   SFRSYM    DATA     BYTE      P7
      000000E8H   SFRSYM    DATA     BYTE      P6
      000000C8H   SFRSYM    DATA     BYTE      P5
      000000C0H   SFRSYM    DATA     BYTE      P4
      000000B0H   SFRSYM    DATA     BYTE      P3
      000000A0H   SFRSYM    DATA     BYTE      P2
      00000090H   SFRSYM    DATA     BYTE      P1
      00000080H   SFRSYM    DATA     BYTE      P0

      00FF187FH   BLOCK     CODE     ---       LVL=0
      00FF187FH   LINE      CODE     ---       #42
      00FF1883H   LINE      CODE     ---       #44
      00FF1890H   LINE      CODE     ---       #46
      00FF1890H   LINE      CODE     ---       #47
      00FF1893H   LINE      CODE     ---       #48
      00FF1896H   LINE      CODE     ---       #49
      00FF1896H   LINE      CODE     ---       #50
      00FF18BDH   LINE      CODE     ---       #51
      00FF18DCH   LINE      CODE     ---       #52
      00FF18FBH   LINE      CODE     ---       #53
      00FF191DH   LINE      CODE     ---       #54
      00FF192DH   LINE      CODE     ---       #55
      00FF192DH   LINE      CODE     ---       #56
      00FF192DH   LINE      CODE     ---       #57
      ---         BLOCKEND  ---      ---       LVL=0

      00FF1185H   BLOCK     CODE     ---       LVL=0
      00FF1185H   LINE      CODE     ---       #66
      00FF1187H   LINE      CODE     ---       #68
      00FF11A0H   LINE      CODE     ---       #70
      00FF11A8H   LINE      CODE     ---       #71
      00FF11D0H   LINE      CODE     ---       #72
      00FF11F8H   LINE      CODE     ---       #73
      00FF1220H   LINE      CODE     ---       #74
      00FF123EH   LINE      CODE     ---       #75
      00FF1241H   LINE      CODE     ---       #76
      00FF1250H   LINE      CODE     ---       #78
      00FF1253H   LINE      CODE     ---       #79
      00FF1258H   LINE      CODE     ---       #80
      00FF125CH   LINE      CODE     ---       #81
      00FF125FH   LINE      CODE     ---       #82
      00FF1274H   LINE      CODE     ---       #84
      00FF129CH   LINE      CODE     ---       #85
      00FF12C4H   LINE      CODE     ---       #86
L251 LINKER/LOCATER V4.66.93.0                                                        07/26/2023  23:53:40  PAGE 25


      00FF12ECH   LINE      CODE     ---       #87
      00FF1314H   LINE      CODE     ---       #88
      00FF1316H   LINE      CODE     ---       #89
      00FF1325H   LINE      CODE     ---       #91
      00FF1328H   LINE      CODE     ---       #92
      00FF132EH   LINE      CODE     ---       #93
      00FF1336H   LINE      CODE     ---       #94
      00FF1336H   LINE      CODE     ---       #95
      00FF1346H   LINE      CODE     ---       #97
      00FF134DH   LINE      CODE     ---       #98
      ---         BLOCKEND  ---      ---       LVL=0

      00FF1BC1H   BLOCK     CODE     ---       LVL=0
      00FF1BC1H   LINE      CODE     ---       #107
      00FF1BC1H   LINE      CODE     ---       #109
      00FF1BE9H   LINE      CODE     ---       #110
      00FF1C10H   LINE      CODE     ---       #111
      00FF1C38H   LINE      CODE     ---       #112
      ---         BLOCKEND  ---      ---       LVL=0

      00FF1B22H   BLOCK     CODE     ---       LVL=0
      00FF1B22H   LINE      CODE     ---       #115
      00FF1B22H   LINE      CODE     ---       #117
      00FF1B4AH   LINE      CODE     ---       #118
      00FF1B71H   LINE      CODE     ---       #119
      00FF1B99H   LINE      CODE     ---       #120
      ---         BLOCKEND  ---      ---       LVL=0

      00FF1C60H   BLOCK     CODE     ---       LVL=0
      00FF1C60H   LINE      CODE     ---       #123
      00FF1C60H   LINE      CODE     ---       #125
      00FF1C88H   LINE      CODE     ---       #126
      00FF1CAFH   LINE      CODE     ---       #127
      00FF1CD7H   LINE      CODE     ---       #128
      ---         BLOCKEND  ---      ---       LVL=0

      00FF1A83H   BLOCK     CODE     ---       LVL=0
      00FF1A83H   LINE      CODE     ---       #131
      00FF1A83H   LINE      CODE     ---       #133
      00FF1AABH   LINE      CODE     ---       #134
      00FF1AD2H   LINE      CODE     ---       #135
      00FF1AFAH   LINE      CODE     ---       #136
      ---         BLOCKEND  ---      ---       LVL=0

      ---         MODULE    ---      ---       Encoders
      00FF1F24H   PUBLIC    CODE     ---       add
      00FF1F9DH   PUBLIC    CODE     ---       lose
      00FF21DFH   PUBLIC    CODE     ---       up_key_detection
      00FF222EH   PUBLIC    CODE     ---       rotary_encoder
      00FF1CFFH   PUBLIC    CODE     ---       Cancel_determine
      00FF150AH   PUBLIC    CODE     ---       Second_menu_value
      000000F9H   PUBLIC    EDATA    WORD      s_count
      000000FBH   PUBLIC    EDATA    ---       adjust
      00000100H   PUBLIC    EDATA    ---       spin
      00000104H   PUBLIC    EDATA    BYTE      part_count
      00000105H   PUBLIC    EDATA    BYTE      Confirm_exit
      00000106H   PUBLIC    EDATA    BYTE      part2_count
      00000020H.0 PUBLIC    BIT      BIT       rising_edge
      00000020H.1 PUBLIC    BIT      BIT       arrow_Value
      00000020H.2 PUBLIC    BIT      BIT       add_lose
      00000020H.3 PUBLIC    BIT      BIT       long_short
      00000020H.4 PUBLIC    BIT      BIT       falling_Down
      000000D0H   SFRSYM    DATA     BYTE      PSW
      0000009DH   SFRSYM    DATA     BYTE      IRCBAND
      00000097H   SFRSYM    DATA     BYTE      AUXR2
L251 LINKER/LOCATER V4.66.93.0                                                        07/26/2023  23:53:40  PAGE 26


      000000EFH   SFRSYM    DATA     BYTE      AUXINTIF
      000000FDH   SFRSYM    DATA     BYTE      S4CON
      000000ACH   SFRSYM    DATA     BYTE      S3CON
      0000009AH   SFRSYM    DATA     BYTE      S2CON
      000000B7H   SFRSYM    DATA     BYTE      IPH
      000000CDH   SFRSYM    DATA     BYTE      SPSTAT
      000000DDH   SFRSYM    DATA     BYTE      T4T3M
      000000C1H   SFRSYM    DATA     BYTE      WDT_CONTR
      000000DFH   SFRSYM    DATA     BYTE      IP3
      000000F4H   SFRSYM    DATA     BYTE      USBCON
      000000B5H   SFRSYM    DATA     BYTE      IP2
      000000FFH   SFRSYM    DATA     BYTE      RSTCFG
      000000C7H   SFRSYM    DATA     BYTE      IAP_CONTR
      000000F9H   SFRSYM    DATA     BYTE      LINICR
      0000008EH   SFRSYM    DATA     BYTE      AUXR
      000000AFH   SFRSYM    DATA     BYTE      IE2
      00000088H   SFRSYM    DATA     BYTE      TCON
      00000089H   SFRSYM    DATA     BYTE      TMOD
      00000098H   SFRSYM    DATA     BYTE      SCON
      000000F1H   SFRSYM    DATA     BYTE      CANICR
      00000087H   SFRSYM    DATA     BYTE      PCON
      000000BCH   SFRSYM    DATA     BYTE      ADC_CONTR
      000000E7H   SFRSYM    DATA     BYTE      CMPCR2
      000000E6H   SFRSYM    DATA     BYTE      CMPCR1
      000000DEH   SFRSYM    DATA     BYTE      ADCCFG
      000000B8H   SFRSYM    DATA     BYTE      IP
      0000008FH   SFRSYM    DATA     BYTE      INTCLKO
      000000B0H.4 SFRSYM    DATA     BIT       EC11_K
      000000EEH   SFRSYM    DATA     BYTE      IP3H
      000000B6H   SFRSYM    DATA     BYTE      IP2H
      000000A8H   SFRSYM    DATA     BYTE      IE
      000000BBH   SFRSYM    DATA     BYTE      P_SW3
      000000BAH   SFRSYM    DATA     BYTE      P_SW2
      000000B0H.3 SFRSYM    DATA     BIT       EC11_B
      000000A2H   SFRSYM    DATA     BYTE      P_SW1
      000000B0H.2 SFRSYM    DATA     BIT       EC11_A
      000000CEH   SFRSYM    DATA     BYTE      SPCTL
      000000F8H   SFRSYM    DATA     BYTE      P7
      000000E8H   SFRSYM    DATA     BYTE      P6
      000000C8H   SFRSYM    DATA     BYTE      P5
      000000C0H   SFRSYM    DATA     BYTE      P4
      000000B0H   SFRSYM    DATA     BYTE      P3
      000000A0H   SFRSYM    DATA     BYTE      P2
      00000090H   SFRSYM    DATA     BYTE      P1
      00000080H   SFRSYM    DATA     BYTE      P0

      00FF21DFH   BLOCK     CODE     ---       LVL=0
      00FF21DFH   LINE      CODE     ---       #18
      00FF21E1H   LINE      CODE     ---       #20
      00FF21EFH   LINE      CODE     ---       #21
      00FF21F6H   LINE      CODE     ---       #23
      00FF21FEH   LINE      CODE     ---       #24
      00FF2206H   LINE      CODE     ---       #25
      00FF2214H   LINE      CODE     ---       #27
      00FF2216H   LINE      CODE     ---       #28
      00FF2224H   LINE      CODE     ---       #29
      00FF222BH   LINE      CODE     ---       #30
      00FF222BH   LINE      CODE     ---       #31
      00FF222BH   LINE      CODE     ---       #32
      ---         BLOCKEND  ---      ---       LVL=0

      00FF222EH   BLOCK     CODE     ---       LVL=0
      00FF222EH   LINE      CODE     ---       #38
      00FF222EH   LINE      CODE     ---       #40
      00FF223EH   LINE      CODE     ---       #41
L251 LINKER/LOCATER V4.66.93.0                                                        07/26/2023  23:53:40  PAGE 27


      00FF2245H   LINE      CODE     ---       #43
      00FF224DH   LINE      CODE     ---       #44
      00FF2255H   LINE      CODE     ---       #45
      00FF2261H   LINE      CODE     ---       #47
      00FF2263H   LINE      CODE     ---       #48
      00FF226DH   LINE      CODE     ---       #49
      00FF2276H   LINE      CODE     ---       #50
      00FF2276H   LINE      CODE     ---       #51
      00FF2276H   LINE      CODE     ---       #52
      ---         BLOCKEND  ---      ---       LVL=0

      00FF1F24H   BLOCK     CODE     ---       LVL=0
      00FF1F24H   LINE      CODE     ---       #60
      00FF1F24H   LINE      CODE     ---       #62
      00FF1F2AH   LINE      CODE     ---       #64
      00FF1F32H   LINE      CODE     ---       #66
      00FF1F48H   LINE      CODE     ---       #67
      00FF1F4AH   LINE      CODE     ---       #68
      00FF1F4FH   LINE      CODE     ---       #70
      00FF1F65H   LINE      CODE     ---       #71
      00FF1F65H   LINE      CODE     ---       #72
      00FF1F7DH   LINE      CODE     ---       #73
      00FF1F95H   LINE      CODE     ---       #74
      00FF1F98H   LINE      CODE     ---       #75
      00FF1F98H   LINE      CODE     ---       #78
      00FF1F9AH   LINE      CODE     ---       #79
      00FF1F9DH   LINE      CODE     ---       #80
      00FF1F9DH   LINE      CODE     ---       #81
      ---         BLOCKEND  ---      ---       LVL=0

      00FF1F9DH   BLOCK     CODE     ---       LVL=0
      00FF1F9DH   LINE      CODE     ---       #88
      00FF1F9DH   LINE      CODE     ---       #90
      00FF1FA3H   LINE      CODE     ---       #92
      00FF1FABH   LINE      CODE     ---       #94
      00FF1FC1H   LINE      CODE     ---       #95
      00FF1FC3H   LINE      CODE     ---       #96
      00FF1FC8H   LINE      CODE     ---       #98
      00FF1FDEH   LINE      CODE     ---       #99
      00FF1FDEH   LINE      CODE     ---       #100
      00FF1FF6H   LINE      CODE     ---       #101
      00FF200EH   LINE      CODE     ---       #102
      00FF2011H   LINE      CODE     ---       #103
      00FF2011H   LINE      CODE     ---       #106
      00FF2013H   LINE      CODE     ---       #107
      00FF2016H   LINE      CODE     ---       #108
      00FF2016H   LINE      CODE     ---       #109
      ---         BLOCKEND  ---      ---       LVL=0

      00FF150AH   BLOCK     CODE     ---       LVL=0
      00FF150AH   LINE      CODE     ---       #115
      00FF150AH   LINE      CODE     ---       #117
      00FF1525H   LINE      CODE     ---       #118
      00FF1540H   LINE      CODE     ---       #119
      00FF156AH   LINE      CODE     ---       #120
      00FF157DH   LINE      CODE     ---       #122
      00FF1592H   LINE      CODE     ---       #123
      00FF15ABH   LINE      CODE     ---       #124
      00FF15BDH   LINE      CODE     ---       #125
      00FF15D0H   LINE      CODE     ---       #127
      00FF15E5H   LINE      CODE     ---       #128
      00FF15FEH   LINE      CODE     ---       #129
      00FF160FH   LINE      CODE     ---       #130
      00FF1621H   LINE      CODE     ---       #132
      00FF1636H   LINE      CODE     ---       #133
L251 LINKER/LOCATER V4.66.93.0                                                        07/26/2023  23:53:40  PAGE 28


      00FF164FH   LINE      CODE     ---       #134
      00FF1665H   LINE      CODE     ---       #135
      00FF167EH   LINE      CODE     ---       #136
      ---         BLOCKEND  ---      ---       LVL=0

      00FF1CFFH   BLOCK     CODE     ---       LVL=0
      00FF1CFFH   LINE      CODE     ---       #143
      00FF1CFFH   LINE      CODE     ---       #144
      00FF1CFFH   LINE      CODE     ---       #146
      00FF1D0BH   LINE      CODE     ---       #148
      00FF1D1CH   LINE      CODE     ---       #150
      00FF1D22H   LINE      CODE     ---       #151
      00FF1D25H   LINE      CODE     ---       #152
      00FF1D27H   LINE      CODE     ---       #153
      00FF1D39H   LINE      CODE     ---       #154
      00FF1D42H   LINE      CODE     ---       #155
      00FF1D48H   LINE      CODE     ---       #156
      00FF1D49H   LINE      CODE     ---       #157
      00FF1D5AH   LINE      CODE     ---       #159
      00FF1D60H   LINE      CODE     ---       #160
      00FF1D63H   LINE      CODE     ---       #161
      00FF1D65H   LINE      CODE     ---       #162
      00FF1D67H   LINE      CODE     ---       #163
      00FF1D6CH   LINE      CODE     ---       #164
      00FF1D70H   LINE      CODE     ---       #165
      00FF1D74H   LINE      CODE     ---       #166
      00FF1D78H   LINE      CODE     ---       #167
      00FF1D79H   LINE      CODE     ---       #168
      00FF1D8AH   LINE      CODE     ---       #170
      00FF1D90H   LINE      CODE     ---       #171
      00FF1D90H   LINE      CODE     ---       #173
      ---         BLOCKEND  ---      ---       LVL=0

      ---         MODULE    ---      ---       timer
      00FF2839H   PUBLIC    CODE     ---       delay
      00FF2800H   PUBLIC    CODE     ---       Timer1Init
      00000117H   PUBLIC    EDATA    WORD      delay_cnt
      000000D0H   SFRSYM    DATA     BYTE      PSW
      0000009DH   SFRSYM    DATA     BYTE      IRCBAND
      00000097H   SFRSYM    DATA     BYTE      AUXR2
      000000EFH   SFRSYM    DATA     BYTE      AUXINTIF
      000000FDH   SFRSYM    DATA     BYTE      S4CON
      000000ACH   SFRSYM    DATA     BYTE      S3CON
      0000009AH   SFRSYM    DATA     BYTE      S2CON
      000000B7H   SFRSYM    DATA     BYTE      IPH
      000000CDH   SFRSYM    DATA     BYTE      SPSTAT
      000000DDH   SFRSYM    DATA     BYTE      T4T3M
      000000C1H   SFRSYM    DATA     BYTE      WDT_CONTR
      00000088H.6 SFRSYM    DATA     BIT       TR1
      0000008BH   SFRSYM    DATA     BYTE      TL1
      0000008DH   SFRSYM    DATA     BYTE      TH1
      000000DFH   SFRSYM    DATA     BYTE      IP3
      000000F4H   SFRSYM    DATA     BYTE      USBCON
      00000088H.7 SFRSYM    DATA     BIT       TF1
      000000B5H   SFRSYM    DATA     BYTE      IP2
      000000FFH   SFRSYM    DATA     BYTE      RSTCFG
      000000A8H.3 SFRSYM    DATA     BIT       ET1
      000000C7H   SFRSYM    DATA     BYTE      IAP_CONTR
      000000F9H   SFRSYM    DATA     BYTE      LINICR
      0000008EH   SFRSYM    DATA     BYTE      AUXR
      000000AFH   SFRSYM    DATA     BYTE      IE2
      00000088H   SFRSYM    DATA     BYTE      TCON
      00000089H   SFRSYM    DATA     BYTE      TMOD
      00000098H   SFRSYM    DATA     BYTE      SCON
      000000F1H   SFRSYM    DATA     BYTE      CANICR
L251 LINKER/LOCATER V4.66.93.0                                                        07/26/2023  23:53:40  PAGE 29


      00000087H   SFRSYM    DATA     BYTE      PCON
      000000BCH   SFRSYM    DATA     BYTE      ADC_CONTR
      000000E7H   SFRSYM    DATA     BYTE      CMPCR2
      000000E6H   SFRSYM    DATA     BYTE      CMPCR1
      000000DEH   SFRSYM    DATA     BYTE      ADCCFG
      000000B8H   SFRSYM    DATA     BYTE      IP
      0000008FH   SFRSYM    DATA     BYTE      INTCLKO
      000000EEH   SFRSYM    DATA     BYTE      IP3H
      000000B6H   SFRSYM    DATA     BYTE      IP2H
      000000A8H   SFRSYM    DATA     BYTE      IE
      000000BBH   SFRSYM    DATA     BYTE      P_SW3
      000000BAH   SFRSYM    DATA     BYTE      P_SW2
      000000A2H   SFRSYM    DATA     BYTE      P_SW1
      000000CEH   SFRSYM    DATA     BYTE      SPCTL
      000000F8H   SFRSYM    DATA     BYTE      P7
      000000A8H.7 SFRSYM    DATA     BIT       EA
      000000E8H   SFRSYM    DATA     BYTE      P6
      000000C8H   SFRSYM    DATA     BYTE      P5
      000000C0H   SFRSYM    DATA     BYTE      P4
      000000B0H   SFRSYM    DATA     BYTE      P3
      000000A0H   SFRSYM    DATA     BYTE      P2
      00000090H   SFRSYM    DATA     BYTE      P1
      00000080H   SFRSYM    DATA     BYTE      P0

      00FF2800H   BLOCK     CODE     ---       LVL=0
      00FF2800H   LINE      CODE     ---       #3
      00FF2800H   LINE      CODE     ---       #5
      00FF2803H   LINE      CODE     ---       #6
      00FF2806H   LINE      CODE     ---       #7
      00FF2809H   LINE      CODE     ---       #8
      00FF280CH   LINE      CODE     ---       #9
      00FF280EH   LINE      CODE     ---       #10
      00FF2810H   LINE      CODE     ---       #11
      00FF2812H   LINE      CODE     ---       #12
      00FF2814H   LINE      CODE     ---       #13
      ---         BLOCKEND  ---      ---       LVL=0

      00FF2839H   BLOCK     CODE     ---       LVL=0
      WR6         REGSYM    ---      WORD      delay
      00FF2839H   LINE      CODE     ---       #17
      00FF2839H   LINE      CODE     ---       #19
      00FF283DH   LINE      CODE     ---       #20
      00FF2847H   LINE      CODE     ---       #21
      ---         BLOCKEND  ---      ---       LVL=0

      ---         MODULE    ---      ---       Uart
      00FF2765H   PUBLIC    CODE     ---       UartInit
      00FF287CH   PUBLIC    CODE     ---       Uart1_Isr
      00FF2886H   PUBLIC    CODE     ---       Uart_sendbyte
      00FF27AAH   PUBLIC    CODE     ---       Uart_String
      000000D0H   SFRSYM    DATA     BYTE      PSW
      0000009DH   SFRSYM    DATA     BYTE      IRCBAND
      00000097H   SFRSYM    DATA     BYTE      AUXR2
      000000EFH   SFRSYM    DATA     BYTE      AUXINTIF
      000000FDH   SFRSYM    DATA     BYTE      S4CON
      000000ACH   SFRSYM    DATA     BYTE      S3CON
      0000009AH   SFRSYM    DATA     BYTE      S2CON
      000000B7H   SFRSYM    DATA     BYTE      IPH
      000000CDH   SFRSYM    DATA     BYTE      SPSTAT
      000000DDH   SFRSYM    DATA     BYTE      T4T3M
      000000C1H   SFRSYM    DATA     BYTE      WDT_CONTR
      000000D7H   SFRSYM    DATA     BYTE      T2L
      000000D6H   SFRSYM    DATA     BYTE      T2H
      000000DFH   SFRSYM    DATA     BYTE      IP3
      000000F4H   SFRSYM    DATA     BYTE      USBCON
L251 LINKER/LOCATER V4.66.93.0                                                        07/26/2023  23:53:40  PAGE 30


      000000B5H   SFRSYM    DATA     BYTE      IP2
      000000FFH   SFRSYM    DATA     BYTE      RSTCFG
      000000C7H   SFRSYM    DATA     BYTE      IAP_CONTR
      000000F9H   SFRSYM    DATA     BYTE      LINICR
      0000008EH   SFRSYM    DATA     BYTE      AUXR
      000000AFH   SFRSYM    DATA     BYTE      IE2
      00000088H   SFRSYM    DATA     BYTE      TCON
      00000089H   SFRSYM    DATA     BYTE      TMOD
      00000098H   SFRSYM    DATA     BYTE      SCON
      000000F1H   SFRSYM    DATA     BYTE      CANICR
      00000087H   SFRSYM    DATA     BYTE      PCON
      00000099H   SFRSYM    DATA     BYTE      SBUF
      000000BCH   SFRSYM    DATA     BYTE      ADC_CONTR
      000000E7H   SFRSYM    DATA     BYTE      CMPCR2
      000000E6H   SFRSYM    DATA     BYTE      CMPCR1
      00000098H.1 SFRSYM    DATA     BIT       TI
      00000098H.0 SFRSYM    DATA     BIT       RI
      000000DEH   SFRSYM    DATA     BYTE      ADCCFG
      000000B8H   SFRSYM    DATA     BYTE      IP
      000000A8H.4 SFRSYM    DATA     BIT       ES
      0000008FH   SFRSYM    DATA     BYTE      INTCLKO
      000000EEH   SFRSYM    DATA     BYTE      IP3H
      000000B6H   SFRSYM    DATA     BYTE      IP2H
      000000A8H   SFRSYM    DATA     BYTE      IE
      000000BBH   SFRSYM    DATA     BYTE      P_SW3
      000000BAH   SFRSYM    DATA     BYTE      P_SW2
      000000A2H   SFRSYM    DATA     BYTE      P_SW1
      000000CEH   SFRSYM    DATA     BYTE      SPCTL
      000000F8H   SFRSYM    DATA     BYTE      P7
      000000A8H.7 SFRSYM    DATA     BIT       EA
      000000E8H   SFRSYM    DATA     BYTE      P6
      000000C8H   SFRSYM    DATA     BYTE      P5
      000000C0H   SFRSYM    DATA     BYTE      P4
      000000B0H   SFRSYM    DATA     BYTE      P3
      000000A0H   SFRSYM    DATA     BYTE      P2
      00000090H   SFRSYM    DATA     BYTE      P1
      00000080H   SFRSYM    DATA     BYTE      P0

      00FF2765H   BLOCK     CODE     ---       LVL=0
      00FF2765H   LINE      CODE     ---       #2
      00FF2765H   LINE      CODE     ---       #4
      00FF2768H   LINE      CODE     ---       #5
      00FF276BH   LINE      CODE     ---       #6
      00FF276EH   LINE      CODE     ---       #7
      00FF2771H   LINE      CODE     ---       #8
      00FF2774H   LINE      CODE     ---       #9
      00FF2777H   LINE      CODE     ---       #10
      00FF2779H   LINE      CODE     ---       #11
      00FF277BH   LINE      CODE     ---       #12
      ---         BLOCKEND  ---      ---       LVL=0

      00FF2886H   BLOCK     CODE     ---       LVL=0
      R11         REGSYM    ---      BYTE      byte
      00FF2886H   LINE      CODE     ---       #14
      00FF2886H   LINE      CODE     ---       #16
      00FF2889H   LINE      CODE     ---       #17
      00FF288CH   LINE      CODE     ---       #18
      00FF288EH   LINE      CODE     ---       #19
      ---         BLOCKEND  ---      ---       LVL=0

      00FF27AAH   BLOCK     CODE     ---       LVL=0
      REG=3       REGSYM    ---      ---       p
      00FF27AAH   LINE      CODE     ---       #21
      00FF27AEH   LINE      CODE     ---       #23
      00FF27B0H   LINE      CODE     ---       #25
L251 LINKER/LOCATER V4.66.93.0                                                        07/26/2023  23:53:40  PAGE 31


      00FF27B8H   LINE      CODE     ---       #26
      00FF27BDH   LINE      CODE     ---       #27
      ---         BLOCKEND  ---      ---       LVL=0

      00FF287CH   BLOCK     CODE     ---       LVL=0
      00FF287CH   LINE      CODE     ---       #29
      00FF287EH   LINE      CODE     ---       #31
      00FF2881H   LINE      CODE     ---       #33
      00FF2883H   LINE      CODE     ---       #34
      ---         BLOCKEND  ---      ---       LVL=0

      ---         MODULE    ---      ---       iic
      00FF2865H   PUBLIC    CODE     ---       IIC_Delay
      00FF2828H   PUBLIC    CODE     ---       IIC_Start
      00FF24A0H   PUBLIC    CODE     ---       Hall_element
      00FF277CH   PUBLIC    CODE     ---       IIC_SendAck
      00FF24CFH   PUBLIC    CODE     ---       IIC_SendByte
      00FF2815H   PUBLIC    CODE     ---       IIC_WaitAck
      00FF2857H   PUBLIC    CODE     ---       IIC_Stop
      00FF25ABH   PUBLIC    CODE     ---       IIC_RecByte
      00000020H.5 PUBLIC    BIT      BIT       ?IIC_SendAck?BIT
      000000D0H   SFRSYM    DATA     BYTE      PSW
      0000009DH   SFRSYM    DATA     BYTE      IRCBAND
      00000097H   SFRSYM    DATA     BYTE      AUXR2
      000000EFH   SFRSYM    DATA     BYTE      AUXINTIF
      000000FDH   SFRSYM    DATA     BYTE      S4CON
      000000ACH   SFRSYM    DATA     BYTE      S3CON
      0000009AH   SFRSYM    DATA     BYTE      S2CON
      000000A0H   SFRSYM    ---      BIT       SCL
      000000B7H   SFRSYM    DATA     BYTE      IPH
      000000CDH   SFRSYM    DATA     BYTE      SPSTAT
      000000DDH   SFRSYM    DATA     BYTE      T4T3M
      000000C1H   SFRSYM    DATA     BYTE      WDT_CONTR
      000000A0H.2 SFRSYM    ---      BIT       SDA
      000000DFH   SFRSYM    DATA     BYTE      IP3
      000000F4H   SFRSYM    DATA     BYTE      USBCON
      000000B5H   SFRSYM    DATA     BYTE      IP2
      000000FFH   SFRSYM    DATA     BYTE      RSTCFG
      000000C7H   SFRSYM    DATA     BYTE      IAP_CONTR
      000000F9H   SFRSYM    DATA     BYTE      LINICR
      0000008EH   SFRSYM    DATA     BYTE      AUXR
      000000AFH   SFRSYM    DATA     BYTE      IE2
      00000088H   SFRSYM    DATA     BYTE      TCON
      00000089H   SFRSYM    DATA     BYTE      TMOD
      00000098H   SFRSYM    DATA     BYTE      SCON
      000000F1H   SFRSYM    DATA     BYTE      CANICR
      00000087H   SFRSYM    DATA     BYTE      PCON
      000000BCH   SFRSYM    DATA     BYTE      ADC_CONTR
      000000E7H   SFRSYM    DATA     BYTE      CMPCR2
      000000E6H   SFRSYM    DATA     BYTE      CMPCR1
      000000DEH   SFRSYM    DATA     BYTE      ADCCFG
      000000B8H   SFRSYM    DATA     BYTE      IP
      0000008FH   SFRSYM    DATA     BYTE      INTCLKO
      000000EEH   SFRSYM    DATA     BYTE      IP3H
      000000B6H   SFRSYM    DATA     BYTE      IP2H
      000000A8H   SFRSYM    DATA     BYTE      IE
      000000BBH   SFRSYM    DATA     BYTE      P_SW3
      000000BAH   SFRSYM    DATA     BYTE      P_SW2
      000000A2H   SFRSYM    DATA     BYTE      P_SW1
      000000CEH   SFRSYM    DATA     BYTE      SPCTL
      000000F8H   SFRSYM    DATA     BYTE      P7
      000000E8H   SFRSYM    DATA     BYTE      P6
      000000C8H   SFRSYM    DATA     BYTE      P5
      000000C0H   SFRSYM    DATA     BYTE      P4
      000000B0H   SFRSYM    DATA     BYTE      P3
L251 LINKER/LOCATER V4.66.93.0                                                        07/26/2023  23:53:40  PAGE 32


      000000A0H   SFRSYM    DATA     BYTE      P2
      00000090H   SFRSYM    DATA     BYTE      P1
      00000080H   SFRSYM    DATA     BYTE      P0

      00FF2865H   BLOCK     CODE     ---       LVL=0
      R7          REGSYM    ---      BYTE      i
      00FF2865H   LINE      CODE     ---       #8
      00FF2867H   LINE      CODE     ---       #10
      00FF2870H   LINE      CODE     ---       #12
      ---         BLOCKEND  ---      ---       LVL=0

      00FF2828H   BLOCK     CODE     ---       LVL=0
      00FF2828H   LINE      CODE     ---       #15
      00FF2828H   LINE      CODE     ---       #17
      00FF282AH   LINE      CODE     ---       #18
      00FF282CH   LINE      CODE     ---       #19
      00FF2831H   LINE      CODE     ---       #20
      00FF2833H   LINE      CODE     ---       #21
      00FF2836H   LINE      CODE     ---       #22
      00FF2838H   LINE      CODE     ---       #23
      ---         BLOCKEND  ---      ---       LVL=0

      00FF2857H   BLOCK     CODE     ---       LVL=0
      00FF2857H   LINE      CODE     ---       #26
      00FF2857H   LINE      CODE     ---       #28
      00FF2859H   LINE      CODE     ---       #29
      00FF285BH   LINE      CODE     ---       #30
      00FF2860H   LINE      CODE     ---       #31
      00FF2862H   LINE      CODE     ---       #32
      ---         BLOCKEND  ---      ---       LVL=0

      00FF277CH   BLOCK     CODE     ---       LVL=0
      00000020H.5 SYMBOL    BIT      BIT       ackbit
      00FF277CH   LINE      CODE     ---       #36
      00FF277CH   LINE      CODE     ---       #38
      00FF277EH   LINE      CODE     ---       #39
      00FF2782H   LINE      CODE     ---       #40
      00FF2787H   LINE      CODE     ---       #41
      00FF2789H   LINE      CODE     ---       #42
      00FF278CH   LINE      CODE     ---       #43
      00FF278EH   LINE      CODE     ---       #44
      00FF2790H   LINE      CODE     ---       #45
      ---         BLOCKEND  ---      ---       LVL=0

      00FF2815H   BLOCK     CODE     ---       LVL=0
      00000020H.6 SYMBOL    BIT      BIT       ackbit
      00FF2815H   LINE      CODE     ---       #49
      00FF2815H   LINE      CODE     ---       #50
      00FF2815H   LINE      CODE     ---       #52
      00FF2817H   LINE      CODE     ---       #53
      00FF281CH   LINE      CODE     ---       #54
      00FF2820H   LINE      CODE     ---       #55
      00FF2822H   LINE      CODE     ---       #56
      00FF2825H   LINE      CODE     ---       #57
      00FF2827H   LINE      CODE     ---       #58
      ---         BLOCKEND  ---      ---       LVL=0

      00FF24CFH   BLOCK     CODE     ---       LVL=0
      R15         REGSYM    ---      BYTE      byt
      00FF24D3H   BLOCK     CODE     NEAR LAB  LVL=1
      R14         REGSYM    ---      BYTE      i
      ---         BLOCKEND  ---      ---       LVL=1
      00FF24CFH   LINE      CODE     ---       #61
      00FF24D3H   LINE      CODE     ---       #62
      00FF24D3H   LINE      CODE     ---       #63
L251 LINKER/LOCATER V4.66.93.0                                                        07/26/2023  23:53:40  PAGE 33


      00FF24D3H   LINE      CODE     ---       #64
      00FF24D6H   LINE      CODE     ---       #66
      00FF24D8H   LINE      CODE     ---       #67
      00FF24DDH   LINE      CODE     ---       #68
      00FF24E6H   LINE      CODE     ---       #69
      00FF24E8H   LINE      CODE     ---       #70
      00FF24EDH   LINE      CODE     ---       #71
      00FF24EFH   LINE      CODE     ---       #72
      00FF24F1H   LINE      CODE     ---       #73
      00FF24F4H   LINE      CODE     ---       #74
      00FF24F8H   LINE      CODE     ---       #75
      00FF24FAH   LINE      CODE     ---       #76
      ---         BLOCKEND  ---      ---       LVL=0

      00FF25ABH   BLOCK     CODE     ---       LVL=0
      00FF25ADH   BLOCK     CODE     NEAR LAB  LVL=1
      R14         REGSYM    ---      BYTE      i
      R15         REGSYM    ---      BYTE      da
      ---         BLOCKEND  ---      ---       LVL=1
      00FF25ABH   LINE      CODE     ---       #79
      00FF25ADH   LINE      CODE     ---       #80
      00FF25ADH   LINE      CODE     ---       #81
      00FF25AFH   LINE      CODE     ---       #82
      00FF25B2H   LINE      CODE     ---       #84
      00FF25B4H   LINE      CODE     ---       #85
      00FF25B9H   LINE      CODE     ---       #86
      00FF25BBH   LINE      CODE     ---       #87
      00FF25C1H   LINE      CODE     ---       #88
      00FF25C3H   LINE      CODE     ---       #89
      00FF25C8H   LINE      CODE     ---       #90
      00FF25CCH   LINE      CODE     ---       #91
      00FF25CEH   LINE      CODE     ---       #92
      ---         BLOCKEND  ---      ---       LVL=0

      00FF24A0H   BLOCK     CODE     ---       LVL=0
      R15         REGSYM    ---      BYTE      readaddr
      00FF24A4H   BLOCK     CODE     NEAR LAB  LVL=1
      R15         REGSYM    ---      BYTE      temp
      ---         BLOCKEND  ---      ---       LVL=1
      00FF24A0H   LINE      CODE     ---       #93
      00FF24A4H   LINE      CODE     ---       #94
      00FF24A4H   LINE      CODE     ---       #95
      00FF24A4H   LINE      CODE     ---       #96
      00FF24A7H   LINE      CODE     ---       #97
      00FF24ACH   LINE      CODE     ---       #98
      00FF24AFH   LINE      CODE     ---       #99
      00FF24B4H   LINE      CODE     ---       #100
      00FF24B7H   LINE      CODE     ---       #102
      00FF24BAH   LINE      CODE     ---       #103
      00FF24BFH   LINE      CODE     ---       #104
      00FF24C2H   LINE      CODE     ---       #105
      00FF24C7H   LINE      CODE     ---       #106
      00FF24CAH   LINE      CODE     ---       #107
      00FF24CCH   LINE      CODE     ---       #108
      ---         BLOCKEND  ---      ---       LVL=0

      ---         MODULE    ---      ---       pwm
      00FF2346H   PUBLIC    CODE     ---       Update_duty
      00FF1D91H   PUBLIC    CODE     ---       PWMA_Config
      0000010BH   PUBLIC    EDATA    INT       dutyL
      0000010DH   PUBLIC    EDATA    INT       dutyR
      000000D0H   SFRSYM    DATA     BYTE      PSW
      0000009DH   SFRSYM    DATA     BYTE      IRCBAND
      00000097H   SFRSYM    DATA     BYTE      AUXR2
      000000EFH   SFRSYM    DATA     BYTE      AUXINTIF
L251 LINKER/LOCATER V4.66.93.0                                                        07/26/2023  23:53:40  PAGE 34


      000000FDH   SFRSYM    DATA     BYTE      S4CON
      000000ACH   SFRSYM    DATA     BYTE      S3CON
      0000009AH   SFRSYM    DATA     BYTE      S2CON
      000000B7H   SFRSYM    DATA     BYTE      IPH
      000000CDH   SFRSYM    DATA     BYTE      SPSTAT
      000000DDH   SFRSYM    DATA     BYTE      T4T3M
      000000C1H   SFRSYM    DATA     BYTE      WDT_CONTR
      000000DFH   SFRSYM    DATA     BYTE      IP3
      000000F4H   SFRSYM    DATA     BYTE      USBCON
      000000B5H   SFRSYM    DATA     BYTE      IP2
      000000FFH   SFRSYM    DATA     BYTE      RSTCFG
      000000C7H   SFRSYM    DATA     BYTE      IAP_CONTR
      000000F9H   SFRSYM    DATA     BYTE      LINICR
      0000008EH   SFRSYM    DATA     BYTE      AUXR
      000000AFH   SFRSYM    DATA     BYTE      IE2
      00000088H   SFRSYM    DATA     BYTE      TCON
      00000089H   SFRSYM    DATA     BYTE      TMOD
      00000098H   SFRSYM    DATA     BYTE      SCON
      000000F1H   SFRSYM    DATA     BYTE      CANICR
      00000087H   SFRSYM    DATA     BYTE      PCON
      000000BCH   SFRSYM    DATA     BYTE      ADC_CONTR
      000000E7H   SFRSYM    DATA     BYTE      CMPCR2
      000000E6H   SFRSYM    DATA     BYTE      CMPCR1
      000000DEH   SFRSYM    DATA     BYTE      ADCCFG
      000000B8H   SFRSYM    DATA     BYTE      IP
      0000008FH   SFRSYM    DATA     BYTE      INTCLKO
      000000EEH   SFRSYM    DATA     BYTE      IP3H
      000000B6H   SFRSYM    DATA     BYTE      IP2H
      000000A8H   SFRSYM    DATA     BYTE      IE
      000000BBH   SFRSYM    DATA     BYTE      P_SW3
      000000BAH   SFRSYM    DATA     BYTE      P_SW2
      000000A2H   SFRSYM    DATA     BYTE      P_SW1
      000000CEH   SFRSYM    DATA     BYTE      SPCTL
      000000F8H   SFRSYM    DATA     BYTE      P7
      000000E8H   SFRSYM    DATA     BYTE      P6
      000000C8H   SFRSYM    DATA     BYTE      P5
      000000C0H   SFRSYM    DATA     BYTE      P4
      000000B0H   SFRSYM    DATA     BYTE      P3
      000000A0H   SFRSYM    DATA     BYTE      P2
      00000090H   SFRSYM    DATA     BYTE      P1
      00000080H   SFRSYM    DATA     BYTE      P0

      00FF1D91H   BLOCK     CODE     ---       LVL=0
      00FF1D91H   LINE      CODE     ---       #9
      00FF1D91H   LINE      CODE     ---       #11
      00FF1D9EH   LINE      CODE     ---       #13
      00FF1DA6H   LINE      CODE     ---       #14
      00FF1DAFH   LINE      CODE     ---       #16
      00FF1DB7H   LINE      CODE     ---       #17
      00FF1DC4H   LINE      CODE     ---       #18
      00FF1DCBH   LINE      CODE     ---       #19
      00FF1DD0H   LINE      CODE     ---       #21
      00FF1DD9H   LINE      CODE     ---       #22
      00FF1DE2H   LINE      CODE     ---       #24
      00FF1DEBH   LINE      CODE     ---       #25
      00FF1DF4H   LINE      CODE     ---       #27
      00FF1DFDH   LINE      CODE     ---       #28
      00FF1E06H   LINE      CODE     ---       #30
      00FF1E0FH   LINE      CODE     ---       #31
      00FF1E18H   LINE      CODE     ---       #33
      00FF1E21H   LINE      CODE     ---       #34
      ---         BLOCKEND  ---      ---       LVL=0

      00FF2346H   BLOCK     CODE     ---       LVL=0
      R7          REGSYM    ---      BYTE      sw
L251 LINKER/LOCATER V4.66.93.0                                                        07/26/2023  23:53:40  PAGE 35


      00FF2346H   LINE      CODE     ---       #41
      00FF2348H   LINE      CODE     ---       #43
      00FF234CH   LINE      CODE     ---       #45
      00FF2352H   LINE      CODE     ---       #46
      00FF2356H   LINE      CODE     ---       #47
      00FF2356H   LINE      CODE     ---       #65
      00FF2367H   LINE      CODE     ---       #66
      00FF236EH   LINE      CODE     ---       #68
      00FF237BH   LINE      CODE     ---       #69
      00FF2382H   LINE      CODE     ---       #74
      ---         BLOCKEND  ---      ---       LVL=0

      ---         MODULE    ---      ---       GPIO
      00FF23F8H   PUBLIC    CODE     ---       GPIO_init
      00000094H   SFRSYM    DATA     BYTE      P0M0
      000000D0H   SFRSYM    DATA     BYTE      PSW
      000000BAH.7 SFRSYM    DATA     BIT       EAXFR
      0000009DH   SFRSYM    DATA     BYTE      IRCBAND
      00000097H   SFRSYM    DATA     BYTE      AUXR2
      000000EAH   SFRSYM    DATA     BYTE      CKCON
      000000EFH   SFRSYM    DATA     BYTE      AUXINTIF
      000000FDH   SFRSYM    DATA     BYTE      S4CON
      000000ACH   SFRSYM    DATA     BYTE      S3CON
      0000009AH   SFRSYM    DATA     BYTE      S2CON
      000000B7H   SFRSYM    DATA     BYTE      IPH
      000000CDH   SFRSYM    DATA     BYTE      SPSTAT
      000000DDH   SFRSYM    DATA     BYTE      T4T3M
      000000C1H   SFRSYM    DATA     BYTE      WDT_CONTR
      000000E9H   SFRSYM    DATA     BYTE      WTST
      000000DFH   SFRSYM    DATA     BYTE      IP3
      000000F4H   SFRSYM    DATA     BYTE      USBCON
      000000B5H   SFRSYM    DATA     BYTE      IP2
      000000FFH   SFRSYM    DATA     BYTE      RSTCFG
      000000C7H   SFRSYM    DATA     BYTE      IAP_CONTR
      000000F9H   SFRSYM    DATA     BYTE      LINICR
      0000008EH   SFRSYM    DATA     BYTE      AUXR
      000000AFH   SFRSYM    DATA     BYTE      IE2
      00000088H   SFRSYM    DATA     BYTE      TCON
      00000089H   SFRSYM    DATA     BYTE      TMOD
      00000098H   SFRSYM    DATA     BYTE      SCON
      000000F1H   SFRSYM    DATA     BYTE      CANICR
      00000087H   SFRSYM    DATA     BYTE      PCON
      000000BCH   SFRSYM    DATA     BYTE      ADC_CONTR
      000000E7H   SFRSYM    DATA     BYTE      CMPCR2
      000000E6H   SFRSYM    DATA     BYTE      CMPCR1
      000000DEH   SFRSYM    DATA     BYTE      ADCCFG
      000000B8H   SFRSYM    DATA     BYTE      IP
      0000008FH   SFRSYM    DATA     BYTE      INTCLKO
      000000EEH   SFRSYM    DATA     BYTE      IP3H
      000000B6H   SFRSYM    DATA     BYTE      IP2H
      000000A8H   SFRSYM    DATA     BYTE      IE
      000000BBH   SFRSYM    DATA     BYTE      P_SW3
      000000BAH   SFRSYM    DATA     BYTE      P_SW2
      000000A2H   SFRSYM    DATA     BYTE      P_SW1
      000000CEH   SFRSYM    DATA     BYTE      SPCTL
      000000F8H   SFRSYM    DATA     BYTE      P7
      000000E1H   SFRSYM    DATA     BYTE      P7M1
      000000E8H   SFRSYM    DATA     BYTE      P6
      000000C8H   SFRSYM    DATA     BYTE      P5
      000000CBH   SFRSYM    DATA     BYTE      P6M1
      000000E2H   SFRSYM    DATA     BYTE      P7M0
      000000C0H   SFRSYM    DATA     BYTE      P4
      000000C9H   SFRSYM    DATA     BYTE      P5M1
      000000CCH   SFRSYM    DATA     BYTE      P6M0
      000000B0H   SFRSYM    DATA     BYTE      P3
L251 LINKER/LOCATER V4.66.93.0                                                        07/26/2023  23:53:40  PAGE 36


      000000B3H   SFRSYM    DATA     BYTE      P4M1
      000000CAH   SFRSYM    DATA     BYTE      P5M0
      000000A0H   SFRSYM    DATA     BYTE      P2
      000000B1H   SFRSYM    DATA     BYTE      P3M1
      000000B4H   SFRSYM    DATA     BYTE      P4M0
      00000090H   SFRSYM    DATA     BYTE      P1
      00000095H   SFRSYM    DATA     BYTE      P2M1
      000000B2H   SFRSYM    DATA     BYTE      P3M0
      00000080H   SFRSYM    DATA     BYTE      P0
      00000091H   SFRSYM    DATA     BYTE      P1M1
      00000096H   SFRSYM    DATA     BYTE      P2M0
      00000092H   SFRSYM    DATA     BYTE      P1M0
      00000093H   SFRSYM    DATA     BYTE      P0M1

      00FF23F8H   BLOCK     CODE     ---       LVL=0
      00FF23F8H   LINE      CODE     ---       #3
      00FF23F8H   LINE      CODE     ---       #5
      00FF23FBH   LINE      CODE     ---       #6
      00FF23FEH   LINE      CODE     ---       #7
      00FF2401H   LINE      CODE     ---       #9
      00FF2407H   LINE      CODE     ---       #10
      00FF240DH   LINE      CODE     ---       #11
      00FF2413H   LINE      CODE     ---       #12
      00FF2419H   LINE      CODE     ---       #13
      00FF241FH   LINE      CODE     ---       #14
      00FF2425H   LINE      CODE     ---       #15
      00FF242BH   LINE      CODE     ---       #16
      00FF2431H   LINE      CODE     ---       #17
      ---         BLOCKEND  ---      ---       LVL=0

      ---         MODULE    ---      ---       motor
      00FF28A1H   PUBLIC    CODE     ---       Motor_Init
      00FF26A3H   PUBLIC    CODE     ---       Motor_FRcontrol
      00FF288FH   PUBLIC    CODE     ---       Motor_Forward
      00FF2898H   PUBLIC    CODE     ---       Motor_reverse
      00000080H.2 SFRSYM    DATA     BIT       MOTOR_AIN1
      000000D0H   SFRSYM    DATA     BYTE      PSW
      0000009DH   SFRSYM    DATA     BYTE      IRCBAND
      00000097H   SFRSYM    DATA     BYTE      AUXR2
      000000EFH   SFRSYM    DATA     BYTE      AUXINTIF
      000000FDH   SFRSYM    DATA     BYTE      S4CON
      000000ACH   SFRSYM    DATA     BYTE      S3CON
      0000009AH   SFRSYM    DATA     BYTE      S2CON
      000000B7H   SFRSYM    DATA     BYTE      IPH
      000000CDH   SFRSYM    DATA     BYTE      SPSTAT
      000000DDH   SFRSYM    DATA     BYTE      T4T3M
      000000C1H   SFRSYM    DATA     BYTE      WDT_CONTR
      000000DFH   SFRSYM    DATA     BYTE      IP3
      000000F4H   SFRSYM    DATA     BYTE      USBCON
      000000B5H   SFRSYM    DATA     BYTE      IP2
      000000FFH   SFRSYM    DATA     BYTE      RSTCFG
      000000C7H   SFRSYM    DATA     BYTE      IAP_CONTR
      000000F9H   SFRSYM    DATA     BYTE      LINICR
      0000008EH   SFRSYM    DATA     BYTE      AUXR
      000000AFH   SFRSYM    DATA     BYTE      IE2
      00000088H   SFRSYM    DATA     BYTE      TCON
      00000089H   SFRSYM    DATA     BYTE      TMOD
      00000098H   SFRSYM    DATA     BYTE      SCON
      000000F1H   SFRSYM    DATA     BYTE      CANICR
      00000087H   SFRSYM    DATA     BYTE      PCON
      000000BCH   SFRSYM    DATA     BYTE      ADC_CONTR
      000000E7H   SFRSYM    DATA     BYTE      CMPCR2
      000000E6H   SFRSYM    DATA     BYTE      CMPCR1
      000000DEH   SFRSYM    DATA     BYTE      ADCCFG
      000000B8H   SFRSYM    DATA     BYTE      IP
L251 LINKER/LOCATER V4.66.93.0                                                        07/26/2023  23:53:40  PAGE 37


      0000008FH   SFRSYM    DATA     BYTE      INTCLKO
      000000EEH   SFRSYM    DATA     BYTE      IP3H
      000000B6H   SFRSYM    DATA     BYTE      IP2H
      000000A8H   SFRSYM    DATA     BYTE      IE
      000000BBH   SFRSYM    DATA     BYTE      P_SW3
      000000BAH   SFRSYM    DATA     BYTE      P_SW2
      000000A2H   SFRSYM    DATA     BYTE      P_SW1
      000000CEH   SFRSYM    DATA     BYTE      SPCTL
      000000F8H   SFRSYM    DATA     BYTE      P7
      000000E8H   SFRSYM    DATA     BYTE      P6
      000000C8H   SFRSYM    DATA     BYTE      P5
      000000C0H   SFRSYM    DATA     BYTE      P4
      000000B0H   SFRSYM    DATA     BYTE      P3
      000000A0H   SFRSYM    DATA     BYTE      P2
      00000090H   SFRSYM    DATA     BYTE      P1
      00000080H   SFRSYM    DATA     BYTE      P0
      00000080H.4 SFRSYM    DATA     BIT       MOTOR_BIN2
      00000080H.1 SFRSYM    DATA     BIT       MOTOR_AIN2
      00000080H.3 SFRSYM    DATA     BIT       MOTOR_BIN1

      00FF28A1H   BLOCK     CODE     ---       LVL=0
      00FF28A1H   LINE      CODE     ---       #3
      00FF28A1H   LINE      CODE     ---       #5
      00FF28A4H   LINE      CODE     ---       #6
      ---         BLOCKEND  ---      ---       LVL=0

      00FF288FH   BLOCK     CODE     ---       LVL=0
      00FF288FH   LINE      CODE     ---       #9
      00FF288FH   LINE      CODE     ---       #11
      00FF2891H   LINE      CODE     ---       #12
      00FF2893H   LINE      CODE     ---       #14
      00FF2895H   LINE      CODE     ---       #15
      00FF2897H   LINE      CODE     ---       #16
      ---         BLOCKEND  ---      ---       LVL=0

      00FF2898H   BLOCK     CODE     ---       LVL=0
      00FF2898H   LINE      CODE     ---       #18
      00FF2898H   LINE      CODE     ---       #20
      00FF289AH   LINE      CODE     ---       #21
      00FF289CH   LINE      CODE     ---       #23
      00FF289EH   LINE      CODE     ---       #24
      00FF28A0H   LINE      CODE     ---       #25
      ---         BLOCKEND  ---      ---       LVL=0

      00FF26A3H   BLOCK     CODE     ---       LVL=0
      WR6         REGSYM    ---      INT       motor1
      WR4         REGSYM    ---      INT       motor2
      00FF26A3H   LINE      CODE     ---       #33
      00FF26A3H   LINE      CODE     ---       #35
      00FF26A9H   LINE      CODE     ---       #37
      00FF26ABH   LINE      CODE     ---       #38
      00FF26ADH   LINE      CODE     ---       #39
      00FF26AFH   LINE      CODE     ---       #42
      00FF26B1H   LINE      CODE     ---       #43
      00FF26B3H   LINE      CODE     ---       #44
      00FF26B3H   LINE      CODE     ---       #46
      00FF26B9H   LINE      CODE     ---       #48
      00FF26BBH   LINE      CODE     ---       #49
      00FF26BDH   LINE      CODE     ---       #50
      00FF26BEH   LINE      CODE     ---       #53
      00FF26C0H   LINE      CODE     ---       #54
      00FF26C2H   LINE      CODE     ---       #55
      00FF26C2H   LINE      CODE     ---       #56
      ---         BLOCKEND  ---      ---       LVL=0

L251 LINKER/LOCATER V4.66.93.0                                                        07/26/2023  23:53:40  PAGE 38


      ---         MODULE    ---      ---       ADC
      00FF2640H   PUBLIC    CODE     ---       ADC_Readchannel_1
      00FF2661H   PUBLIC    CODE     ---       ADC_Readchannel_2
      00FF26E1H   PUBLIC    CODE     ---       ADC_Readchannel_3
      00FF25D1H   PUBLIC    CODE     ---       ADC_Read
      00FF2793H   PUBLIC    CODE     ---       ADC_Init
      00000107H   PUBLIC    EDATA    BYTE      ?ADC_Read?BYTE
      000000D0H   SFRSYM    DATA     BYTE      PSW
      0000009DH   SFRSYM    DATA     BYTE      IRCBAND
      00000097H   SFRSYM    DATA     BYTE      AUXR2
      000000EFH   SFRSYM    DATA     BYTE      AUXINTIF
      000000FDH   SFRSYM    DATA     BYTE      S4CON
      000000ACH   SFRSYM    DATA     BYTE      S3CON
      0000009AH   SFRSYM    DATA     BYTE      S2CON
      000000B7H   SFRSYM    DATA     BYTE      IPH
      000000CDH   SFRSYM    DATA     BYTE      SPSTAT
      000000BEH   SFRSYM    DATA     BYTE      ADC_RESL
      000000DDH   SFRSYM    DATA     BYTE      T4T3M
      000000C1H   SFRSYM    DATA     BYTE      WDT_CONTR
      000000DFH   SFRSYM    DATA     BYTE      IP3
      000000F4H   SFRSYM    DATA     BYTE      USBCON
      000000B5H   SFRSYM    DATA     BYTE      IP2
      000000FFH   SFRSYM    DATA     BYTE      RSTCFG
      000000BCH.5 SFRSYM    DATA     BIT       ADC_FLAG
      000000C7H   SFRSYM    DATA     BYTE      IAP_CONTR
      000000F9H   SFRSYM    DATA     BYTE      LINICR
      0000008EH   SFRSYM    DATA     BYTE      AUXR
      000000AFH   SFRSYM    DATA     BYTE      IE2
      000000BCH.6 SFRSYM    DATA     BIT       ADC_START
      000000BCH.7 SFRSYM    DATA     BIT       ADC_POWER
      00000088H   SFRSYM    DATA     BYTE      TCON
      00000089H   SFRSYM    DATA     BYTE      TMOD
      00000098H   SFRSYM    DATA     BYTE      SCON
      000000F1H   SFRSYM    DATA     BYTE      CANICR
      00000087H   SFRSYM    DATA     BYTE      PCON
      000000BCH   SFRSYM    DATA     BYTE      ADC_CONTR
      000000E7H   SFRSYM    DATA     BYTE      CMPCR2
      000000E6H   SFRSYM    DATA     BYTE      CMPCR1
      000000DEH   SFRSYM    DATA     BYTE      ADCCFG
      000000B8H   SFRSYM    DATA     BYTE      IP
      0000008FH   SFRSYM    DATA     BYTE      INTCLKO
      000000EEH   SFRSYM    DATA     BYTE      IP3H
      000000B6H   SFRSYM    DATA     BYTE      IP2H
      000000BDH   SFRSYM    DATA     BYTE      ADC_RES
      000000A8H   SFRSYM    DATA     BYTE      IE
      000000BBH   SFRSYM    DATA     BYTE      P_SW3
      000000BAH   SFRSYM    DATA     BYTE      P_SW2
      000000A2H   SFRSYM    DATA     BYTE      P_SW1
      000000CEH   SFRSYM    DATA     BYTE      SPCTL
      000000F8H   SFRSYM    DATA     BYTE      P7
      000000E8H   SFRSYM    DATA     BYTE      P6
      000000C8H   SFRSYM    DATA     BYTE      P5
      000000C0H   SFRSYM    DATA     BYTE      P4
      000000B0H   SFRSYM    DATA     BYTE      P3
      000000A0H   SFRSYM    DATA     BYTE      P2
      00000090H   SFRSYM    DATA     BYTE      P1
      00000080H   SFRSYM    DATA     BYTE      P0

      00FF2793H   BLOCK     CODE     ---       LVL=0
      00FF2793H   LINE      CODE     ---       #3
      00FF2793H   LINE      CODE     ---       #5
      00FF27A0H   LINE      CODE     ---       #6
      00FF27A3H   LINE      CODE     ---       #7
      00FF27A6H   LINE      CODE     ---       #8
      00FF27A9H   LINE      CODE     ---       #9
L251 LINKER/LOCATER V4.66.93.0                                                        07/26/2023  23:53:40  PAGE 39


      ---         BLOCKEND  ---      ---       LVL=0

      00FF25D1H   BLOCK     CODE     ---       LVL=0
      REG=7       REGSYM    ---      ---       channel1
      00FF25D3H   BLOCK     CODE     NEAR LAB  LVL=1
      WR6         REGSYM    ---      WORD      value
      ---         BLOCKEND  ---      ---       LVL=1
      00FF25D1H   LINE      CODE     ---       #11
      00FF25D3H   LINE      CODE     ---       #12
      00FF25D3H   LINE      CODE     ---       #13
      00FF25D3H   LINE      CODE     ---       #14
      00FF25D3H   LINE      CODE     ---       #16
      00FF25D6H   LINE      CODE     ---       #17
      00FF25D7H   LINE      CODE     ---       #18
      00FF25D8H   LINE      CODE     ---       #20
      00FF25DCH   LINE      CODE     ---       #21
      00FF25DFH   LINE      CODE     ---       #23
      00FF25EBH   LINE      CODE     ---       #25
      00FF25EBH   LINE      CODE     ---       #26
      00FF25EBH   LINE      CODE     ---       #28
      00FF25EBH   LINE      CODE     ---       #30
      00FF25F3H   LINE      CODE     ---       #32
      00FF25F6H   LINE      CODE     ---       #34
      00FF25F6H   LINE      CODE     ---       #35
      00FF25F6H   LINE      CODE     ---       #37
      00FF25F6H   LINE      CODE     ---       #41
      00FF25F6H   LINE      CODE     ---       #43
      00FF25F6H   LINE      CODE     ---       #47
      00FF25F6H   LINE      CODE     ---       #48
      00FF25F6H   LINE      CODE     ---       #49
      ---         BLOCKEND  ---      ---       LVL=0

      00FF2640H   BLOCK     CODE     ---       LVL=0
      WR6         REGSYM    ---      WORD      value
      00FF2640H   LINE      CODE     ---       #51
      00FF2640H   LINE      CODE     ---       #52
      00FF2640H   LINE      CODE     ---       #53
      00FF2640H   LINE      CODE     ---       #55
      00FF2648H   LINE      CODE     ---       #58
      00FF264BH   LINE      CODE     ---       #59
      00FF264CH   LINE      CODE     ---       #60
      00FF264DH   LINE      CODE     ---       #62
      00FF2651H   LINE      CODE     ---       #63
      00FF2654H   LINE      CODE     ---       #65
      00FF2660H   LINE      CODE     ---       #66
      00FF2660H   LINE      CODE     ---       #67
      ---         BLOCKEND  ---      ---       LVL=0

      00FF2661H   BLOCK     CODE     ---       LVL=0
      WR6         REGSYM    ---      WORD      value
      00FF2661H   LINE      CODE     ---       #69
      00FF2661H   LINE      CODE     ---       #70
      00FF2661H   LINE      CODE     ---       #71
      00FF2661H   LINE      CODE     ---       #73
      00FF2669H   LINE      CODE     ---       #75
      00FF266CH   LINE      CODE     ---       #76
      00FF266DH   LINE      CODE     ---       #77
      00FF266EH   LINE      CODE     ---       #79
      00FF2672H   LINE      CODE     ---       #80
      00FF2675H   LINE      CODE     ---       #82
      00FF2681H   LINE      CODE     ---       #83
      00FF2681H   LINE      CODE     ---       #84
      ---         BLOCKEND  ---      ---       LVL=0

      00FF26E1H   BLOCK     CODE     ---       LVL=0
L251 LINKER/LOCATER V4.66.93.0                                                        07/26/2023  23:53:40  PAGE 40


      WR6         REGSYM    ---      WORD      value
      00FF26E1H   LINE      CODE     ---       #86
      00FF26E1H   LINE      CODE     ---       #87
      00FF26E1H   LINE      CODE     ---       #88
      00FF26E1H   LINE      CODE     ---       #90
      00FF26E4H   LINE      CODE     ---       #92
      00FF26E7H   LINE      CODE     ---       #93
      00FF26E8H   LINE      CODE     ---       #94
      00FF26E9H   LINE      CODE     ---       #96
      00FF26EDH   LINE      CODE     ---       #97
      00FF26F0H   LINE      CODE     ---       #99
      00FF26FCH   LINE      CODE     ---       #100
      00FF26FCH   LINE      CODE     ---       #101
      ---         BLOCKEND  ---      ---       LVL=0

      ---         MODULE    ---      ---       LineFollower
      00FF218BH   PUBLIC    CODE     ---       ReadLine
      00000119H   PUBLIC    EDATA    BYTE      read_value
      000000D0H   SFRSYM    DATA     BYTE      PSW
      0000009DH   SFRSYM    DATA     BYTE      IRCBAND
      00000097H   SFRSYM    DATA     BYTE      AUXR2
      000000C8H.2 SFRSYM    DATA     BIT       det_R
      000000EFH   SFRSYM    DATA     BYTE      AUXINTIF
      00000080H.6 SFRSYM    DATA     BIT       det_L
      000000FDH   SFRSYM    DATA     BYTE      S4CON
      000000ACH   SFRSYM    DATA     BYTE      S3CON
      0000009AH   SFRSYM    DATA     BYTE      S2CON
      000000B7H   SFRSYM    DATA     BYTE      IPH
      000000CDH   SFRSYM    DATA     BYTE      SPSTAT
      000000DDH   SFRSYM    DATA     BYTE      T4T3M
      000000C1H   SFRSYM    DATA     BYTE      WDT_CONTR
      000000DFH   SFRSYM    DATA     BYTE      IP3
      000000F4H   SFRSYM    DATA     BYTE      USBCON
      000000B5H   SFRSYM    DATA     BYTE      IP2
      000000FFH   SFRSYM    DATA     BYTE      RSTCFG
      000000C7H   SFRSYM    DATA     BYTE      IAP_CONTR
      000000F9H   SFRSYM    DATA     BYTE      LINICR
      0000008EH   SFRSYM    DATA     BYTE      AUXR
      000000AFH   SFRSYM    DATA     BYTE      IE2
      00000088H   SFRSYM    DATA     BYTE      TCON
      00000089H   SFRSYM    DATA     BYTE      TMOD
      00000098H   SFRSYM    DATA     BYTE      SCON
      000000C8H.3 SFRSYM    DATA     BIT       det_CR
      000000F1H   SFRSYM    DATA     BYTE      CANICR
      00000087H   SFRSYM    DATA     BYTE      PCON
      000000BCH   SFRSYM    DATA     BYTE      ADC_CONTR
      00000080H.5 SFRSYM    DATA     BIT       det_CL
      000000E7H   SFRSYM    DATA     BYTE      CMPCR2
      000000E6H   SFRSYM    DATA     BYTE      CMPCR1
      000000DEH   SFRSYM    DATA     BYTE      ADCCFG
      000000B8H   SFRSYM    DATA     BYTE      IP
      0000008FH   SFRSYM    DATA     BYTE      INTCLKO
      000000EEH   SFRSYM    DATA     BYTE      IP3H
      000000B6H   SFRSYM    DATA     BYTE      IP2H
      000000A8H   SFRSYM    DATA     BYTE      IE
      000000BBH   SFRSYM    DATA     BYTE      P_SW3
      000000BAH   SFRSYM    DATA     BYTE      P_SW2
      000000A2H   SFRSYM    DATA     BYTE      P_SW1
      000000CEH   SFRSYM    DATA     BYTE      SPCTL
      000000F8H   SFRSYM    DATA     BYTE      P7
      000000E8H   SFRSYM    DATA     BYTE      P6
      000000C8H   SFRSYM    DATA     BYTE      P5
      000000C0H   SFRSYM    DATA     BYTE      P4
      000000B0H   SFRSYM    DATA     BYTE      P3
      000000A0H   SFRSYM    DATA     BYTE      P2
L251 LINKER/LOCATER V4.66.93.0                                                        07/26/2023  23:53:40  PAGE 41


      00000090H   SFRSYM    DATA     BYTE      P1
      00000080H   SFRSYM    DATA     BYTE      P0

      00FF218BH   BLOCK     CODE     ---       LVL=0
      R7          REGSYM    ---      BYTE      read_value
      R10         REGSYM    ---      CHAR      return_value
      00FF218BH   LINE      CODE     ---       #4
      00FF218BH   LINE      CODE     ---       #5
      00FF218BH   LINE      CODE     ---       #6
      00FF218BH   LINE      CODE     ---       #7
      00FF218DH   LINE      CODE     ---       #9
      00FF2193H   LINE      CODE     ---       #10
      00FF2198H   LINE      CODE     ---       #12
      00FF219AH   LINE      CODE     ---       #14
      00FF21A0H   LINE      CODE     ---       #15
      00FF21A5H   LINE      CODE     ---       #17
      00FF21A8H   LINE      CODE     ---       #19
      00FF21AEH   LINE      CODE     ---       #20
      00FF21B3H   LINE      CODE     ---       #22
      00FF21B6H   LINE      CODE     ---       #24
      00FF21BCH   LINE      CODE     ---       #25
      00FF21C1H   LINE      CODE     ---       #27
      00FF21C4H   LINE      CODE     ---       #29
      00FF21D0H   LINE      CODE     ---       #31
      00FF21D0H   LINE      CODE     ---       #32
      00FF21D2H   LINE      CODE     ---       #33
      00FF21D4H   LINE      CODE     ---       #34
      00FF21D4H   LINE      CODE     ---       #35
      00FF21D7H   LINE      CODE     ---       #36
      00FF21D9H   LINE      CODE     ---       #37
      00FF21D9H   LINE      CODE     ---       #38
      00FF21DCH   LINE      CODE     ---       #39
      00FF21DCH   LINE      CODE     ---       #52
      00FF21DCH   LINE      CODE     ---       #54
      00FF21DEH   LINE      CODE     ---       #55
      ---         BLOCKEND  ---      ---       LVL=0

      ---         MODULE    ---      ---       MPU6050
      00FF27C0H   PUBLIC    CODE     ---       I2C_RecvACK
      00FF2871H   PUBLIC    CODE     ---       Delay2us
      00FF26FDH   PUBLIC    CODE     ---       Single_WriteI2C
      00FF2016H   PUBLIC    CODE     ---       Read_MPU6050
      00FF2734H   PUBLIC    CODE     ---       I2C_Start
      00FF2682H   PUBLIC    CODE     ---       Delay50ms
      00FF261DH   PUBLIC    CODE     ---       I2C_SendByte
      00FF2848H   PUBLIC    CODE     ---       I2C_Stop
      00FF25F7H   PUBLIC    CODE     ---       I2C_RecvByte
      00FF2383H   PUBLIC    CODE     ---       InitMPU6050
      000000D0H   SFRSYM    DATA     BYTE      PSW
      0000009DH   SFRSYM    DATA     BYTE      IRCBAND
      00000097H   SFRSYM    DATA     BYTE      AUXR2
      000000EFH   SFRSYM    DATA     BYTE      AUXINTIF
      000000FDH   SFRSYM    DATA     BYTE      S4CON
      000000ACH   SFRSYM    DATA     BYTE      S3CON
      0000009AH   SFRSYM    DATA     BYTE      S2CON
      000000A0H   SFRSYM    ---      BIT       SCL
      000000B7H   SFRSYM    DATA     BYTE      IPH
      000000CDH   SFRSYM    DATA     BYTE      SPSTAT
      000000DDH   SFRSYM    DATA     BYTE      T4T3M
      000000C1H   SFRSYM    DATA     BYTE      WDT_CONTR
      000000A0H.2 SFRSYM    ---      BIT       SDA
      000000DFH   SFRSYM    DATA     BYTE      IP3
      000000F4H   SFRSYM    DATA     BYTE      USBCON
      000000B5H   SFRSYM    DATA     BYTE      IP2
      000000FFH   SFRSYM    DATA     BYTE      RSTCFG
L251 LINKER/LOCATER V4.66.93.0                                                        07/26/2023  23:53:40  PAGE 42


      000000C7H   SFRSYM    DATA     BYTE      IAP_CONTR
      000000F9H   SFRSYM    DATA     BYTE      LINICR
      0000008EH   SFRSYM    DATA     BYTE      AUXR
      000000AFH   SFRSYM    DATA     BYTE      IE2
      00000088H   SFRSYM    DATA     BYTE      TCON
      00000089H   SFRSYM    DATA     BYTE      TMOD
      00000098H   SFRSYM    DATA     BYTE      SCON
      000000F1H   SFRSYM    DATA     BYTE      CANICR
      00000087H   SFRSYM    DATA     BYTE      PCON
      000000BCH   SFRSYM    DATA     BYTE      ADC_CONTR
      000000E7H   SFRSYM    DATA     BYTE      CMPCR2
      000000E6H   SFRSYM    DATA     BYTE      CMPCR1
      000000D0H.7 SFRSYM    DATA     BIT       CY
      000000DEH   SFRSYM    DATA     BYTE      ADCCFG
      000000B8H   SFRSYM    DATA     BYTE      IP
      0000008FH   SFRSYM    DATA     BYTE      INTCLKO
      000000EEH   SFRSYM    DATA     BYTE      IP3H
      000000B6H   SFRSYM    DATA     BYTE      IP2H
      000000A8H   SFRSYM    DATA     BYTE      IE
      000000BBH   SFRSYM    DATA     BYTE      P_SW3
      000000BAH   SFRSYM    DATA     BYTE      P_SW2
      000000A2H   SFRSYM    DATA     BYTE      P_SW1
      000000CEH   SFRSYM    DATA     BYTE      SPCTL
      000000F8H   SFRSYM    DATA     BYTE      P7
      000000E8H   SFRSYM    DATA     BYTE      P6
      000000C8H   SFRSYM    DATA     BYTE      P5
      000000C0H   SFRSYM    DATA     BYTE      P4
      000000B0H   SFRSYM    DATA     BYTE      P3
      000000A0H   SFRSYM    DATA     BYTE      P2
      00000090H   SFRSYM    DATA     BYTE      P1
      00000080H   SFRSYM    DATA     BYTE      P0

      00FF2871H   BLOCK     CODE     ---       LVL=0
      R10         REGSYM    ---      BYTE      i
      00FF2871H   LINE      CODE     ---       #25
      00FF2871H   LINE      CODE     ---       #26
      00FF2871H   LINE      CODE     ---       #28
      00FF2874H   LINE      CODE     ---       #29
      00FF287BH   LINE      CODE     ---       #30
      ---         BLOCKEND  ---      ---       LVL=0

      00FF2682H   BLOCK     CODE     ---       LVL=0
      R10         REGSYM    ---      BYTE      i
      R7          REGSYM    ---      BYTE      j
      R6          REGSYM    ---      BYTE      k
      00FF2682H   LINE      CODE     ---       #32
      00FF2682H   LINE      CODE     ---       #33
      00FF2682H   LINE      CODE     ---       #36
      00FF2683H   LINE      CODE     ---       #37
      00FF2684H   LINE      CODE     ---       #38
      00FF2687H   LINE      CODE     ---       #39
      00FF268AH   LINE      CODE     ---       #40
      00FF268DH   LINE      CODE     ---       #41
      00FF268DH   LINE      CODE     ---       #43
      00FF268DH   LINE      CODE     ---       #45
      00FF2694H   LINE      CODE     ---       #46
      00FF269BH   LINE      CODE     ---       #47
      00FF26A2H   LINE      CODE     ---       #48
      ---         BLOCKEND  ---      ---       LVL=0

      00FF2734H   BLOCK     CODE     ---       LVL=0
      00FF2734H   LINE      CODE     ---       #55
      00FF2734H   LINE      CODE     ---       #57
      00FF2737H   LINE      CODE     ---       #58
      00FF273AH   LINE      CODE     ---       #59
L251 LINKER/LOCATER V4.66.93.0                                                        07/26/2023  23:53:40  PAGE 43


      00FF273CH   LINE      CODE     ---       #60
      00FF273EH   LINE      CODE     ---       #61
      00FF2741H   LINE      CODE     ---       #62
      00FF2744H   LINE      CODE     ---       #63
      00FF2746H   LINE      CODE     ---       #64
      00FF2749H   LINE      CODE     ---       #65
      00FF274BH   LINE      CODE     ---       #66
      ---         BLOCKEND  ---      ---       LVL=0

      00FF2848H   BLOCK     CODE     ---       LVL=0
      00FF2848H   LINE      CODE     ---       #72
      00FF2848H   LINE      CODE     ---       #74
      00FF284BH   LINE      CODE     ---       #75
      00FF284DH   LINE      CODE     ---       #76
      00FF284FH   LINE      CODE     ---       #77
      00FF2852H   LINE      CODE     ---       #78
      00FF2854H   LINE      CODE     ---       #79
      ---         BLOCKEND  ---      ---       LVL=0

      00FF27C0H   BLOCK     CODE     ---       LVL=0
      00FF27C0H   LINE      CODE     ---       #85
      00FF27C0H   LINE      CODE     ---       #87
      00FF27C2H   LINE      CODE     ---       #88
      00FF27C5H   LINE      CODE     ---       #89
      00FF27C7H   LINE      CODE     ---       #90
      00FF27CAH   LINE      CODE     ---       #91
      00FF27CEH   LINE      CODE     ---       #92
      00FF27D0H   LINE      CODE     ---       #93
      00FF27D3H   LINE      CODE     ---       #94
      00FF27D5H   LINE      CODE     ---       #95
      ---         BLOCKEND  ---      ---       LVL=0

      00FF261DH   BLOCK     CODE     ---       LVL=0
      R15         REGSYM    ---      BYTE      dat
      00FF2621H   BLOCK     CODE     NEAR LAB  LVL=1
      R14         REGSYM    ---      BYTE      i
      ---         BLOCKEND  ---      ---       LVL=1
      00FF261DH   LINE      CODE     ---       #100
      00FF2621H   LINE      CODE     ---       #101
      00FF2621H   LINE      CODE     ---       #103
      00FF2623H   LINE      CODE     ---       #105
      00FF2625H   LINE      CODE     ---       #106
      00FF2629H   LINE      CODE     ---       #107
      00FF262BH   LINE      CODE     ---       #108
      00FF262EH   LINE      CODE     ---       #109
      00FF2630H   LINE      CODE     ---       #110
      00FF2633H   LINE      CODE     ---       #111
      00FF263AH   LINE      CODE     ---       #112
      00FF263DH   LINE      CODE     ---       #113
      ---         BLOCKEND  ---      ---       LVL=0

      00FF25F7H   BLOCK     CODE     ---       LVL=0
      00FF25F9H   BLOCK     CODE     NEAR LAB  LVL=1
      R14         REGSYM    ---      BYTE      i
      R15         REGSYM    ---      BYTE      dat
      ---         BLOCKEND  ---      ---       LVL=1
      00FF25F7H   LINE      CODE     ---       #118
      00FF25F9H   LINE      CODE     ---       #119
      00FF25F9H   LINE      CODE     ---       #121
      00FF25FBH   LINE      CODE     ---       #122
      00FF25FDH   LINE      CODE     ---       #123
      00FF25FFH   LINE      CODE     ---       #125
      00FF2601H   LINE      CODE     ---       #126
      00FF2603H   LINE      CODE     ---       #127
      00FF2606H   LINE      CODE     ---       #128
L251 LINKER/LOCATER V4.66.93.0                                                        07/26/2023  23:53:40  PAGE 44


      00FF260CH   LINE      CODE     ---       #129
      00FF260EH   LINE      CODE     ---       #130
      00FF2611H   LINE      CODE     ---       #131
      00FF2618H   LINE      CODE     ---       #132
      00FF261AH   LINE      CODE     ---       #133
      ---         BLOCKEND  ---      ---       LVL=0

      00FF26FDH   BLOCK     CODE     ---       LVL=0
      R14         REGSYM    ---      BYTE      REG_Address
      R15         REGSYM    ---      BYTE      REG_data
      00FF26FDH   LINE      CODE     ---       #138
      00FF2701H   LINE      CODE     ---       #140
      00FF2704H   LINE      CODE     ---       #141
      00FF2709H   LINE      CODE     ---       #142
      00FF270EH   LINE      CODE     ---       #143
      00FF2713H   LINE      CODE     ---       #144
      00FF2716H   LINE      CODE     ---       #145
      ---         BLOCKEND  ---      ---       LVL=0

      00FF2383H   BLOCK     CODE     ---       LVL=0
      00FF2383H   LINE      CODE     ---       #174
      00FF2383H   LINE      CODE     ---       #177
      00FF2386H   LINE      CODE     ---       #178
      00FF2389H   LINE      CODE     ---       #179
      00FF238CH   LINE      CODE     ---       #180
      00FF238FH   LINE      CODE     ---       #182
      00FF2397H   LINE      CODE     ---       #183
      00FF239AH   LINE      CODE     ---       #184
      00FF23A1H   LINE      CODE     ---       #185
      00FF23A9H   LINE      CODE     ---       #186
      00FF23B1H   LINE      CODE     ---       #187
      00FF23B9H   LINE      CODE     ---       #188
      ---         BLOCKEND  ---      ---       LVL=0

      00FF2016H   BLOCK     CODE     ---       LVL=0
      REG=3       REGSYM    ---      ---       buf
      00FF201AH   BLOCK     CODE     NEAR LAB  LVL=1
      000000BEH   SYMBOL    EDATA    BYTE      i
      ---         BLOCKEND  ---      ---       LVL=1
      00FF2016H   LINE      CODE     ---       #205
      00FF201AH   LINE      CODE     ---       #206
      00FF201AH   LINE      CODE     ---       #209
      00FF201DH   LINE      CODE     ---       #210
      00FF2022H   LINE      CODE     ---       #211
      00FF2027H   LINE      CODE     ---       #212
      00FF202AH   LINE      CODE     ---       #213
      00FF202FH   LINE      CODE     ---       #214
      00FF2034H   LINE      CODE     ---       #216
      00FF2044H   LINE      CODE     ---       #217
      00FF2046H   LINE      CODE     ---       #218
      00FF2048H   LINE      CODE     ---       #219
      00FF204BH   LINE      CODE     ---       #220
      00FF204DH   LINE      CODE     ---       #221
      00FF2050H   LINE      CODE     ---       #222
      00FF2062H   LINE      CODE     ---       #223
      00FF2072H   LINE      CODE     ---       #224
      00FF2074H   LINE      CODE     ---       #225
      00FF2076H   LINE      CODE     ---       #226
      00FF2079H   LINE      CODE     ---       #227
      00FF207BH   LINE      CODE     ---       #228
      00FF207EH   LINE      CODE     ---       #229
      00FF2081H   LINE      CODE     ---       #230
      ---         BLOCKEND  ---      ---       LVL=0

      ---         MODULE    ---      ---       ?C?FPADD
L251 LINKER/LOCATER V4.66.93.0                                                        07/26/2023  23:53:40  PAGE 45


      00FF002CH   PUBLIC    CODE     ---       ?C?FPADD
      00FF0029H   PUBLIC    CODE     ---       ?C?FPSUB

      ---         MODULE    ---      ---       ?C?FPMUL
      00FF00E4H   PUBLIC    CODE     ---       ?C?FPMUL

      ---         MODULE    ---      ---       ?C?FPDIV
      00FF0184H   PUBLIC    CODE     ---       ?C?FPDIV

      ---         MODULE    ---      ---       ?C?FPNEG
      00FF0205H   PUBLIC    CODE     ---       ?C?FPNEG

      ---         MODULE    ---      ---       ?C?FCAST
      00FF021DH   PUBLIC    CODE     NEAR LAB  ?C?FCASTC
      00FF0218H   PUBLIC    CODE     NEAR LAB  ?C?FCASTI
      00FF0213H   PUBLIC    CODE     NEAR LAB  ?C?FCASTL

      ---         MODULE    ---      ---       ?C?CASTF
      00FF0250H   PUBLIC    CODE     NEAR LAB  ?C?CASTF

      ---         MODULE    ---      ---       SPRINTF
      000000E6H   PUBLIC    EDATA    ---       ?SPRINTF?BYTE
      00FF028DH   PUBLIC    CODE     NEAR LAB  SPRINTF

      ---         MODULE    ---      ---       SQRT?_
      00FF02ADH   PUBLIC    CODE     ---       SQRT?_

      ---         MODULE    ---      ---       ASIN?_
      00FF033DH   PUBLIC    CODE     ---       ASIN?_

      ---         MODULE    ---      ---       atan2
      00FF22BFH   PUBLIC    CODE     ---       atan2?_

      ---         MODULE    ---      ---       ?C?FPGETOPN
      00FF035DH   PUBLIC    CODE     ---       ?C?FPGETOPN2
      00FF039AH   PUBLIC    CODE     ---       ?C?FPNANRESULT
      00FF03A2H   PUBLIC    CODE     ---       ?C?FPOVERFLOW
      00FF0376H   PUBLIC    CODE     ---       ?C?FPRESULT
      00FF038CH   PUBLIC    CODE     ---       ?C?FPRESULT2
      00FF039FH   PUBLIC    CODE     ---       ?C?FPUNDERFLOW

      ---         MODULE    ---      ---       ?C?FPCMP
      00FF03B0H   PUBLIC    CODE     ---       ?C?FPCMP
      00FF03AEH   PUBLIC    CODE     ---       ?C?FPCMP3

      ---         MODULE    ---      ---       ?C?PRNFMT
      00FF0421H   PUBLIC    CODE     ---       ?C?PRNFMT

      ---         MODULE    ---      ---       ATAN?_
      00FF0850H   PUBLIC    CODE     ---       ATAN?_

      ---         MODULE    ---      ---       ?C?FPCONVERT
      00FF0930H   PUBLIC    CODE     ---       ?C?FPCONVERT
      00FF09E8H   PUBLIC    CODE     ---       ?C?FPROUND

      ---         MODULE    ---      ---       ?C?FPSERIES
      00FF0A2BH   PUBLIC    CODE     ---       ?C?FP2SERIES
      00FF0A34H   PUBLIC    CODE     ---       ?C?FPSERIES

      ---         MODULE    ---      ---       ?C?FTNPWR
      00FF0A88H   PUBLIC    CODE     ---       ?C?FTNPWR

      ---         MODULE    ---      ---       ?C_START
      00FF0000H   PUBLIC    CODE     ---       ?C?STARTUP
      00FF0000H   PUBLIC    CODE     ---       ?C_STARTUP
L251 LINKER/LOCATER V4.66.93.0                                                        07/26/2023  23:53:40  PAGE 46



      ---         MODULE    ---      ---       ?C?INITEDATA
      00FF1EC7H   PUBLIC    CODE     ---       ?C?INITEDATA

      ---         MODULE    ---      ---       ?C?INITHDATA
      00FF1EF0H   PUBLIC    CODE     ---       ?C?INITHDATA

      ---         MODULE    ---      ---       ?C?LIMUL
      00FF0ABFH   PUBLIC    CODE     ---       ?C?LIMUL

      ---         MODULE    ---      ---       ?C?ULDIV
      00FF0ACAH   PUBLIC    CODE     NEAR LAB  ?C?ULDIV
      00FF0AC8H   PUBLIC    CODE     NEAR LAB  ?C?ULIDIV

      ---         MODULE    ---      ---       ?C?INITEDATA_END
      00FF2983H   PUBLIC    HCONST   WORD      ?C?INITEDATA_END

      ---         MODULE    ---      ---       ?C?INITHDATA_END
      00FF2AA9H   PUBLIC    HCONST   WORD      ?C?INITHDATA_END



*** WARNING L46: SFR SYMBOL HAS DIFFERENT VALUES
    SYMBOL:  SCL
    MODULE:  MPU6050.obj (MPU6050)
   DEFINED:  iic.obj (iic)

*** WARNING L46: SFR SYMBOL HAS DIFFERENT VALUES
    SYMBOL:  SDA
    MODULE:  MPU6050.obj (MPU6050)
   DEFINED:  iic.obj (iic)

*** WARNING L57: UNCALLED FUNCTION, IGNORED FOR OVERLAY PROCESS
    NAME:    OLED_DisPlay_Off/oled

*** WARNING L57: UNCALLED FUNCTION, IGNORED FOR OVERLAY PROCESS
    NAME:    OLED_Display_128x64/oled

*** WARNING L57: UNCALLED FUNCTION, IGNORED FOR OVERLAY PROCESS
    NAME:    OLED_DisPlay_On/oled

*** WARNING L57: UNCALLED FUNCTION, IGNORED FOR OVERLAY PROCESS
    NAME:    Meun_2_control/Meun

*** WARNING L57: UNCALLED FUNCTION, IGNORED FOR OVERLAY PROCESS
    NAME:    Meun_2_angle/Meun

*** WARNING L57: UNCALLED FUNCTION, IGNORED FOR OVERLAY PROCESS
    NAME:    Memu/Meun

*** WARNING L57: UNCALLED FUNCTION, IGNORED FOR OVERLAY PROCESS
    NAME:    Meun_2_speed/Meun

*** WARNING L57: UNCALLED FUNCTION, IGNORED FOR OVERLAY PROCESS
    NAME:    Meun_2_Pitching/Meun

*** WARNING L57: UNCALLED FUNCTION, IGNORED FOR OVERLAY PROCESS
    NAME:    rotary_encoder/Encoders

*** WARNING L57: UNCALLED FUNCTION, IGNORED FOR OVERLAY PROCESS
    NAME:    Cancel_determine/Encoders

*** WARNING L57: UNCALLED FUNCTION, IGNORED FOR OVERLAY PROCESS
    NAME:    delay/timer

L251 LINKER/LOCATER V4.66.93.0                                                        07/26/2023  23:53:40  PAGE 47


*** WARNING L57: UNCALLED FUNCTION, IGNORED FOR OVERLAY PROCESS
    NAME:    Uart_String/Uart

*** WARNING L57: UNCALLED FUNCTION, IGNORED FOR OVERLAY PROCESS
    NAME:    Hall_element/iic

*** WARNING L57: UNCALLED FUNCTION, IGNORED FOR OVERLAY PROCESS
    NAME:    IIC_SendAck/iic

*** WARNING L57: UNCALLED FUNCTION, IGNORED FOR OVERLAY PROCESS
    NAME:    Motor_reverse/motor

*** WARNING L57: UNCALLED FUNCTION, IGNORED FOR OVERLAY PROCESS
    NAME:    ADC_Readchannel_1/ADC

*** WARNING L57: UNCALLED FUNCTION, IGNORED FOR OVERLAY PROCESS
    NAME:    ADC_Readchannel_2/ADC

*** WARNING L57: UNCALLED FUNCTION, IGNORED FOR OVERLAY PROCESS
    NAME:    ADC_Readchannel_3/ADC

*** WARNING L57: UNCALLED FUNCTION, IGNORED FOR OVERLAY PROCESS
    NAME:    ADC_Read/ADC

*** WARNING L57: UNCALLED FUNCTION, IGNORED FOR OVERLAY PROCESS
    NAME:    ADC_Init/ADC

Program Size: data=24.7 edata+hdata=513 xdata=14 const=542 code=10401
L251 RUN COMPLETE.  22 WARNING(S),  0 ERROR(S)
