L251 LINKER/LOCATER V4.66.93.0                                                          07/30/2023  00:57:28  PAGE 1


L251 LINKER/LOCATER V4.66.93.0, INVOKED BY:
D:\SOFTWARE\WORKSOFTWARE\KEIL5_C251\C251\BIN\L251.EXE main.obj, oled.obj, Meun.obj, Encoders.obj, timer.obj, Uart.obj, i
>> ic.obj, pwm.obj, GPIO.obj, motor.obj, ADC.obj, LineFollower.obj, MPU6050.obj TO LED CASE CLASSES (EDATA (0X0-0XFFF), 
>> HDATA (0X0-0XFFF))


CPU MODE:     251 SOURCE MODE
INTR FRAME:   2 BYTES SAVED ON INTERRUPT
MEMORY MODEL: XSMALL WITH FLOATING POINT ARITHMETIC


INPUT MODULES INCLUDED:
  main.obj (main)
         COMMENT TYPE 0: C251 V5.60.0
  oled.obj (oled)
         COMMENT TYPE 0: C251 V5.60.0
  Meun.obj (Meun)
         COMMENT TYPE 0: C251 V5.60.0
  Encoders.obj (Encoders)
         COMMENT TYPE 0: C251 V5.60.0
  timer.obj (timer)
         COMMENT TYPE 0: C251 V5.60.0
  Uart.obj (Uart)
         COMMENT TYPE 0: C251 V5.60.0
  iic.obj (iic)
         COMMENT TYPE 0: C251 V5.60.0
  pwm.obj (pwm)
         COMMENT TYPE 0: C251 V5.60.0
  GPIO.obj (GPIO)
         COMMENT TYPE 0: C251 V5.60.0
  motor.obj (motor)
         COMMENT TYPE 0: C251 V5.60.0
  ADC.obj (ADC)
         COMMENT TYPE 0: C251 V5.60.0
  LineFollower.obj (LineFollower)
         COMMENT TYPE 0: C251 V5.60.0
  MPU6050.obj (MPU6050)
         COMMENT TYPE 0: C251 V5.60.0
  D:\SOFTWARE\WORKSOFTWARE\KEIL5_C251\C251\LIB\C2SFPXS.LIB (?C?FPADD)
         COMMENT TYPE 0: A251 V4.69.6.0
  D:\SOFTWARE\WORKSOFTWARE\KEIL5_C251\C251\LIB\C2SFPXS.LIB (?C?FPMUL)
         COMMENT TYPE 0: A251 V4.69.6.0
  D:\SOFTWARE\WORKSOFTWARE\KEIL5_C251\C251\LIB\C2SFPXS.LIB (?C?FPDIV)
         COMMENT TYPE 0: A251 V4.69.6.0
  D:\SOFTWARE\WORKSOFTWARE\KEIL5_C251\C251\LIB\C2SFPXS.LIB (?C?FPNEG)
         COMMENT TYPE 0: A251 V4.69.6.0
  D:\SOFTWARE\WORKSOFTWARE\KEIL5_C251\C251\LIB\C2SFPXS.LIB (?C?FCAST)
         COMMENT TYPE 0: A251 V4.69.6.0
  D:\SOFTWARE\WORKSOFTWARE\KEIL5_C251\C251\LIB\C2SFPXS.LIB (?C?CASTF)
         COMMENT TYPE 0: A251 V4.69.6.0
  D:\SOFTWARE\WORKSOFTWARE\KEIL5_C251\C251\LIB\C2SFPXS.LIB (SPRINTF)
         COMMENT TYPE 0: A251 V4.69.6.0
  D:\SOFTWARE\WORKSOFTWARE\KEIL5_C251\C251\LIB\C2SFPXS.LIB (SQRT?_)
         COMMENT TYPE 0: A251 V4.69.6.0
  D:\SOFTWARE\WORKSOFTWARE\KEIL5_C251\C251\LIB\C2SFPXS.LIB (ASIN?_)
         COMMENT TYPE 0: A251 V4.69.6.0
  D:\SOFTWARE\WORKSOFTWARE\KEIL5_C251\C251\LIB\C2SFPXS.LIB (atan2)
         COMMENT TYPE 0: C251 V5.58.7
  D:\SOFTWARE\WORKSOFTWARE\KEIL5_C251\C251\LIB\C2SFPXS.LIB (?C?FPGETOPN)
         COMMENT TYPE 0: A251 V4.69.6.0
  D:\SOFTWARE\WORKSOFTWARE\KEIL5_C251\C251\LIB\C2SFPXS.LIB (?C?FPCMP)
         COMMENT TYPE 0: A251 V4.69.6.0
  D:\SOFTWARE\WORKSOFTWARE\KEIL5_C251\C251\LIB\C2SFPXS.LIB (?C?PRNFMT)
         COMMENT TYPE 0: A251 V4.69.6.0
  D:\SOFTWARE\WORKSOFTWARE\KEIL5_C251\C251\LIB\C2SFPXS.LIB (ATAN?_)
         COMMENT TYPE 0: A251 V4.69.6.0
L251 LINKER/LOCATER V4.66.93.0                                                        07/30/2023  00:57:28  PAGE 2


  D:\SOFTWARE\WORKSOFTWARE\KEIL5_C251\C251\LIB\C2SFPXS.LIB (?C?FPCONVERT)
         COMMENT TYPE 0: A251 V4.69.6.0
  D:\SOFTWARE\WORKSOFTWARE\KEIL5_C251\C251\LIB\C2SFPXS.LIB (?C?FPSERIES)
         COMMENT TYPE 0: A251 V4.69.6.0
  D:\SOFTWARE\WORKSOFTWARE\KEIL5_C251\C251\LIB\C2SFPXS.LIB (?C?FTNPWR)
         COMMENT TYPE 0: A251 V4.69.6.0
  D:\SOFTWARE\WORKSOFTWARE\KEIL5_C251\C251\LIB\C2SXS.LIB (?C_START)
         COMMENT TYPE 0: A251 V4.69.6.0
  D:\SOFTWARE\WORKSOFTWARE\KEIL5_C251\C251\LIB\C2SXS.LIB (?C?INITEDATA)
         COMMENT TYPE 0: A251 V4.69.6.0
  D:\SOFTWARE\WORKSOFTWARE\KEIL5_C251\C251\LIB\C2SXS.LIB (?C?INITHDATA)
         COMMENT TYPE 0: A251 V4.69.6.0
  D:\SOFTWARE\WORKSOFTWARE\KEIL5_C251\C251\LIB\C2SXS.LIB (?C?LIMUL)
         COMMENT TYPE 0: A251 V4.69.6.0
  D:\SOFTWARE\WORKSOFTWARE\KEIL5_C251\C251\LIB\C2SXS.LIB (?C?ULDIV)
         COMMENT TYPE 0: A251 V4.69.6.0
  D:\SOFTWARE\WORKSOFTWARE\KEIL5_C251\C251\LIB\C2SXS.LIB (?C?INITEDATA_END)
         COMMENT TYPE 0: A251 V4.69.6.0
  D:\SOFTWARE\WORKSOFTWARE\KEIL5_C251\C251\LIB\C2SXS.LIB (?C?INITHDATA_END)
         COMMENT TYPE 0: A251 V4.69.6.0


ACTIVE MEMORY CLASSES OF MODULE:  LED (main)

BASE        START       END         USED      MEMORY CLASS
==========================================================
000000H     000000H     000FFFH     000203H   EDATA
000000H     000000H     000FFFH               HDATA
000000H     FF0000H     FFFFFFH     000220H   HCONST
FF0000H     FF0000H     FFFFFFH     00298DH   CODE
000000H     000000H     0000FFH     00000CH   IDATA
010000H     010000H     01FFFFH     00000EH   XDATA
000000H     000000H     00007FH     00000CH   DATA
000020H.0   000020H.0   00002FH.7   000000H.7 BIT
FF0000H     FF0000H     FFFFFFH     000004H   CONST


MEMORY MAP OF MODULE:  LED (main)


START     STOP      LENGTH    ALIGN  RELOC    MEMORY CLASS   SEGMENT NAME
=========================================================================
000000H   000007H   000008H   ---    AT..     DATA           "REG BANK 0"
000008H   00000BH   000004H   BYTE   UNIT     DATA           ?DT?MAIN
00000CH   000013H   000008H   BYTE   UNIT     IDATA          ?ID?MAIN
000014H   000017H   000004H   BYTE   UNIT     IDATA          _IDATA_GROUP_
000018H   00001FH   000008H   BYTE   UNIT     EDATA          ?ED?OLED_SHOWNUM?OLED
000020H.0 000020H.4 000000H.5 BIT    UNIT     BIT            ?BI?ENCODERS
000020H.5 000020H.5 000000H.1 BIT    UNIT     BIT            ?BI?IIC_SENDACK?IIC
000020H.6 000020H.6 000000H.1 BIT    UNIT     BIT            ?BI?IIC_WAITACK?IIC
000020H.7 000020H   000000H.1 ---    ---      **GAP**
000021H   0000BFH   00009FH   BYTE   UNIT     EDATA          ?ED?MAIN
0000C0H   0000FAH   00003BH   BYTE   UNIT     EDATA          _EDATA_GROUP_
0000FBH   000108H   00000EH   BYTE   UNIT     EDATA          ?ED?ENCODERS
000109H   00010CH   000004H   BYTE   UNIT     EDATA          ?ED?OLED
00010DH   000110H   000004H   BYTE   UNIT     EDATA          ?ED?PWM
000111H   000114H   000004H   BYTE   UNIT     EDATA          ?ED?ADC_READ?ADC
000115H   000116H   000002H   BYTE   UNIT     EDATA          ?ED?OLED_DISPLAY_128X64?OLED
000117H   000118H   000002H   BYTE   UNIT     EDATA          ?ED?MEUN
000119H   00011AH   000002H   BYTE   UNIT     EDATA          ?ED?TIMER
00011BH   00011BH   000001H   BYTE   UNIT     EDATA          ?ED?LINEFOLLOWER
00011CH   00021BH   000100H   BYTE   UNIT     EDATA          ?STACK
00021CH   00FFFFH   00FDE4H   ---    ---      **GAP**
010000H   01000DH   00000EH   BYTE   INSEG    XDATA          ?XD?MAIN
01000EH   FEFFFFH   FDFFF2H   ---    ---      **GAP**
L251 LINKER/LOCATER V4.66.93.0                                                        07/30/2023  00:57:28  PAGE 3


FF0000H   FF0002H   000003H   ---    OFFS..   CODE           ?CO?start251?4
FF0003H   FF0019H   000017H   BYTE   INSEG    CODE           ?PR?GET_DATA_FROM_ROM?OLED
FF001AH   FF001AH   000001H   ---    ---      **GAP**
FF001BH   FF001DH   000003H   ---    OFFS..   CODE           ?PR?IV?3
FF001EH   FF0021H   000004H   BYTE   UNIT     CONST          ?CO?PRINTF
FF0022H   FF0022H   000001H   ---    ---      **GAP**
FF0023H   FF0025H   000003H   ---    OFFS..   CODE           ?PR?IV?4
FF0026H   FF0B1AH   000AF5H   BYTE   UNIT     CODE           ?C?LIB_CODE
FF0B1BH   FF0F5BH   000441H   BYTE   INSEG    CODE           ?PR?IMUUPDATE?MAIN
FF0F5CH   FF1184H   000229H   BYTE   INSEG    CODE           ?PR?OLED_16X16?OLED
FF1185H   FF134FH   0001CBH   BYTE   INSEG    CODE           ?PR?MAIN_MEUN?MEUN
FF1350H   FF1509H   0001BAH   BYTE   INSEG    CODE           ?PR?MPU6050_READ?MAIN
FF150AH   FF167EH   000175H   BYTE   INSEG    CODE           ?PR?SECOND_MENU_VALUE?ENCODERS
FF167FH   FF17BBH   00013DH   BYTE   INSEG    CODE           ?PR?OLED_SHOWNUM?OLED
FF17BCH   FF18A4H   0000E9H   BYTE   INSEG    CODE           ?PR?READLINE?LINEFOLLOWER
FF18A5H   FF1967H   0000C3H   BYTE   INSEG    CODE           ?PR?OLED_INIT?OLED
FF1968H   FF1A1AH   0000B3H   BYTE   INSEG    CODE           ?PR?MEMU?MEUN
FF1A1BH   FF1AC3H   0000A9H   BYTE   INSEG    CODE           ?PR?OLED_DISPLAY_STRING_5X7?OLED
FF1AC4H   FF1B6BH   0000A8H   BYTE   INSEG    CODE           ?PR?DISP_REFRESH?MAIN
FF1B6CH   FF1C0EH   0000A3H   BYTE   INSEG    CODE           ?PR?TIMER1?MAIN
FF1C0FH   FF1CADH   00009FH   BYTE   INSEG    CODE           ?PR?MEUN_2_CONTROL?MEUN
FF1CAEH   FF1D4CH   00009FH   BYTE   INSEG    CODE           ?PR?MEUN_2_ANGLE?MEUN
FF1D4DH   FF1DEBH   00009FH   BYTE   INSEG    CODE           ?PR?MEUN_2_SPEED?MEUN
FF1DECH   FF1E8AH   00009FH   BYTE   INSEG    CODE           ?PR?MEUN_2_PITCHING?MEUN
FF1E8BH   FF1F1CH   000092H   BYTE   INSEG    CODE           ?PR?CANCEL_DETERMINE?ENCODERS
FF1F1DH   FF1FADH   000091H   BYTE   INSEG    CODE           ?PR?PWMA_CONFIG?PWM
FF1FAEH   FF202AH   00007DH   BYTE   INSEG    CODE           ?PR?MOTOR_CONTROL?MAIN
FF202BH   FF203DH   000013H   BYTE   UNIT     CODE           ?C_C51STARTUP
FF203EH   FF2047H   00000AH   BYTE   UNIT     CODE           ?C_C51STARTUP?1
FF2048H   FF20A1H   00005AH   BYTE   UNIT     CODE           ?C_C51STARTUP?2
FF20A2H   FF20A4H   000003H   BYTE   UNIT     CODE           ?C_C51STARTUP?3
FF20A5H   FF211DH   000079H   BYTE   INSEG    CODE           ?PR?ADD?ENCODERS
FF211EH   FF2196H   000079H   BYTE   INSEG    CODE           ?PR?LOSE?ENCODERS
FF2197H   FF2204H   00006EH   BYTE   INSEG    CODE           ?PR?READ_MPU6050?MPU6050
FF2205H   FF225FH   00005BH   BYTE   INSEG    CODE           ?PR?OLED_GET_DATA_FROM_ROM?OLED
FF2260H   FF22B5H   000056H   BYTE   INSEG    CODE           ?PR?OLED_DISPLAY_16X16?OLED
FF22B6H   FF230BH   000056H   BYTE   INSEG    CODE           ?PR?OLED_DISPLAY_8X16?OLED
FF230CH   FF235AH   00004FH   BYTE   INSEG    CODE           ?PR?UP_KEY_DETECTION?ENCODERS
FF235BH   FF23A5H   00004BH   BYTE   INSEG    CODE           ?PR?ROTARY_ENCODER?ENCODERS
FF23A6H   FF23EBH   000046H   BYTE   INSEG    CODE           ?PR?OLED_DISPLAY_128X64?OLED
FF23ECH   FF2430H   000045H   BYTE   INSEG    CODE           ?PR?ATAN2?_?ATAN2
FF2431H   FF246DH   00003DH   BYTE   INSEG    CODE           ?PR?UPDATE_DUTY?PWM
FF246EH   FF24A8H   00003BH   BYTE   INSEG    CODE           ?PR?MAIN?MAIN
FF24A9H   FF24E3H   00003BH   BYTE   INSEG    CODE           ?PR?INITMPU6050?MPU6050
FF24E4H   FF251DH   00003AH   BYTE   INSEG    CODE           ?PR?GPIO_INIT?GPIO
FF251EH   FF2554H   000037H   BYTE   INSEG    CODE           ?PR?OLED_CLEAR_0_2?OLED
FF2555H   FF258BH   000037H   BYTE   INSEG    CODE           ?PR?OLED_CLEAR?OLED
FF258CH   FF25BAH   00002FH   BYTE   INSEG    CODE           ?PR?HALL_ELEMENT?IIC
FF25BBH   FF25E8H   00002EH   BYTE   INSEG    CODE           ?PR?IIC_SENDBYTE?IIC
FF25E9H   FF2614H   00002CH   BYTE   INSEG    CODE           ?PR?OLED_DISPLAYTURN?OLED
FF2615H   FF2640H   00002CH   BYTE   INSEG    CODE           ?PR?OLED_DISPLAY_5X7?OLED
FF2641H   FF266BH   00002BH   BYTE   INSEG    CODE           ?PR?OLED_WR_BYTE?OLED
FF266CH   FF2696H   00002BH   BYTE   INSEG    CODE           ?PR?OLED_ADDRESS?OLED
FF2697H   FF26BCH   000026H   BYTE   INSEG    CODE           ?PR?IIC_RECBYTE?IIC
FF26BDH   FF26E2H   000026H   BYTE   INSEG    CODE           ?PR?ADC_READ?ADC
FF26E3H   FF2708H   000026H   BYTE   INSEG    CODE           ?PR?I2C_RECVBYTE?MPU6050
FF2709H   FF272BH   000023H   BYTE   INSEG    CODE           ?PR?I2C_SENDBYTE?MPU6050
FF272CH   FF274CH   000021H   BYTE   INSEG    CODE           ?PR?ADC_READCHANNEL_1?ADC
FF274DH   FF276DH   000021H   BYTE   INSEG    CODE           ?PR?ADC_READCHANNEL_2?ADC
FF276EH   FF278EH   000021H   BYTE   INSEG    CODE           ?PR?DELAY50MS?MPU6050
FF278FH   FF27AEH   000020H   BYTE   INSEG    CODE           ?PR?MOTOR_FRCONTROL?MOTOR
FF27AFH   FF27CCH   00001EH   BYTE   INSEG    CODE           ?PR?OLED_COLORTURN?OLED
FF27CDH   FF27E8H   00001CH   BYTE   INSEG    CODE           ?PR?ADC_READCHANNEL_3?ADC
FF27E9H   FF2804H   00001CH   BYTE   INSEG    CODE           ?PR?SINGLE_WRITEI2C?MPU6050
FF2805H   FF281FH   00001BH   BYTE   INSEG    CODE           ?PR?SEND_COMMAND_TO_ROM?OLED
L251 LINKER/LOCATER V4.66.93.0                                                        07/30/2023  00:57:28  PAGE 4


FF2820H   FF2839H   00001AH   BYTE   INSEG    CODE           ?PR?I2C_START?MPU6050
FF283AH   FF2850H   000017H   BYTE   INSEG    CODE           ?PR?DELAY_MS?OLED
FF2851H   FF2867H   000017H   BYTE   INSEG    CODE           ?PR?UARTINIT?UART
FF2868H   FF287EH   000017H   BYTE   INSEG    CODE           ?PR?IIC_SENDACK?IIC
FF287FH   FF2895H   000017H   BYTE   INSEG    CODE           ?PR?ADC_INIT?ADC
FF2896H   FF28ABH   000016H   BYTE   INSEG    CODE           ?PR?UART_STRING?UART
FF28ACH   FF28C1H   000016H   BYTE   INSEG    CODE           ?PR?I2C_RECVACK?MPU6050
FF28C2H   FF28D6H   000015H   BYTE   INSEG    CODE           ?PR?OLED_DISPLAY_OFF?OLED
FF28D7H   FF28EBH   000015H   BYTE   INSEG    CODE           ?PR?OLED_DISPLAY_ON?OLED
FF28ECH   FF2900H   000015H   BYTE   INSEG    CODE           ?PR?TIMER1INIT?TIMER
FF2901H   FF2913H   000013H   BYTE   INSEG    CODE           ?PR?IIC_WAITACK?IIC
FF2914H   FF2924H   000011H   BYTE   INSEG    CODE           ?PR?IIC_START?IIC
FF2925H   FF2933H   00000FH   BYTE   INSEG    CODE           ?PR?DELAY?TIMER
FF2934H   FF2942H   00000FH   BYTE   INSEG    CODE           ?PR?I2C_STOP?MPU6050
FF2943H   FF2950H   00000EH   BYTE   INSEG    CODE           ?PR?IIC_STOP?IIC
FF2951H   FF295CH   00000CH   BYTE   INSEG    CODE           ?PR?IIC_DELAY?IIC
FF295DH   FF2967H   00000BH   BYTE   INSEG    CODE           ?PR?DELAY2US?MPU6050
FF2968H   FF2971H   00000AH   BYTE   INSEG    CODE           ?PR?UART1_ISR?UART
FF2972H   FF297AH   000009H   BYTE   INSEG    CODE           ?PR?UART_SENDBYTE?UART
FF297BH   FF2983H   000009H   BYTE   INSEG    CODE           ?PR?MOTOR_FORWARD?MOTOR
FF2984H   FF298CH   000009H   BYTE   INSEG    CODE           ?PR?MOTOR_REVERSE?MOTOR
FF298DH   FF2992H   000006H   BYTE   INSEG    CODE           ?PR?MOTOR_INIT?MOTOR
FF2993H   FF2A76H   0000E4H   BYTE   UNIT     HCONST         ?C_INITEDATA
FF2A77H   FF2B51H   0000DBH   BYTE   UNIT     HCONST         ?HC?MEUN
FF2B52H   FF2B78H   000027H   BYTE   UNIT     HCONST         ?HC?MAIN
FF2B79H   FF2B9CH   000024H   BYTE   UNIT     HCONST         ?C_INITHDATA
FF2B9DH   FF2BB2H   000016H   BYTE   UNIT     HCONST         ?HC?OLED



OVERLAY MAP OF MODULE:   LED (main)


FUNCTION/MODULE                   EDATA_GROUP  IDATA_GROUP
--> CALLED FUNCTION/MODULE        START  STOP  START  STOP
==========================================================
timer1/main                       ----- -----  ----- -----

*** NEW ROOT ********************

?C_C51STARTUP?1                   ----- -----  ----- -----

*** NEW ROOT ********************

Uart1_Isr/Uart                    ----- -----  ----- -----

*** NEW ROOT ********************

?C_C51STARTUP                     ----- -----  ----- -----

*** NEW ROOT ********************

?C_C51STARTUP?3                   ----- -----  ----- -----
  +--> main/main

main/main                         ----- -----  ----- -----
  +--> GPIO_init/GPIO
  +--> OLED_Init/oled
  +--> OLED_ColorTurn/oled
  +--> OLED_DisplayTurn/oled
  +--> OLED_Clear/oled
  +--> Timer1Init/timer
  +--> UartInit/Uart
  +--> InitMPU6050/MPU6050
  +--> Motor_Init/motor
L251 LINKER/LOCATER V4.66.93.0                                                        07/30/2023  00:57:28  PAGE 5


  +--> Motor_control/main
  +--> Disp_refresh/main
  +--> MPU6050_Read/main

GPIO_init/GPIO                    ----- -----  ----- -----

OLED_Init/oled                    ----- -----  ----- -----
  +--> delay_ms/oled
  +--> OLED_WR_Byte/oled
  +--> OLED_Clear/oled

delay_ms/oled                     ----- -----  ----- -----

OLED_WR_Byte/oled                 ----- -----  ----- -----

OLED_Clear/oled                   ----- -----  ----- -----
  +--> OLED_WR_Byte/oled

OLED_ColorTurn/oled               ----- -----  ----- -----
  +--> OLED_WR_Byte/oled

OLED_DisplayTurn/oled             ----- -----  ----- -----
  +--> OLED_WR_Byte/oled

Timer1Init/timer                  ----- -----  ----- -----

UartInit/Uart                     ----- -----  ----- -----

InitMPU6050/MPU6050               ----- -----  ----- -----
  +--> Delay2us/MPU6050
  +--> Single_WriteI2C/MPU6050
  +--> Delay50ms/MPU6050

Delay2us/MPU6050                  ----- -----  ----- -----

Single_WriteI2C/MPU6050           ----- -----  ----- -----
  +--> I2C_Start/MPU6050
  +--> I2C_SendByte/MPU6050
  +--> I2C_Stop/MPU6050

I2C_Start/MPU6050                 ----- -----  ----- -----
  +--> Delay2us/MPU6050

I2C_SendByte/MPU6050              ----- -----  ----- -----
  +--> Delay2us/MPU6050
  +--> I2C_RecvACK/MPU6050

I2C_RecvACK/MPU6050               ----- -----  ----- -----
  +--> Delay2us/MPU6050

I2C_Stop/MPU6050                  ----- -----  ----- -----
  +--> Delay2us/MPU6050

Delay50ms/MPU6050                 ----- -----  ----- -----

Motor_Init/motor                  ----- -----  ----- -----
  +--> PWMA_Config/pwm
  +--> Motor_Forward/motor

PWMA_Config/pwm                   ----- -----  ----- -----

Motor_Forward/motor               ----- -----  ----- -----

Motor_control/main                ----- -----  ----- -----
  +--> ReadLine/LineFollower
L251 LINKER/LOCATER V4.66.93.0                                                        07/30/2023  00:57:28  PAGE 6


  +--> Motor_FRcontrol/motor
  +--> Update_duty/pwm

ReadLine/LineFollower             ----- -----  ----- -----

Motor_FRcontrol/motor             ----- -----  ----- -----

Update_duty/pwm                   ----- -----  ----- -----

Disp_refresh/main                 ----- -----  ----- -----
  +--> SPRINTF/SPRINTF
  +--> OLED_16x16/oled
  +--> OLED_Display_string_5x7/oled

SPRINTF/SPRINTF                   00C0H 00E7H  ----- -----
  +--> OUT/SPRINTF

OUT/SPRINTF                       ----- -----  ----- -----
  +--> PUTCH/SPRINTF

PUTCH/SPRINTF                     ----- -----  ----- -----

OLED_16x16/oled                   00C0H 00F5H  ----- -----
  +--> OLED_get_data_from_ROM/oled
  +--> OLED_Display_16x16/oled
  +--> OLED_Display_8x16/oled

OLED_get_data_from_ROM/oled       00F6H 00FAH  ----- -----
  +--> Send_Command_to_ROM/oled
  +--> Get_data_from_ROM/oled

Send_Command_to_ROM/oled          ----- -----  ----- -----

Get_data_from_ROM/oled            ----- -----  ----- -----

OLED_Display_16x16/oled           00F6H 00F9H  ----- -----
  +--> OLED_address/oled
  +--> OLED_WR_Byte/oled

OLED_address/oled                 ----- -----  ----- -----
  +--> OLED_WR_Byte/oled

OLED_Display_8x16/oled            00F6H 00F9H  ----- -----
  +--> OLED_address/oled
  +--> OLED_WR_Byte/oled

OLED_Display_string_5x7/oled      00C0H 00CDH  ----- -----
  +--> OLED_get_data_from_ROM/oled
  +--> OLED_Display_5x7/oled

OLED_Display_5x7/oled             00CEH 00CEH  ----- -----
  +--> OLED_address/oled
  +--> OLED_WR_Byte/oled

MPU6050_Read/main                 ----- -----  ----- -----
  +--> Read_MPU6050/MPU6050
  +--> IMUupdate/main

Read_MPU6050/MPU6050              00C0H 00C0H  ----- -----
  +--> I2C_Start/MPU6050
  +--> I2C_SendByte/MPU6050
  +--> I2C_RecvByte/MPU6050
  +--> Delay2us/MPU6050
  +--> I2C_Stop/MPU6050

L251 LINKER/LOCATER V4.66.93.0                                                        07/30/2023  00:57:28  PAGE 7


I2C_RecvByte/MPU6050              ----- -----  ----- -----
  +--> Delay2us/MPU6050

IMUupdate/main                    00C0H 00D3H  0014H 0017H
  +--> atan2?_/atan2

atan2?_/atan2                     ----- -----  ----- -----

*** NEW ROOT ********************

?C_C51STARTUP?2                   ----- -----  ----- -----



PUBLIC SYMBOLS OF MODULE:  LED (main)


      VALUE       CLASS    TYPE      PUBLIC SYMBOL NAME
      =================================================
      00000109H   EDATA    BYTE      ?ADC_Read?BYTE
      00FF0250H   CODE     NEAR LAB  ?C?CASTF
      000000FFH   NUMBER   ---       ?C?CODESEG
      00FF021DH   CODE     NEAR LAB  ?C?FCASTC
      00FF0218H   CODE     NEAR LAB  ?C?FCASTI
      00FF0213H   CODE     NEAR LAB  ?C?FCASTL
      00FF0A2BH   CODE     ---       ?C?FP2SERIES
      00FF002CH   CODE     ---       ?C?FPADD
      00FF03B0H   CODE     ---       ?C?FPCMP
      00FF03AEH   CODE     ---       ?C?FPCMP3
      00FF0930H   CODE     ---       ?C?FPCONVERT
      00FF0184H   CODE     ---       ?C?FPDIV
      00FF035DH   CODE     ---       ?C?FPGETOPN2
      00FF00E4H   CODE     ---       ?C?FPMUL
      00FF039AH   CODE     ---       ?C?FPNANRESULT
      00FF0205H   CODE     ---       ?C?FPNEG
      00FF03A2H   CODE     ---       ?C?FPOVERFLOW
      00FF0376H   CODE     ---       ?C?FPRESULT
      00FF038CH   CODE     ---       ?C?FPRESULT2
      00FF09E8H   CODE     ---       ?C?FPROUND
      00FF0A34H   CODE     ---       ?C?FPSERIES
      00FF0029H   CODE     ---       ?C?FPSUB
      00FF039FH   CODE     ---       ?C?FPUNDERFLOW
      00FF0A88H   CODE     ---       ?C?FTNPWR
      00FF2048H   CODE     ---       ?C?INITEDATA
      00FF2A75H   HCONST   WORD      ?C?INITEDATA_END
      00FF2071H   CODE     ---       ?C?INITHDATA
      00FF2B9BH   HCONST   WORD      ?C?INITHDATA_END
      00FF0ABFH   CODE     ---       ?C?LIMUL
      00FF0421H   CODE     ---       ?C?PRNFMT
      00FF0000H   CODE     ---       ?C?STARTUP
      00FF0ACAH   CODE     NEAR LAB  ?C?ULDIV
      00FF0AC8H   CODE     NEAR LAB  ?C?ULIDIV
      00000001H   NUMBER   ---       ?C?XDATASEG
      00FF0000H   CODE     ---       ?C_STARTUP
      00000020H.5 BIT      BIT       ?IIC_SendAck?BIT
      000000BCH   EDATA    BYTE      ?IMUupdate?BYTE
      000000E8H   EDATA    ---       ?sprintf?BYTE
      00010008H   XDATA    FLOAT     a_x
      00000081H   EDATA    FLOAT     a_y
      000000AAH   EDATA    INT       Acc_x
      000000ACH   EDATA    INT       Acc_y
      000000AEH   EDATA    INT       Acc_z
*SFR* 000000BCH   DATA     BYTE      ADC_CONTR
*SFR* 000000BCH.5 DATA     BIT       ADC_FLAG
      00FF287FH   CODE     ---       ADC_Init
L251 LINKER/LOCATER V4.66.93.0                                                        07/30/2023  00:57:28  PAGE 8


*SFR* 000000BCH.7 DATA     BIT       ADC_POWER
      00FF26BDH   CODE     ---       ADC_Read
      00FF272CH   CODE     ---       ADC_Readchannel_1
      00FF274DH   CODE     ---       ADC_Readchannel_2
      00FF27CDH   CODE     ---       ADC_Readchannel_3
*SFR* 000000BDH   DATA     BYTE      ADC_RES
*SFR* 000000BEH   DATA     BYTE      ADC_RESL
*SFR* 000000BCH.6 DATA     BIT       ADC_START
*SFR* 000000DEH   DATA     BYTE      ADCCFG
      00FF20A5H   CODE     ---       add
      00000020H.2 BIT      BIT       add_lose
      000000FDH   EDATA    ---       adjust
      00010000H   XDATA    FLOAT     Angle_ax
      00000058H   EDATA    FLOAT     Angle_ay
      0000005EH   EDATA    FLOAT     Angle_az
      00010004H   XDATA    FLOAT     Angle_gx
      00000064H   EDATA    FLOAT     Angle_gy
      0000007CH   EDATA    FLOAT     Angle_gz
      00000049H   EDATA    WORD      Angle_of_pitch
      00000008H   DATA     FLOAT     AngleX
      00000097H   EDATA    FLOAT     AngleY
      0000009BH   EDATA    FLOAT     AngleZ
      00000020H.1 BIT      BIT       arrow_Value
      00FF033DH   CODE     ---       asin?_
      00FF23ECH   CODE     ---       atan2?_
      00FF0850H   CODE     ---       ATAN?_
*SFR* 000000EFH   DATA     BYTE      AUXINTIF
*SFR* 0000008EH   DATA     BYTE      AUXR
*SFR* 00000097H   DATA     BYTE      AUXR2
      00FF1E8BH   CODE     ---       Cancel_determine
*SFR* 000000F1H   DATA     BYTE      CANICR
*SFR* 000000EAH   DATA     BYTE      CKCON
*SFR* 000000E6H   DATA     BYTE      CMPCR1
*SFR* 000000E7H   DATA     BYTE      CMPCR2
      00000107H   EDATA    BYTE      Confirm_exit
*SFR* 000000D0H.7 DATA     BIT       CY
      00FF2925H   CODE     ---       delay
      00FF295DH   CODE     ---       Delay2us
      00FF276EH   CODE     ---       Delay50ms
      00000119H   EDATA    WORD      delay_cnt
      00FF283AH   CODE     ---       delay_ms
*SFR* 00000080H.7 DATA     BIT       det_C
*SFR* 00000080H.5 DATA     BIT       det_CL
*SFR* 000000C8H.3 DATA     BIT       det_CR
*SFR* 00000080H.6 DATA     BIT       det_L
*SFR* 000000C8H.2 DATA     BIT       det_R
      0000005CH   EDATA    WORD      disp_delay
      00FF1AC4H   CODE     ---       Disp_refresh
      0000010DH   EDATA    INT       dutyL
      0000010FH   EDATA    INT       dutyR
*SFR* 000000A8H.7 DATA     BIT       EA
*SFR* 000000BAH.7 DATA     BIT       EAXFR
*SFR* 000000B0H.2 DATA     BIT       EC11_A
*SFR* 000000B0H.3 DATA     BIT       EC11_B
*SFR* 000000B0H.4 DATA     BIT       EC11_K
*SFR* 000000A8H.4 DATA     BIT       ES
*SFR* 000000A8H.3 DATA     BIT       ET1
      0000000CH   IDATA    FLOAT     exInt
      00000022H   EDATA    FLOAT     eyInt
      00000026H   EDATA    FLOAT     ezInt
      00000020H.4 BIT      BIT       falling_Down
      00000109H   EDATA    DWORD     fontaddr
      0001000CH   XDATA    INT       g_x
      00000093H   EDATA    INT       g_y
      00000095H   EDATA    INT       g_z
L251 LINKER/LOCATER V4.66.93.0                                                        07/30/2023  00:57:28  PAGE 9


      00FF0003H   CODE     ---       Get_data_from_ROM
      00FF24E4H   CODE     ---       GPIO_init
      000000B2H   EDATA    INT       Gyro_angle_x
      000000B4H   EDATA    INT       Gyro_angle_y
      000000B6H   EDATA    INT       Gyro_angle_z
      000000BAH   EDATA    INT       Gyro_x
      000000A4H   EDATA    INT       Gyro_x_
      000000BCH   EDATA    INT       Gyro_y
      000000A6H   EDATA    INT       Gyro_y_
      000000BEH   EDATA    INT       Gyro_z
      000000A8H   EDATA    INT       Gyro_z_
      00FF258CH   CODE     ---       Hall_element
      00FF28ACH   CODE     ---       I2C_RecvACK
      00FF26E3H   CODE     ---       I2C_RecvByte
      00FF2709H   CODE     ---       I2C_SendByte
      00FF2820H   CODE     ---       I2C_Start
      00FF2934H   CODE     ---       I2C_Stop
*SFR* 000000C7H   DATA     BYTE      IAP_CONTR
*SFR* 000000A8H   DATA     BYTE      IE
*SFR* 000000AFH   DATA     BYTE      IE2
      00FF2951H   CODE     ---       IIC_Delay
      00FF2697H   CODE     ---       IIC_RecByte
      00FF2868H   CODE     ---       IIC_SendAck
      00FF25BBH   CODE     ---       IIC_SendByte
      00FF2914H   CODE     ---       IIC_Start
      00FF2943H   CODE     ---       IIC_Stop
      00FF2901H   CODE     ---       IIC_WaitAck
      00FF0B1BH   CODE     ---       IMUupdate
      00FF24A9H   CODE     ---       InitMPU6050
*SFR* 0000008FH   DATA     BYTE      INTCLKO
*SFR* 000000B8H   DATA     BYTE      IP
*SFR* 000000B5H   DATA     BYTE      IP2
*SFR* 000000B6H   DATA     BYTE      IP2H
*SFR* 000000DFH   DATA     BYTE      IP3
*SFR* 000000EEH   DATA     BYTE      IP3H
*SFR* 000000B7H   DATA     BYTE      IPH
*SFR* 0000009DH   DATA     BYTE      IRCBAND
*SFR* 000000E8H.4 DATA     BIT       LED
      00000080H   EDATA    CHAR      line_inaccuracy
*SFR* 000000F9H   DATA     BYTE      LINICR
      00000020H.3 BIT      BIT       long_short
      00FF211EH   CODE     ---       lose
      00FF246EH   CODE     ---       main
      00FF1185H   CODE     ---       Main_Meun
      00FF1968H   CODE     ---       Memu
      00FF1CAEH   CODE     ---       Meun_2_angle
      00FF1C0FH   CODE     ---       Meun_2_control
      00FF1DECH   CODE     ---       Meun_2_Pitching
      00FF1D4DH   CODE     ---       Meun_2_speed
*SFR* 00000080H.1 DATA     BIT       MOTOR_AIN1
*SFR* 00000080H.2 DATA     BIT       MOTOR_AIN2
*SFR* 00000080H.3 DATA     BIT       MOTOR_BIN1
*SFR* 00000080H.4 DATA     BIT       MOTOR_BIN2
      00FF1FAEH   CODE     ---       Motor_control
      00000062H   EDATA    WORD      motor_delay
      00FF297BH   CODE     ---       Motor_Forward
      00FF278FH   CODE     ---       Motor_FRcontrol
      00FF298DH   CODE     ---       Motor_Init
      00FF2984H   CODE     ---       Motor_reverse
      00000021H   EDATA    BYTE      motor_sw
      00000085H   EDATA    ---       MPU6050_DATA
      00000043H   EDATA    WORD      mpu6050_delay
      00FF1350H   CODE     ---       MPU6050_Read
      0000004BH   EDATA    CHAR      old_position
      00FF0F5CH   CODE     ---       OLED_16x16
L251 LINKER/LOCATER V4.66.93.0                                                        07/30/2023  00:57:28  PAGE 10


      00FF266CH   CODE     ---       OLED_address
      00FF2555H   CODE     ---       OLED_Clear
      00FF251EH   CODE     ---       OLED_Clear_0_2
      00FF27AFH   CODE     ---       OLED_ColorTurn
*SFR* 00000090H.6 DATA     BIT       OLED_CS
*SFR* 00000090H.5 DATA     BIT       OLED_DC
      00FF23A6H   CODE     ---       OLED_Display_128x64
      00FF2260H   CODE     ---       OLED_Display_16x16
      00FF2615H   CODE     ---       OLED_Display_5x7
      00FF22B6H   CODE     ---       OLED_Display_8x16
      00FF28C2H   CODE     ---       OLED_DisPlay_Off
      00FF28D7H   CODE     ---       OLED_DisPlay_On
      00FF1A1BH   CODE     ---       OLED_Display_string_5x7
      00FF25E9H   CODE     ---       OLED_DisplayTurn
      00FF2205H   CODE     ---       OLED_get_data_from_ROM
      00FF18A5H   CODE     ---       OLED_Init
*SFR* 00000090H.7 DATA     BIT       OLED_READ_FS0
*SFR* 00000090H.3 DATA     BIT       OLED_ROM_CS
*SFR* 000000C0H.7 DATA     BIT       OLED_SCL
*SFR* 00000090H.4 DATA     BIT       OLED_SDA
      00FF167FH   CODE     ---       OLED_ShowNum
      0000002AH   EDATA    ---       oled_showtext
      00FF2641H   CODE     ---       OLED_WR_Byte
*SFR* 00000080H   DATA     BYTE      P0
*SFR* 00000094H   DATA     BYTE      P0M0
*SFR* 00000093H   DATA     BYTE      P0M1
*SFR* 00000090H   DATA     BYTE      P1
*SFR* 00000092H   DATA     BYTE      P1M0
*SFR* 00000091H   DATA     BYTE      P1M1
*SFR* 000000A0H   DATA     BYTE      P2
*SFR* 00000096H   DATA     BYTE      P2M0
*SFR* 00000095H   DATA     BYTE      P2M1
*SFR* 000000B0H   DATA     BYTE      P3
*SFR* 000000B2H   DATA     BYTE      P3M0
*SFR* 000000B1H   DATA     BYTE      P3M1
*SFR* 000000C0H   DATA     BYTE      P4
*SFR* 000000B4H   DATA     BYTE      P4M0
*SFR* 000000B3H   DATA     BYTE      P4M1
*SFR* 000000C8H   DATA     BYTE      P5
*SFR* 000000FFH.4 DATA     BIT       P54RST
*SFR* 000000CAH   DATA     BYTE      P5M0
*SFR* 000000C9H   DATA     BYTE      P5M1
*SFR* 000000E8H   DATA     BYTE      P6
*SFR* 000000CCH   DATA     BYTE      P6M0
*SFR* 000000CBH   DATA     BYTE      P6M1
*SFR* 000000F8H   DATA     BYTE      P7
*SFR* 000000E2H   DATA     BYTE      P7M0
*SFR* 000000E1H   DATA     BYTE      P7M1
*SFR* 000000A2H   DATA     BYTE      P_SW1
*SFR* 000000BAH   DATA     BYTE      P_SW2
*SFR* 000000BBH   DATA     BYTE      P_SW3
      00000117H   EDATA    INT       page_table
      00000108H   EDATA    BYTE      part2_count
      00000106H   EDATA    BYTE      part_count
*SFR* 00000087H   DATA     BYTE      PCON
      0000009FH   EDATA    ---       positionPID
*SFR* 000000D0H   DATA     BYTE      PSW
      00FF1F1DH   CODE     ---       PWMA_Config
      00000010H   IDATA    FLOAT     q0
      0000004CH   EDATA    FLOAT     q1
      00000050H   EDATA    FLOAT     q2
      00000054H   EDATA    FLOAT     q3
      00FF2197H   CODE     ---       Read_MPU6050
      0000011BH   EDATA    BYTE      read_value
      00FF17BCH   CODE     ---       ReadLine
L251 LINKER/LOCATER V4.66.93.0                                                        07/30/2023  00:57:28  PAGE 11


*SFR* 00000098H.0 DATA     BIT       RI
      00000020H.0 BIT      BIT       rising_edge
      000000B0H   EDATA    WORD      Roll_Angle
      00FF235BH   CODE     ---       rotary_encoder
*SFR* 000000FFH   DATA     BYTE      RSTCFG
*SFR* 000000A2H.6 DATA     BIT       S1_S0
*SFR* 000000A2H.7 DATA     BIT       S1_S1
*SFR* 0000009AH   DATA     BYTE      S2CON
*SFR* 000000ACH   DATA     BYTE      S3CON
*SFR* 000000FDH   DATA     BYTE      S4CON
      000000FBH   EDATA    WORD      s_count
*SFR* 00000099H   DATA     BYTE      SBUF
*SFR* 00000098H   DATA     BYTE      SCON
      00FF150AH   CODE     ---       Second_menu_value
      00FF2805H   CODE     ---       Send_Command_to_ROM
      00FF2AC2H   HCONST   ---       set
      00FF27E9H   CODE     ---       Single_WriteI2C
*SFR* 000000CEH   DATA     BYTE      SPCTL
      00000102H   EDATA    ---       spin
      00FF028DH   CODE     NEAR LAB  sprintf
*SFR* 000000CDH   DATA     BYTE      SPSTAT
      00FF02ADH   CODE     ---       sqrt?_
      000000B8H   EDATA    WORD      sys_led
*SFR* 000000D6H   DATA     BYTE      T2H
*SFR* 000000D7H   DATA     BYTE      T2L
*SFR* 000000DDH   DATA     BYTE      T4T3M
*SFR* 00000088H   DATA     BYTE      TCON
      00000047H   EDATA    INT       Temp
*SFR* 00000088H.7 DATA     BIT       TF1
*SFR* 0000008DH   DATA     BYTE      TH1
*SFR* 00000098H.1 DATA     BIT       TI
      00FF1B6CH   CODE     ---       timer1
      00FF28ECH   CODE     ---       Timer1Init
      00000045H   EDATA    WORD      timer_delay
*SFR* 0000008BH   DATA     BYTE      TL1
*SFR* 00000089H   DATA     BYTE      TMOD
*SFR* 00000088H.6 DATA     BIT       TR1
      00000068H   EDATA    ---       txbuf
      00FF2968H   CODE     ---       Uart1_Isr
      00FF2972H   CODE     ---       Uart_sendbyte
      00FF2896H   CODE     ---       Uart_String
      00FF2851H   CODE     ---       UartInit
      00FF230CH   CODE     ---       up_key_detection
      00FF2431H   CODE     ---       Update_duty
*SFR* 000000F4H   DATA     BYTE      USBCON
*SFR* 000000C1H   DATA     BYTE      WDT_CONTR
*SFR* 000000E9H   DATA     BYTE      WTST



IGNORED SYMBOLS:
   SCL
   SDA



SYMBOL TABLE OF MODULE:  LED (main)

      VALUE       REP       CLASS    TYPE      SYMBOL NAME
      ====================================================
      ---         MODULE    ---      ---       main
      00FF1350H   PUBLIC    CODE     ---       MPU6050_Read
      00FF246EH   PUBLIC    CODE     ---       main
      00FF1B6CH   PUBLIC    CODE     ---       timer1
      00FF1AC4H   PUBLIC    CODE     ---       Disp_refresh
L251 LINKER/LOCATER V4.66.93.0                                                        07/30/2023  00:57:28  PAGE 12


      00FF0B1BH   PUBLIC    CODE     ---       IMUupdate
      00FF1FAEH   PUBLIC    CODE     ---       Motor_control
      00000021H   PUBLIC    EDATA    BYTE      motor_sw
      00000022H   PUBLIC    EDATA    FLOAT     eyInt
      00000026H   PUBLIC    EDATA    FLOAT     ezInt
      0000002AH   PUBLIC    EDATA    ---       oled_showtext
      00000043H   PUBLIC    EDATA    WORD      mpu6050_delay
      00000045H   PUBLIC    EDATA    WORD      timer_delay
      00000047H   PUBLIC    EDATA    INT       Temp
      00000049H   PUBLIC    EDATA    WORD      Angle_of_pitch
      0000004BH   PUBLIC    EDATA    CHAR      old_position
      0000004CH   PUBLIC    EDATA    FLOAT     q1
      00000050H   PUBLIC    EDATA    FLOAT     q2
      00000054H   PUBLIC    EDATA    FLOAT     q3
      00000058H   PUBLIC    EDATA    FLOAT     Angle_ay
      0000005CH   PUBLIC    EDATA    WORD      disp_delay
      0000005EH   PUBLIC    EDATA    FLOAT     Angle_az
      00000062H   PUBLIC    EDATA    WORD      motor_delay
      00000064H   PUBLIC    EDATA    FLOAT     Angle_gy
      00000068H   PUBLIC    EDATA    ---       txbuf
      0000007CH   PUBLIC    EDATA    FLOAT     Angle_gz
      00000080H   PUBLIC    EDATA    CHAR      line_inaccuracy
      00000081H   PUBLIC    EDATA    FLOAT     a_y
      00000085H   PUBLIC    EDATA    ---       MPU6050_DATA
      00000093H   PUBLIC    EDATA    INT       g_y
      00000095H   PUBLIC    EDATA    INT       g_z
      00000097H   PUBLIC    EDATA    FLOAT     AngleY
      0000009BH   PUBLIC    EDATA    FLOAT     AngleZ
      0000009FH   PUBLIC    EDATA    ---       positionPID
      000000A4H   PUBLIC    EDATA    INT       Gyro_x_
      000000A6H   PUBLIC    EDATA    INT       Gyro_y_
      000000A8H   PUBLIC    EDATA    INT       Gyro_z_
      000000AAH   PUBLIC    EDATA    INT       Acc_x
      000000ACH   PUBLIC    EDATA    INT       Acc_y
      000000AEH   PUBLIC    EDATA    INT       Acc_z
      000000B0H   PUBLIC    EDATA    WORD      Roll_Angle
      000000B2H   PUBLIC    EDATA    INT       Gyro_angle_x
      000000B4H   PUBLIC    EDATA    INT       Gyro_angle_y
      000000B6H   PUBLIC    EDATA    INT       Gyro_angle_z
      000000B8H   PUBLIC    EDATA    WORD      sys_led
      000000BAH   PUBLIC    EDATA    INT       Gyro_x
      000000BCH   PUBLIC    EDATA    INT       Gyro_y
      000000BEH   PUBLIC    EDATA    INT       Gyro_z
      0000000CH   PUBLIC    IDATA    FLOAT     exInt
      00000010H   PUBLIC    IDATA    FLOAT     q0
      00010000H   PUBLIC    XDATA    FLOAT     Angle_ax
      00010004H   PUBLIC    XDATA    FLOAT     Angle_gx
      00010008H   PUBLIC    XDATA    FLOAT     a_x
      0001000CH   PUBLIC    XDATA    INT       g_x
      00000008H   PUBLIC    DATA     FLOAT     AngleX
      000000BCH   PUBLIC    EDATA    BYTE      ?IMUupdate?BYTE
      000000D0H   SFRSYM    DATA     BYTE      PSW
      0000009DH   SFRSYM    DATA     BYTE      IRCBAND
      00000097H   SFRSYM    DATA     BYTE      AUXR2
      000000EFH   SFRSYM    DATA     BYTE      AUXINTIF
      000000A2H.7 SFRSYM    DATA     BIT       S1_S1
      000000FDH   SFRSYM    DATA     BYTE      S4CON
      000000A2H.6 SFRSYM    DATA     BIT       S1_S0
      000000ACH   SFRSYM    DATA     BYTE      S3CON
      0000009AH   SFRSYM    DATA     BYTE      S2CON
      000000B7H   SFRSYM    DATA     BYTE      IPH
      000000CDH   SFRSYM    DATA     BYTE      SPSTAT
      000000DDH   SFRSYM    DATA     BYTE      T4T3M
      000000C1H   SFRSYM    DATA     BYTE      WDT_CONTR
      000000E8H.4 SFRSYM    DATA     BIT       LED
L251 LINKER/LOCATER V4.66.93.0                                                        07/30/2023  00:57:28  PAGE 13


      000000DFH   SFRSYM    DATA     BYTE      IP3
      000000F4H   SFRSYM    DATA     BYTE      USBCON
      000000B5H   SFRSYM    DATA     BYTE      IP2
      000000FFH   SFRSYM    DATA     BYTE      RSTCFG
      000000C7H   SFRSYM    DATA     BYTE      IAP_CONTR
      000000F9H   SFRSYM    DATA     BYTE      LINICR
      0000008EH   SFRSYM    DATA     BYTE      AUXR
      000000AFH   SFRSYM    DATA     BYTE      IE2
      00000088H   SFRSYM    DATA     BYTE      TCON
      00000089H   SFRSYM    DATA     BYTE      TMOD
      00000098H   SFRSYM    DATA     BYTE      SCON
      000000FFH.4 SFRSYM    DATA     BIT       P54RST
      000000F1H   SFRSYM    DATA     BYTE      CANICR
      00000087H   SFRSYM    DATA     BYTE      PCON
      000000BCH   SFRSYM    DATA     BYTE      ADC_CONTR
      000000E7H   SFRSYM    DATA     BYTE      CMPCR2
      000000E6H   SFRSYM    DATA     BYTE      CMPCR1
      000000DEH   SFRSYM    DATA     BYTE      ADCCFG
      000000B8H   SFRSYM    DATA     BYTE      IP
      0000008FH   SFRSYM    DATA     BYTE      INTCLKO
      000000B0H.4 SFRSYM    DATA     BIT       EC11_K
      000000EEH   SFRSYM    DATA     BYTE      IP3H
      000000B6H   SFRSYM    DATA     BYTE      IP2H
      000000A8H   SFRSYM    DATA     BYTE      IE
      000000BBH   SFRSYM    DATA     BYTE      P_SW3
      000000BAH   SFRSYM    DATA     BYTE      P_SW2
      000000A2H   SFRSYM    DATA     BYTE      P_SW1
      000000CEH   SFRSYM    DATA     BYTE      SPCTL
      000000F8H   SFRSYM    DATA     BYTE      P7
      000000E8H   SFRSYM    DATA     BYTE      P6
      000000C8H   SFRSYM    DATA     BYTE      P5
      000000C0H   SFRSYM    DATA     BYTE      P4
      000000B0H   SFRSYM    DATA     BYTE      P3
      000000A0H   SFRSYM    DATA     BYTE      P2
      00000090H   SFRSYM    DATA     BYTE      P1
      00000080H   SFRSYM    DATA     BYTE      P0

      00FF246EH   BLOCK     CODE     ---       LVL=0
      00FF246EH   LINE      CODE     ---       #86
      00FF246EH   LINE      CODE     ---       #88
      00FF2471H   LINE      CODE     ---       #89
      00FF2474H   LINE      CODE     ---       #90
      00FF2478H   LINE      CODE     ---       #91
      00FF247CH   LINE      CODE     ---       #92
      00FF247FH   LINE      CODE     ---       #94
      00FF2482H   LINE      CODE     ---       #96
      00FF2485H   LINE      CODE     ---       #97
      00FF2488H   LINE      CODE     ---       #98
      00FF248BH   LINE      CODE     ---       #100
      00FF248EH   LINE      CODE     ---       #102
      00FF2491H   LINE      CODE     ---       #104
      00FF2494H   LINE      CODE     ---       #105
      00FF249CH   LINE      CODE     ---       #106
      00FF249EH   LINE      CODE     ---       #107
      00FF249EH   LINE      CODE     ---       #109
      00FF24A1H   LINE      CODE     ---       #110
      00FF24A4H   LINE      CODE     ---       #111
      00FF24A7H   LINE      CODE     ---       #115
      ---         BLOCKEND  ---      ---       LVL=0

      00FF1B6CH   BLOCK     CODE     ---       LVL=0
      00FF1B6CH   LINE      CODE     ---       #117
      00FF1B72H   LINE      CODE     ---       #119
      00FF1B88H   LINE      CODE     ---       #120
      00FF1B9EH   LINE      CODE     ---       #121
L251 LINKER/LOCATER V4.66.93.0                                                        07/30/2023  00:57:28  PAGE 14


      00FF1BB4H   LINE      CODE     ---       #122
      00FF1BC4H   LINE      CODE     ---       #124
      00FF1BC9H   LINE      CODE     ---       #125
      00FF1BCFH   LINE      CODE     ---       #126
      00FF1BCFH   LINE      CODE     ---       #128
      00FF1BD9H   LINE      CODE     ---       #129
      00FF1BDFH   LINE      CODE     ---       #131
      00FF1BEFH   LINE      CODE     ---       #133
      00FF1BF5H   LINE      CODE     ---       #135
      00FF1BF7H   LINE      CODE     ---       #136
      00FF1BF7H   LINE      CODE     ---       #137
      00FF1BFEH   LINE      CODE     ---       #139
      00FF1C08H   LINE      CODE     ---       #140
      ---         BLOCKEND  ---      ---       LVL=0

      00FF1AC4H   BLOCK     CODE     ---       LVL=0
      00FF1AC4H   LINE      CODE     ---       #145
      00FF1AC4H   LINE      CODE     ---       #147
      00FF1ACFH   LINE      CODE     ---       #148
      00FF1AD7H   LINE      CODE     ---       #150
      00FF1AF0H   LINE      CODE     ---       #151
      00FF1AFAH   LINE      CODE     ---       #153
      00FF1B19H   LINE      CODE     ---       #154
      00FF1B24H   LINE      CODE     ---       #156
      00FF1B3BH   LINE      CODE     ---       #157
      00FF1B46H   LINE      CODE     ---       #162
      00FF1B60H   LINE      CODE     ---       #163
      00FF1B6BH   LINE      CODE     ---       #169
      ---         BLOCKEND  ---      ---       LVL=0

      00FF1FAEH   BLOCK     CODE     ---       LVL=0
      00FF1FAEH   LINE      CODE     ---       #175
      00FF1FAEH   LINE      CODE     ---       #177
      00FF1FB6H   LINE      CODE     ---       #178
      00FF1FBEH   LINE      CODE     ---       #180
      00FF1FC5H   LINE      CODE     ---       #182
      00FF1FD3H   LINE      CODE     ---       #184
      00FF1FDAH   LINE      CODE     ---       #185
      00FF1FE1H   LINE      CODE     ---       #186
      00FF1FE8H   LINE      CODE     ---       #187
      00FF1FF0H   LINE      CODE     ---       #188
      00FF1FF2H   LINE      CODE     ---       #191
      00FF1FF8H   LINE      CODE     ---       #192
      00FF2000H   LINE      CODE     ---       #193
      00FF2000H   LINE      CODE     ---       #195
      00FF2016H   LINE      CODE     ---       #196
      00FF2020H   LINE      CODE     ---       #198
      00FF2023H   LINE      CODE     ---       #200
      00FF202AH   LINE      CODE     ---       #201
      ---         BLOCKEND  ---      ---       LVL=0

      00FF1350H   BLOCK     CODE     ---       LVL=0
      00FF1350H   LINE      CODE     ---       #206
      00FF1350H   LINE      CODE     ---       #208
      00FF135BH   LINE      CODE     ---       #209
      00FF1363H   LINE      CODE     ---       #211
      00FF136AH   LINE      CODE     ---       #212
      00FF137AH   LINE      CODE     ---       #213
      00FF138AH   LINE      CODE     ---       #214
      00FF139AH   LINE      CODE     ---       #216
      00FF13AAH   LINE      CODE     ---       #218
      00FF13BAH   LINE      CODE     ---       #219
      00FF13CAH   LINE      CODE     ---       #220
      00FF13DAH   LINE      CODE     ---       #222
      00FF1404H   LINE      CODE     ---       #224
L251 LINKER/LOCATER V4.66.93.0                                                        07/30/2023  00:57:28  PAGE 15


      00FF140CH   LINE      CODE     ---       #225
      00FF1414H   LINE      CODE     ---       #226
      00FF141CH   LINE      CODE     ---       #227
      00FF141EH   LINE      CODE     ---       #230
      00FF1426H   LINE      CODE     ---       #231
      00FF142AH   LINE      CODE     ---       #232
      00FF142EH   LINE      CODE     ---       #233
      00FF142EH   LINE      CODE     ---       #235
      00FF144EH   LINE      CODE     ---       #236
      00FF1462H   LINE      CODE     ---       #237
      00FF1476H   LINE      CODE     ---       #239
      00FF1492H   LINE      CODE     ---       #240
      00FF14A4H   LINE      CODE     ---       #241
      00FF14B6H   LINE      CODE     ---       #243
      00FF14F4H   LINE      CODE     ---       #245
      00FF14FEH   LINE      CODE     ---       #246
      00FF1509H   LINE      CODE     ---       #281
      ---         BLOCKEND  ---      ---       LVL=0

      00FF0B1BH   BLOCK     CODE     ---       LVL=0
      000000C0H   SYMBOL    EDATA    FLOAT     gx
      DR12        REGSYM    ---      FLOAT     gy
      000000C4H   SYMBOL    EDATA    FLOAT     gz
      000000C8H   SYMBOL    EDATA    FLOAT     ax
      000000CCH   SYMBOL    EDATA    FLOAT     ay
      000000D0H   SYMBOL    EDATA    FLOAT     az
      00FF0B23H   BLOCK     CODE     NEAR LAB  LVL=1
      DR28        REGSYM    ---      FLOAT     norm
      00000014H   SYMBOL    IDATA    FLOAT     vx
      DR24        REGSYM    ---      FLOAT     vy
      DR28        REGSYM    ---      FLOAT     vz
      DR16        REGSYM    ---      FLOAT     ex
      DR20        REGSYM    ---      FLOAT     ey
      DR24        REGSYM    ---      FLOAT     ez
      ---         BLOCKEND  ---      ---       LVL=1
      00FF0B1BH   LINE      CODE     ---       #283
      00FF0B23H   LINE      CODE     ---       #284
      00FF0B23H   LINE      CODE     ---       #289
      00FF0B51H   LINE      CODE     ---       #290
      00FF0B5EH   LINE      CODE     ---       #291
      00FF0B6BH   LINE      CODE     ---       #292
      00FF0B78H   LINE      CODE     ---       #298
      00FF0BB1H   LINE      CODE     ---       #299
      00FF0BD3H   LINE      CODE     ---       #300
      00FF0C10H   LINE      CODE     ---       #302
      00FF0C2BH   LINE      CODE     ---       #303
      00FF0C4FH   LINE      CODE     ---       #304
      00FF0C73H   LINE      CODE     ---       #306
      00FF0C8DH   LINE      CODE     ---       #307
      00FF0C9FH   LINE      CODE     ---       #308
      00FF0CB1H   LINE      CODE     ---       #310
      00FF0CD2H   LINE      CODE     ---       #311
      00FF0CE7H   LINE      CODE     ---       #312
      00FF0D00H   LINE      CODE     ---       #314
      00FF0D50H   LINE      CODE     ---       #315
      00FF0D8BH   LINE      CODE     ---       #316
      00FF0DC0H   LINE      CODE     ---       #317
      00FF0DFDH   LINE      CODE     ---       #319
      00FF0E3DH   LINE      CODE     ---       #320
      00FF0E4AH   LINE      CODE     ---       #321
      00FF0E57H   LINE      CODE     ---       #322
      00FF0E64H   LINE      CODE     ---       #323
      00FF0E71H   LINE      CODE     ---       #325
      00FF0EA8H   LINE      CODE     ---       #326
      00FF0EE0H   LINE      CODE     ---       #327
L251 LINKER/LOCATER V4.66.93.0                                                        07/30/2023  00:57:28  PAGE 16


      00FF0F59H   LINE      CODE     ---       #328
      ---         BLOCKEND  ---      ---       LVL=0

      ---         MODULE    ---      ---       oled
      00FF0003H   PUBLIC    CODE     ---       Get_data_from_ROM
      00FF2260H   PUBLIC    CODE     ---       OLED_Display_16x16
      00FF25E9H   PUBLIC    CODE     ---       OLED_DisplayTurn
      00FF251EH   PUBLIC    CODE     ---       OLED_Clear_0_2
      00FF18A5H   PUBLIC    CODE     ---       OLED_Init
      00FF1A1BH   PUBLIC    CODE     ---       OLED_Display_string_5x7
      00FF2615H   PUBLIC    CODE     ---       OLED_Display_5x7
      00FF2641H   PUBLIC    CODE     ---       OLED_WR_Byte
      00FF2205H   PUBLIC    CODE     ---       OLED_get_data_from_ROM
      00FF27AFH   PUBLIC    CODE     ---       OLED_ColorTurn
      00FF28C2H   PUBLIC    CODE     ---       OLED_DisPlay_Off
      00FF23A6H   PUBLIC    CODE     ---       OLED_Display_128x64
      00FF2805H   PUBLIC    CODE     ---       Send_Command_to_ROM
      00FF0F5CH   PUBLIC    CODE     ---       OLED_16x16
      00FF283AH   PUBLIC    CODE     ---       delay_ms
      00FF22B6H   PUBLIC    CODE     ---       OLED_Display_8x16
      00FF167FH   PUBLIC    CODE     ---       OLED_ShowNum
      00FF28D7H   PUBLIC    CODE     ---       OLED_DisPlay_On
      00FF2555H   PUBLIC    CODE     ---       OLED_Clear
      00FF266CH   PUBLIC    CODE     ---       OLED_address
      00000109H   PUBLIC    EDATA    DWORD     fontaddr
      000000D0H   SFRSYM    DATA     BYTE      PSW
      0000009DH   SFRSYM    DATA     BYTE      IRCBAND
      00000097H   SFRSYM    DATA     BYTE      AUXR2
      000000EFH   SFRSYM    DATA     BYTE      AUXINTIF
      00000090H.3 SFRSYM    DATA     BIT       OLED_ROM_CS
      000000FDH   SFRSYM    DATA     BYTE      S4CON
      000000C0H.7 SFRSYM    DATA     BIT       OLED_SCL
      000000ACH   SFRSYM    DATA     BYTE      S3CON
      0000009AH   SFRSYM    DATA     BYTE      S2CON
      000000B7H   SFRSYM    DATA     BYTE      IPH
      000000CDH   SFRSYM    DATA     BYTE      SPSTAT
      00000090H.4 SFRSYM    DATA     BIT       OLED_SDA
      000000DDH   SFRSYM    DATA     BYTE      T4T3M
      000000C1H   SFRSYM    DATA     BYTE      WDT_CONTR
      00000090H.7 SFRSYM    DATA     BIT       OLED_READ_FS0
      000000DFH   SFRSYM    DATA     BYTE      IP3
      000000F4H   SFRSYM    DATA     BYTE      USBCON
      000000B5H   SFRSYM    DATA     BYTE      IP2
      000000FFH   SFRSYM    DATA     BYTE      RSTCFG
      000000C7H   SFRSYM    DATA     BYTE      IAP_CONTR
      000000F9H   SFRSYM    DATA     BYTE      LINICR
      0000008EH   SFRSYM    DATA     BYTE      AUXR
      000000AFH   SFRSYM    DATA     BYTE      IE2
      00000088H   SFRSYM    DATA     BYTE      TCON
      00000089H   SFRSYM    DATA     BYTE      TMOD
      00000098H   SFRSYM    DATA     BYTE      SCON
      000000F1H   SFRSYM    DATA     BYTE      CANICR
      00000087H   SFRSYM    DATA     BYTE      PCON
      000000BCH   SFRSYM    DATA     BYTE      ADC_CONTR
      000000E7H   SFRSYM    DATA     BYTE      CMPCR2
      000000E6H   SFRSYM    DATA     BYTE      CMPCR1
      00000090H.6 SFRSYM    DATA     BIT       OLED_CS
      000000DEH   SFRSYM    DATA     BYTE      ADCCFG
      000000B8H   SFRSYM    DATA     BYTE      IP
      0000008FH   SFRSYM    DATA     BYTE      INTCLKO
      000000EEH   SFRSYM    DATA     BYTE      IP3H
      000000B6H   SFRSYM    DATA     BYTE      IP2H
      000000A8H   SFRSYM    DATA     BYTE      IE
      000000BBH   SFRSYM    DATA     BYTE      P_SW3
      000000BAH   SFRSYM    DATA     BYTE      P_SW2
L251 LINKER/LOCATER V4.66.93.0                                                        07/30/2023  00:57:28  PAGE 17


      00000090H.5 SFRSYM    DATA     BIT       OLED_DC
      000000A2H   SFRSYM    DATA     BYTE      P_SW1
      000000CEH   SFRSYM    DATA     BYTE      SPCTL
      000000F8H   SFRSYM    DATA     BYTE      P7
      000000E8H   SFRSYM    DATA     BYTE      P6
      000000C8H   SFRSYM    DATA     BYTE      P5
      000000C0H   SFRSYM    DATA     BYTE      P4
      000000B0H   SFRSYM    DATA     BYTE      P3
      000000A0H   SFRSYM    DATA     BYTE      P2
      00000090H   SFRSYM    DATA     BYTE      P1
      00000080H   SFRSYM    DATA     BYTE      P0

      00FF283AH   BLOCK     CODE     ---       LVL=0
      WR2         REGSYM    ---      WORD      ms
      00FF283CH   BLOCK     CODE     NEAR LAB  LVL=1
      WR0         REGSYM    ---      WORD      a
      ---         BLOCKEND  ---      ---       LVL=1
      00FF283AH   LINE      CODE     ---       #3
      00FF283CH   LINE      CODE     ---       #4
      00FF283CH   LINE      CODE     ---       #6
      00FF283EH   LINE      CODE     ---       #8
      00FF2842H   LINE      CODE     ---       #9
      00FF284AH   LINE      CODE     ---       #10
      00FF284CH   LINE      CODE     ---       #11
      00FF2850H   LINE      CODE     ---       #12
      00FF2850H   LINE      CODE     ---       #13
      ---         BLOCKEND  ---      ---       LVL=0

      00FF27AFH   BLOCK     CODE     ---       LVL=0
      R15         REGSYM    ---      BYTE      i
      00FF27AFH   LINE      CODE     ---       #16
      00FF27B3H   LINE      CODE     ---       #18
      00FF27B7H   LINE      CODE     ---       #20
      00FF27BEH   LINE      CODE     ---       #21
      00FF27BEH   LINE      CODE     ---       #22
      00FF27C3H   LINE      CODE     ---       #24
      00FF27CAH   LINE      CODE     ---       #25
      ---         BLOCKEND  ---      ---       LVL=0

      00FF25E9H   BLOCK     CODE     ---       LVL=0
      R15         REGSYM    ---      BYTE      i
      00FF25E9H   LINE      CODE     ---       #29
      00FF25EDH   LINE      CODE     ---       #31
      00FF25F1H   LINE      CODE     ---       #33
      00FF25F8H   LINE      CODE     ---       #34
      00FF25FFH   LINE      CODE     ---       #35
      00FF25FFH   LINE      CODE     ---       #36
      00FF2604H   LINE      CODE     ---       #38
      00FF260BH   LINE      CODE     ---       #39
      00FF2612H   LINE      CODE     ---       #40
      ---         BLOCKEND  ---      ---       LVL=0

      00FF28D7H   BLOCK     CODE     ---       LVL=0
      00FF28D7H   LINE      CODE     ---       #44
      00FF28D7H   LINE      CODE     ---       #46
      00FF28DEH   LINE      CODE     ---       #47
      00FF28E5H   LINE      CODE     ---       #48
      ---         BLOCKEND  ---      ---       LVL=0

      00FF28C2H   BLOCK     CODE     ---       LVL=0
      00FF28C2H   LINE      CODE     ---       #52
      00FF28C2H   LINE      CODE     ---       #54
      00FF28C9H   LINE      CODE     ---       #55
      00FF28D0H   LINE      CODE     ---       #56
      ---         BLOCKEND  ---      ---       LVL=0
L251 LINKER/LOCATER V4.66.93.0                                                        07/30/2023  00:57:28  PAGE 18



      00FF2641H   BLOCK     CODE     ---       LVL=0
      R6          REGSYM    ---      BYTE      dat
      R7          REGSYM    ---      BYTE      cmd
      00FF2643H   BLOCK     CODE     NEAR LAB  LVL=1
      R7          REGSYM    ---      BYTE      i
      ---         BLOCKEND  ---      ---       LVL=1
      00FF2641H   LINE      CODE     ---       #62
      00FF2643H   LINE      CODE     ---       #63
      00FF2643H   LINE      CODE     ---       #65
      00FF2647H   LINE      CODE     ---       #67
      00FF2649H   LINE      CODE     ---       #68
      00FF264BH   LINE      CODE     ---       #71
      00FF264DH   LINE      CODE     ---       #72
      00FF264DH   LINE      CODE     ---       #73
      00FF264FH   LINE      CODE     ---       #74
      00FF2652H   LINE      CODE     ---       #76
      00FF2654H   LINE      CODE     ---       #77
      00FF2659H   LINE      CODE     ---       #79
      00FF265BH   LINE      CODE     ---       #80
      00FF265DH   LINE      CODE     ---       #83
      00FF265FH   LINE      CODE     ---       #84
      00FF265FH   LINE      CODE     ---       #85
      00FF2661H   LINE      CODE     ---       #86
      00FF2663H   LINE      CODE     ---       #87
      00FF2667H   LINE      CODE     ---       #88
      00FF2669H   LINE      CODE     ---       #89
      00FF266BH   LINE      CODE     ---       #90
      ---         BLOCKEND  ---      ---       LVL=0

      00FF2555H   BLOCK     CODE     ---       LVL=0
      00FF2557H   BLOCK     CODE     NEAR LAB  LVL=1
      R15         REGSYM    ---      BYTE      i
      R14         REGSYM    ---      BYTE      n
      ---         BLOCKEND  ---      ---       LVL=1
      00FF2555H   LINE      CODE     ---       #93
      00FF2557H   LINE      CODE     ---       #94
      00FF2557H   LINE      CODE     ---       #96
      00FF2559H   LINE      CODE     ---       #98
      00FF2564H   LINE      CODE     ---       #99
      00FF256BH   LINE      CODE     ---       #100
      00FF2572H   LINE      CODE     ---       #101
      00FF2574H   LINE      CODE     ---       #103
      00FF257BH   LINE      CODE     ---       #104
      00FF2582H   LINE      CODE     ---       #105
      00FF2589H   LINE      CODE     ---       #106
      ---         BLOCKEND  ---      ---       LVL=0

      00FF251EH   BLOCK     CODE     ---       LVL=0
      00FF2520H   BLOCK     CODE     NEAR LAB  LVL=1
      R14         REGSYM    ---      BYTE      i
      R15         REGSYM    ---      BYTE      n
      ---         BLOCKEND  ---      ---       LVL=1
      00FF251EH   LINE      CODE     ---       #108
      00FF2520H   LINE      CODE     ---       #109
      00FF2520H   LINE      CODE     ---       #110
      00FF2520H   LINE      CODE     ---       #111
      00FF2522H   LINE      CODE     ---       #112
      00FF252DH   LINE      CODE     ---       #113
      00FF2534H   LINE      CODE     ---       #114
      00FF253BH   LINE      CODE     ---       #115
      00FF253DH   LINE      CODE     ---       #116
      00FF2544H   LINE      CODE     ---       #117
      00FF254BH   LINE      CODE     ---       #118
      00FF2552H   LINE      CODE     ---       #119
L251 LINKER/LOCATER V4.66.93.0                                                        07/30/2023  00:57:28  PAGE 19


      ---         BLOCKEND  ---      ---       LVL=0

      00FF266CH   BLOCK     CODE     ---       LVL=0
      R15         REGSYM    ---      BYTE      x
      R10         REGSYM    ---      BYTE      y
      00FF266CH   LINE      CODE     ---       #121
      00FF2670H   LINE      CODE     ---       #123
      00FF2672H   LINE      CODE     ---       #124
      00FF267DH   LINE      CODE     ---       #125
      00FF268BH   LINE      CODE     ---       #126
      00FF2694H   LINE      CODE     ---       #127
      ---         BLOCKEND  ---      ---       LVL=0

      00FF23A6H   BLOCK     CODE     ---       LVL=0
      REG=3       REGSYM    ---      ---       dp
      00FF23AAH   BLOCK     CODE     NEAR LAB  LVL=1
      00000115H   SYMBOL    EDATA    BYTE      i
      00000116H   SYMBOL    EDATA    BYTE      j
      ---         BLOCKEND  ---      ---       LVL=1
      00FF23A6H   LINE      CODE     ---       #130
      00FF23AAH   LINE      CODE     ---       #131
      00FF23AAH   LINE      CODE     ---       #132
      00FF23AFH   LINE      CODE     ---       #133
      00FF23B3H   LINE      CODE     ---       #135
      00FF23BBH   LINE      CODE     ---       #136
      00FF23C0H   LINE      CODE     ---       #138
      00FF23C9H   LINE      CODE     ---       #139
      00FF23CBH   LINE      CODE     ---       #140
      00FF23D7H   LINE      CODE     ---       #141
      00FF23E9H   LINE      CODE     ---       #142
      ---         BLOCKEND  ---      ---       LVL=0

      00FF2260H   BLOCK     CODE     ---       LVL=0
      000000F6H   SYMBOL    EDATA    BYTE      x
      000000F7H   SYMBOL    EDATA    BYTE      y
      REG=3       REGSYM    ---      ---       dp
      00FF226CH   BLOCK     CODE     NEAR LAB  LVL=1
      000000F8H   SYMBOL    EDATA    BYTE      i
      000000F9H   SYMBOL    EDATA    BYTE      j
      ---         BLOCKEND  ---      ---       LVL=1
      00FF2260H   LINE      CODE     ---       #145
      00FF226CH   LINE      CODE     ---       #146
      00FF226CH   LINE      CODE     ---       #148
      00FF2271H   LINE      CODE     ---       #150
      00FF227CH   LINE      CODE     ---       #151
      00FF2281H   LINE      CODE     ---       #153
      00FF228AH   LINE      CODE     ---       #154
      00FF228CH   LINE      CODE     ---       #155
      00FF2298H   LINE      CODE     ---       #156
      00FF22A1H   LINE      CODE     ---       #157
      00FF22B3H   LINE      CODE     ---       #158
      ---         BLOCKEND  ---      ---       LVL=0

      00FF22B6H   BLOCK     CODE     ---       LVL=0
      000000F6H   SYMBOL    EDATA    BYTE      x
      000000F7H   SYMBOL    EDATA    BYTE      y
      REG=3       REGSYM    ---      ---       dp
      00FF22C2H   BLOCK     CODE     NEAR LAB  LVL=1
      000000F8H   SYMBOL    EDATA    BYTE      i
      000000F9H   SYMBOL    EDATA    BYTE      j
      ---         BLOCKEND  ---      ---       LVL=1
      00FF22B6H   LINE      CODE     ---       #161
      00FF22C2H   LINE      CODE     ---       #162
      00FF22C2H   LINE      CODE     ---       #164
      00FF22C7H   LINE      CODE     ---       #166
L251 LINKER/LOCATER V4.66.93.0                                                        07/30/2023  00:57:28  PAGE 20


      00FF22D2H   LINE      CODE     ---       #167
      00FF22D7H   LINE      CODE     ---       #169
      00FF22E0H   LINE      CODE     ---       #170
      00FF22E2H   LINE      CODE     ---       #171
      00FF22EEH   LINE      CODE     ---       #172
      00FF22F7H   LINE      CODE     ---       #173
      00FF2309H   LINE      CODE     ---       #174
      ---         BLOCKEND  ---      ---       LVL=0

      00FF2615H   BLOCK     CODE     ---       LVL=0
      R11         REGSYM    ---      BYTE      x
      R10         REGSYM    ---      BYTE      y
      REG=3       REGSYM    ---      ---       dp
      00FF2619H   BLOCK     CODE     NEAR LAB  LVL=1
      000000CEH   SYMBOL    EDATA    BYTE      i
      ---         BLOCKEND  ---      ---       LVL=1
      00FF2615H   LINE      CODE     ---       #177
      00FF2619H   LINE      CODE     ---       #178
      00FF2619H   LINE      CODE     ---       #180
      00FF261CH   LINE      CODE     ---       #181
      00FF2621H   LINE      CODE     ---       #183
      00FF262AH   LINE      CODE     ---       #184
      00FF262CH   LINE      CODE     ---       #185
      00FF263EH   LINE      CODE     ---       #186
      ---         BLOCKEND  ---      ---       LVL=0

      00FF2805H   BLOCK     CODE     ---       LVL=0
      R6          REGSYM    ---      BYTE      dat
      00FF2807H   BLOCK     CODE     NEAR LAB  LVL=1
      R7          REGSYM    ---      BYTE      i
      ---         BLOCKEND  ---      ---       LVL=1
      00FF2805H   LINE      CODE     ---       #189
      00FF2807H   LINE      CODE     ---       #190
      00FF2807H   LINE      CODE     ---       #192
      00FF280AH   LINE      CODE     ---       #194
      00FF280CH   LINE      CODE     ---       #195
      00FF2811H   LINE      CODE     ---       #197
      00FF2813H   LINE      CODE     ---       #198
      00FF2815H   LINE      CODE     ---       #201
      00FF2817H   LINE      CODE     ---       #202
      00FF2817H   LINE      CODE     ---       #203
      00FF2819H   LINE      CODE     ---       #204
      00FF281BH   LINE      CODE     ---       #205
      00FF281FH   LINE      CODE     ---       #206
      ---         BLOCKEND  ---      ---       LVL=0

      00FF0003H   BLOCK     CODE     ---       LVL=0
      R7          REGSYM    ---      BYTE      i
      R10         REGSYM    ---      BYTE      read
      00FF0003H   LINE      CODE     ---       #209
      00FF0003H   LINE      CODE     ---       #210
      00FF0003H   LINE      CODE     ---       #211
      00FF0005H   LINE      CODE     ---       #212
      00FF0008H   LINE      CODE     ---       #214
      00FF000AH   LINE      CODE     ---       #215
      00FF000CH   LINE      CODE     ---       #216
      00FF000FH   LINE      CODE     ---       #218
      00FF0011H   LINE      CODE     ---       #219
      00FF0011H   LINE      CODE     ---       #220
      00FF0013H   LINE      CODE     ---       #221
      00FF0017H   LINE      CODE     ---       #222
      00FF0019H   LINE      CODE     ---       #223
      ---         BLOCKEND  ---      ---       LVL=0

      00FF2205H   BLOCK     CODE     ---       LVL=0
L251 LINKER/LOCATER V4.66.93.0                                                        07/30/2023  00:57:28  PAGE 21


      000000F6H   SYMBOL    EDATA    BYTE      addrHigh
      000000F7H   SYMBOL    EDATA    BYTE      addrMid
      000000F8H   SYMBOL    EDATA    BYTE      addrLow
      REG=3       REGSYM    ---      ---       pbuff
      000000F9H   SYMBOL    EDATA    BYTE      DataLen
      00FF2219H   BLOCK     CODE     NEAR LAB  LVL=1
      000000FAH   SYMBOL    EDATA    BYTE      i
      ---         BLOCKEND  ---      ---       LVL=1
      00FF2205H   LINE      CODE     ---       #228
      00FF2219H   LINE      CODE     ---       #229
      00FF2219H   LINE      CODE     ---       #231
      00FF221BH   LINE      CODE     ---       #232
      00FF2220H   LINE      CODE     ---       #233
      00FF2227H   LINE      CODE     ---       #234
      00FF222EH   LINE      CODE     ---       #235
      00FF2235H   LINE      CODE     ---       #236
      00FF2238H   LINE      CODE     ---       #238
      00FF2248H   LINE      CODE     ---       #239
      00FF225BH   LINE      CODE     ---       #240
      00FF225DH   LINE      CODE     ---       #241
      ---         BLOCKEND  ---      ---       LVL=0

      00FF0F5CH   BLOCK     CODE     ---       LVL=0
      000000C0H   SYMBOL    EDATA    BYTE      x
      000000C1H   SYMBOL    EDATA    BYTE      y
      REG=3       REGSYM    ---      ---       text
      00FF0F68H   BLOCK     CODE     NEAR LAB  LVL=1
      000000C2H   SYMBOL    EDATA    BYTE      i
      000000C3H   SYMBOL    EDATA    BYTE      addrHigh
      000000C4H   SYMBOL    EDATA    BYTE      addrMid
      000000C5H   SYMBOL    EDATA    BYTE      addrLow
      000000C6H   SYMBOL    EDATA    ---       fontbuf
      00FF10F4H   BLOCK     CODE     NEAR LAB  LVL=2
      000000E6H   SYMBOL    EDATA    ---       fontbuf
      ---         BLOCKEND  ---      ---       LVL=2
      ---         BLOCKEND  ---      ---       LVL=1
      00FF0F5CH   LINE      CODE     ---       #246
      00FF0F68H   LINE      CODE     ---       #247
      00FF0F68H   LINE      CODE     ---       #248
      00FF0F69H   LINE      CODE     ---       #251
      00FF0F6CH   LINE      CODE     ---       #253
      00FF0F9CH   LINE      CODE     ---       #258
      00FF0FAFH   LINE      CODE     ---       #259
      00FF0FBDH   LINE      CODE     ---       #260
      00FF0FCCH   LINE      CODE     ---       #262
      00FF0FD6H   LINE      CODE     ---       #263
      00FF0FDCH   LINE      CODE     ---       #264
      00FF0FE2H   LINE      CODE     ---       #266
      00FF0FECH   LINE      CODE     ---       #268
      00FF0FFBH   LINE      CODE     ---       #270
      00FF1005H   LINE      CODE     ---       #271
      00FF100BH   LINE      CODE     ---       #272
      00FF100EH   LINE      CODE     ---       #273
      00FF104EH   LINE      CODE     ---       #276
      00FF106EH   LINE      CODE     ---       #277
      00FF107CH   LINE      CODE     ---       #278
      00FF108BH   LINE      CODE     ---       #280
      00FF1095H   LINE      CODE     ---       #281
      00FF109BH   LINE      CODE     ---       #282
      00FF10A1H   LINE      CODE     ---       #284
      00FF10ABH   LINE      CODE     ---       #285
      00FF10BAH   LINE      CODE     ---       #286
      00FF10C4H   LINE      CODE     ---       #287
      00FF10CAH   LINE      CODE     ---       #288
      00FF10CDH   LINE      CODE     ---       #289
L251 LINKER/LOCATER V4.66.93.0                                                        07/30/2023  00:57:28  PAGE 22


      00FF10F4H   LINE      CODE     ---       #290
      00FF10F4H   LINE      CODE     ---       #292
      00FF110DH   LINE      CODE     ---       #293
      00FF1118H   LINE      CODE     ---       #294
      00FF1124H   LINE      CODE     ---       #296
      00FF112EH   LINE      CODE     ---       #297
      00FF1134H   LINE      CODE     ---       #298
      00FF113AH   LINE      CODE     ---       #300
      00FF1144H   LINE      CODE     ---       #301
      00FF1153H   LINE      CODE     ---       #302
      00FF115DH   LINE      CODE     ---       #303
      00FF1162H   LINE      CODE     ---       #304
      00FF1164H   LINE      CODE     ---       #306
      00FF116DH   LINE      CODE     ---       #307
      00FF1182H   LINE      CODE     ---       #308
      ---         BLOCKEND  ---      ---       LVL=0

      00FF1A1BH   BLOCK     CODE     ---       LVL=0
      000000C0H   SYMBOL    EDATA    BYTE      x
      000000C1H   SYMBOL    EDATA    BYTE      y
      REG=3       REGSYM    ---      ---       text
      00FF1A27H   BLOCK     CODE     NEAR LAB  LVL=1
      000000C2H   SYMBOL    EDATA    BYTE      i
      000000C3H   SYMBOL    EDATA    BYTE      addrHigh
      000000C4H   SYMBOL    EDATA    BYTE      addrMid
      000000C5H   SYMBOL    EDATA    BYTE      addrLow
      00FF1A41H   BLOCK     CODE     NEAR LAB  LVL=2
      000000C6H   SYMBOL    EDATA    ---       fontbuf
      ---         BLOCKEND  ---      ---       LVL=2
      ---         BLOCKEND  ---      ---       LVL=1
      00FF1A1BH   LINE      CODE     ---       #310
      00FF1A27H   LINE      CODE     ---       #311
      00FF1A27H   LINE      CODE     ---       #312
      00FF1A28H   LINE      CODE     ---       #314
      00FF1A2AH   LINE      CODE     ---       #316
      00FF1A41H   LINE      CODE     ---       #317
      00FF1A41H   LINE      CODE     ---       #319
      00FF1A4DH   LINE      CODE     ---       #320
      00FF1A57H   LINE      CODE     ---       #321
      00FF1A63H   LINE      CODE     ---       #323
      00FF1A6DH   LINE      CODE     ---       #324
      00FF1A73H   LINE      CODE     ---       #325
      00FF1A79H   LINE      CODE     ---       #327
      00FF1A83H   LINE      CODE     ---       #328
      00FF1A92H   LINE      CODE     ---       #329
      00FF1A9CH   LINE      CODE     ---       #330
      00FF1AA1H   LINE      CODE     ---       #331
      00FF1AA3H   LINE      CODE     ---       #333
      00FF1AACH   LINE      CODE     ---       #334
      00FF1AC1H   LINE      CODE     ---       #335
      ---         BLOCKEND  ---      ---       LVL=0

      00FF167FH   BLOCK     CODE     ---       LVL=0
      R15         REGSYM    ---      BYTE      x
      R14         REGSYM    ---      BYTE      y
      DR28        REGSYM    ---      FLOAT     num1
      R13         REGSYM    ---      BYTE      len
      00FF1689H   BLOCK     CODE     NEAR LAB  LVL=1
      R12         REGSYM    ---      BYTE      i
      00000018H   SYMBOL    EDATA    DWORD     t
      0000001CH   SYMBOL    EDATA    DWORD     num
      ---         BLOCKEND  ---      ---       LVL=1
      00FF167FH   LINE      CODE     ---       #341
      00FF1689H   LINE      CODE     ---       #342
      00FF1689H   LINE      CODE     ---       #343
L251 LINKER/LOCATER V4.66.93.0                                                        07/30/2023  00:57:28  PAGE 23


      00FF1689H   LINE      CODE     ---       #344
      00FF168FH   LINE      CODE     ---       #345
      00FF169DH   LINE      CODE     ---       #346
      00FF16AFH   LINE      CODE     ---       #347
      00FF16C2H   LINE      CODE     ---       #348
      00FF16C7H   LINE      CODE     ---       #350
      00FF16DAH   LINE      CODE     ---       #351
      00FF16E5H   LINE      CODE     ---       #352
      00FF16E8H   LINE      CODE     ---       #353
      00FF16F0H   LINE      CODE     ---       #354
      00FF1723H   LINE      CODE     ---       #356
      00FF1731H   LINE      CODE     ---       #357
      00FF173FH   LINE      CODE     ---       #358
      00FF174DH   LINE      CODE     ---       #359
      00FF175BH   LINE      CODE     ---       #360
      00FF1769H   LINE      CODE     ---       #361
      00FF1777H   LINE      CODE     ---       #362
      00FF1785H   LINE      CODE     ---       #363
      00FF1793H   LINE      CODE     ---       #364
      00FF17A1H   LINE      CODE     ---       #365
      00FF17B0H   LINE      CODE     ---       #366
      00FF17B0H   LINE      CODE     ---       #367
      00FF17B9H   LINE      CODE     ---       #368
      ---         BLOCKEND  ---      ---       LVL=0

      00FF18A5H   BLOCK     CODE     ---       LVL=0
      00FF18A5H   LINE      CODE     ---       #371
      00FF18A5H   LINE      CODE     ---       #374
      00FF18A7H   LINE      CODE     ---       #375
      00FF18A9H   LINE      CODE     ---       #376
      00FF18B0H   LINE      CODE     ---       #377
      00FF18B7H   LINE      CODE     ---       #378
      00FF18BEH   LINE      CODE     ---       #379
      00FF18C5H   LINE      CODE     ---       #380
      00FF18CCH   LINE      CODE     ---       #381
      00FF18D3H   LINE      CODE     ---       #382
      00FF18DAH   LINE      CODE     ---       #383
      00FF18E1H   LINE      CODE     ---       #384
      00FF18E8H   LINE      CODE     ---       #385
      00FF18EFH   LINE      CODE     ---       #386
      00FF18F6H   LINE      CODE     ---       #387
      00FF18FDH   LINE      CODE     ---       #388
      00FF1904H   LINE      CODE     ---       #389
      00FF190BH   LINE      CODE     ---       #390
      00FF1912H   LINE      CODE     ---       #391
      00FF1919H   LINE      CODE     ---       #392
      00FF1920H   LINE      CODE     ---       #393
      00FF1926H   LINE      CODE     ---       #394
      00FF192DH   LINE      CODE     ---       #395
      00FF1934H   LINE      CODE     ---       #396
      00FF193BH   LINE      CODE     ---       #397
      00FF1942H   LINE      CODE     ---       #398
      00FF1949H   LINE      CODE     ---       #399
      00FF1950H   LINE      CODE     ---       #400
      00FF1957H   LINE      CODE     ---       #401
      00FF195EH   LINE      CODE     ---       #402
      00FF1961H   LINE      CODE     ---       #403
      ---         BLOCKEND  ---      ---       LVL=0

      ---         MODULE    ---      ---       Meun
      00FF2AC2H   PUBLIC    HCONST   ---       set
      00FF1185H   PUBLIC    CODE     ---       Main_Meun
      00FF1C0FH   PUBLIC    CODE     ---       Meun_2_control
      00FF1CAEH   PUBLIC    CODE     ---       Meun_2_angle
      00FF1968H   PUBLIC    CODE     ---       Memu
L251 LINKER/LOCATER V4.66.93.0                                                        07/30/2023  00:57:28  PAGE 24


      00FF1D4DH   PUBLIC    CODE     ---       Meun_2_speed
      00FF1DECH   PUBLIC    CODE     ---       Meun_2_Pitching
      00000117H   PUBLIC    EDATA    INT       page_table
      000000D0H   SFRSYM    DATA     BYTE      PSW
      0000009DH   SFRSYM    DATA     BYTE      IRCBAND
      00000097H   SFRSYM    DATA     BYTE      AUXR2
      000000EFH   SFRSYM    DATA     BYTE      AUXINTIF
      000000FDH   SFRSYM    DATA     BYTE      S4CON
      000000ACH   SFRSYM    DATA     BYTE      S3CON
      0000009AH   SFRSYM    DATA     BYTE      S2CON
      000000B7H   SFRSYM    DATA     BYTE      IPH
      000000CDH   SFRSYM    DATA     BYTE      SPSTAT
      000000DDH   SFRSYM    DATA     BYTE      T4T3M
      000000C1H   SFRSYM    DATA     BYTE      WDT_CONTR
      000000DFH   SFRSYM    DATA     BYTE      IP3
      000000F4H   SFRSYM    DATA     BYTE      USBCON
      000000B5H   SFRSYM    DATA     BYTE      IP2
      000000FFH   SFRSYM    DATA     BYTE      RSTCFG
      000000C7H   SFRSYM    DATA     BYTE      IAP_CONTR
      000000F9H   SFRSYM    DATA     BYTE      LINICR
      0000008EH   SFRSYM    DATA     BYTE      AUXR
      000000AFH   SFRSYM    DATA     BYTE      IE2
      00000088H   SFRSYM    DATA     BYTE      TCON
      00000089H   SFRSYM    DATA     BYTE      TMOD
      00000098H   SFRSYM    DATA     BYTE      SCON
      000000F1H   SFRSYM    DATA     BYTE      CANICR
      00000087H   SFRSYM    DATA     BYTE      PCON
      000000BCH   SFRSYM    DATA     BYTE      ADC_CONTR
      000000E7H   SFRSYM    DATA     BYTE      CMPCR2
      000000E6H   SFRSYM    DATA     BYTE      CMPCR1
      000000DEH   SFRSYM    DATA     BYTE      ADCCFG
      000000B8H   SFRSYM    DATA     BYTE      IP
      0000008FH   SFRSYM    DATA     BYTE      INTCLKO
      000000EEH   SFRSYM    DATA     BYTE      IP3H
      000000B6H   SFRSYM    DATA     BYTE      IP2H
      000000A8H   SFRSYM    DATA     BYTE      IE
      000000BBH   SFRSYM    DATA     BYTE      P_SW3
      000000BAH   SFRSYM    DATA     BYTE      P_SW2
      000000A2H   SFRSYM    DATA     BYTE      P_SW1
      000000CEH   SFRSYM    DATA     BYTE      SPCTL
      000000F8H   SFRSYM    DATA     BYTE      P7
      000000E8H   SFRSYM    DATA     BYTE      P6
      000000C8H   SFRSYM    DATA     BYTE      P5
      000000C0H   SFRSYM    DATA     BYTE      P4
      000000B0H   SFRSYM    DATA     BYTE      P3
      000000A0H   SFRSYM    DATA     BYTE      P2
      00000090H   SFRSYM    DATA     BYTE      P1
      00000080H   SFRSYM    DATA     BYTE      P0

      00FF1968H   BLOCK     CODE     ---       LVL=0
      00FF1968H   LINE      CODE     ---       #42
      00FF196CH   LINE      CODE     ---       #44
      00FF1979H   LINE      CODE     ---       #46
      00FF1979H   LINE      CODE     ---       #47
      00FF197CH   LINE      CODE     ---       #48
      00FF197FH   LINE      CODE     ---       #49
      00FF197FH   LINE      CODE     ---       #50
      00FF19A6H   LINE      CODE     ---       #51
      00FF19C5H   LINE      CODE     ---       #52
      00FF19E4H   LINE      CODE     ---       #53
      00FF1A06H   LINE      CODE     ---       #54
      00FF1A16H   LINE      CODE     ---       #55
      00FF1A16H   LINE      CODE     ---       #56
      00FF1A16H   LINE      CODE     ---       #57
      ---         BLOCKEND  ---      ---       LVL=0
L251 LINKER/LOCATER V4.66.93.0                                                        07/30/2023  00:57:28  PAGE 25



      00FF1185H   BLOCK     CODE     ---       LVL=0
      00FF1185H   LINE      CODE     ---       #66
      00FF1187H   LINE      CODE     ---       #68
      00FF11A0H   LINE      CODE     ---       #70
      00FF11A8H   LINE      CODE     ---       #71
      00FF11D0H   LINE      CODE     ---       #72
      00FF11F8H   LINE      CODE     ---       #73
      00FF1220H   LINE      CODE     ---       #74
      00FF123EH   LINE      CODE     ---       #75
      00FF1241H   LINE      CODE     ---       #76
      00FF1250H   LINE      CODE     ---       #78
      00FF1253H   LINE      CODE     ---       #79
      00FF1258H   LINE      CODE     ---       #80
      00FF125CH   LINE      CODE     ---       #81
      00FF125FH   LINE      CODE     ---       #82
      00FF1274H   LINE      CODE     ---       #84
      00FF129CH   LINE      CODE     ---       #85
      00FF12C4H   LINE      CODE     ---       #86
      00FF12ECH   LINE      CODE     ---       #87
      00FF1314H   LINE      CODE     ---       #88
      00FF1316H   LINE      CODE     ---       #89
      00FF1325H   LINE      CODE     ---       #91
      00FF1328H   LINE      CODE     ---       #92
      00FF132EH   LINE      CODE     ---       #93
      00FF1336H   LINE      CODE     ---       #94
      00FF1336H   LINE      CODE     ---       #95
      00FF1346H   LINE      CODE     ---       #97
      00FF134DH   LINE      CODE     ---       #98
      ---         BLOCKEND  ---      ---       LVL=0

      00FF1D4DH   BLOCK     CODE     ---       LVL=0
      00FF1D4DH   LINE      CODE     ---       #107
      00FF1D4DH   LINE      CODE     ---       #109
      00FF1D75H   LINE      CODE     ---       #110
      00FF1D9CH   LINE      CODE     ---       #111
      00FF1DC4H   LINE      CODE     ---       #112
      ---         BLOCKEND  ---      ---       LVL=0

      00FF1CAEH   BLOCK     CODE     ---       LVL=0
      00FF1CAEH   LINE      CODE     ---       #115
      00FF1CAEH   LINE      CODE     ---       #117
      00FF1CD6H   LINE      CODE     ---       #118
      00FF1CFDH   LINE      CODE     ---       #119
      00FF1D25H   LINE      CODE     ---       #120
      ---         BLOCKEND  ---      ---       LVL=0

      00FF1DECH   BLOCK     CODE     ---       LVL=0
      00FF1DECH   LINE      CODE     ---       #123
      00FF1DECH   LINE      CODE     ---       #125
      00FF1E14H   LINE      CODE     ---       #126
      00FF1E3BH   LINE      CODE     ---       #127
      00FF1E63H   LINE      CODE     ---       #128
      ---         BLOCKEND  ---      ---       LVL=0

      00FF1C0FH   BLOCK     CODE     ---       LVL=0
      00FF1C0FH   LINE      CODE     ---       #131
      00FF1C0FH   LINE      CODE     ---       #133
      00FF1C37H   LINE      CODE     ---       #134
      00FF1C5EH   LINE      CODE     ---       #135
      00FF1C86H   LINE      CODE     ---       #136
      ---         BLOCKEND  ---      ---       LVL=0

      ---         MODULE    ---      ---       Encoders
      00FF20A5H   PUBLIC    CODE     ---       add
L251 LINKER/LOCATER V4.66.93.0                                                        07/30/2023  00:57:28  PAGE 26


      00FF211EH   PUBLIC    CODE     ---       lose
      00FF230CH   PUBLIC    CODE     ---       up_key_detection
      00FF235BH   PUBLIC    CODE     ---       rotary_encoder
      00FF1E8BH   PUBLIC    CODE     ---       Cancel_determine
      00FF150AH   PUBLIC    CODE     ---       Second_menu_value
      000000FBH   PUBLIC    EDATA    WORD      s_count
      000000FDH   PUBLIC    EDATA    ---       adjust
      00000102H   PUBLIC    EDATA    ---       spin
      00000106H   PUBLIC    EDATA    BYTE      part_count
      00000107H   PUBLIC    EDATA    BYTE      Confirm_exit
      00000108H   PUBLIC    EDATA    BYTE      part2_count
      00000020H.0 PUBLIC    BIT      BIT       rising_edge
      00000020H.1 PUBLIC    BIT      BIT       arrow_Value
      00000020H.2 PUBLIC    BIT      BIT       add_lose
      00000020H.3 PUBLIC    BIT      BIT       long_short
      00000020H.4 PUBLIC    BIT      BIT       falling_Down
      000000D0H   SFRSYM    DATA     BYTE      PSW
      0000009DH   SFRSYM    DATA     BYTE      IRCBAND
      00000097H   SFRSYM    DATA     BYTE      AUXR2
      000000EFH   SFRSYM    DATA     BYTE      AUXINTIF
      000000FDH   SFRSYM    DATA     BYTE      S4CON
      000000ACH   SFRSYM    DATA     BYTE      S3CON
      0000009AH   SFRSYM    DATA     BYTE      S2CON
      000000B7H   SFRSYM    DATA     BYTE      IPH
      000000CDH   SFRSYM    DATA     BYTE      SPSTAT
      000000DDH   SFRSYM    DATA     BYTE      T4T3M
      000000C1H   SFRSYM    DATA     BYTE      WDT_CONTR
      000000DFH   SFRSYM    DATA     BYTE      IP3
      000000F4H   SFRSYM    DATA     BYTE      USBCON
      000000B5H   SFRSYM    DATA     BYTE      IP2
      000000FFH   SFRSYM    DATA     BYTE      RSTCFG
      000000C7H   SFRSYM    DATA     BYTE      IAP_CONTR
      000000F9H   SFRSYM    DATA     BYTE      LINICR
      0000008EH   SFRSYM    DATA     BYTE      AUXR
      000000AFH   SFRSYM    DATA     BYTE      IE2
      00000088H   SFRSYM    DATA     BYTE      TCON
      00000089H   SFRSYM    DATA     BYTE      TMOD
      00000098H   SFRSYM    DATA     BYTE      SCON
      000000F1H   SFRSYM    DATA     BYTE      CANICR
      00000087H   SFRSYM    DATA     BYTE      PCON
      000000BCH   SFRSYM    DATA     BYTE      ADC_CONTR
      000000E7H   SFRSYM    DATA     BYTE      CMPCR2
      000000E6H   SFRSYM    DATA     BYTE      CMPCR1
      000000DEH   SFRSYM    DATA     BYTE      ADCCFG
      000000B8H   SFRSYM    DATA     BYTE      IP
      0000008FH   SFRSYM    DATA     BYTE      INTCLKO
      000000B0H.4 SFRSYM    DATA     BIT       EC11_K
      000000EEH   SFRSYM    DATA     BYTE      IP3H
      000000B6H   SFRSYM    DATA     BYTE      IP2H
      000000A8H   SFRSYM    DATA     BYTE      IE
      000000BBH   SFRSYM    DATA     BYTE      P_SW3
      000000BAH   SFRSYM    DATA     BYTE      P_SW2
      000000B0H.3 SFRSYM    DATA     BIT       EC11_B
      000000A2H   SFRSYM    DATA     BYTE      P_SW1
      000000B0H.2 SFRSYM    DATA     BIT       EC11_A
      000000CEH   SFRSYM    DATA     BYTE      SPCTL
      000000F8H   SFRSYM    DATA     BYTE      P7
      000000E8H   SFRSYM    DATA     BYTE      P6
      000000C8H   SFRSYM    DATA     BYTE      P5
      000000C0H   SFRSYM    DATA     BYTE      P4
      000000B0H   SFRSYM    DATA     BYTE      P3
      000000A0H   SFRSYM    DATA     BYTE      P2
      00000090H   SFRSYM    DATA     BYTE      P1
      00000080H   SFRSYM    DATA     BYTE      P0

L251 LINKER/LOCATER V4.66.93.0                                                        07/30/2023  00:57:28  PAGE 27


      00FF230CH   BLOCK     CODE     ---       LVL=0
      00FF230CH   LINE      CODE     ---       #18
      00FF230EH   LINE      CODE     ---       #20
      00FF231CH   LINE      CODE     ---       #21
      00FF2323H   LINE      CODE     ---       #23
      00FF232BH   LINE      CODE     ---       #24
      00FF2333H   LINE      CODE     ---       #25
      00FF2341H   LINE      CODE     ---       #27
      00FF2343H   LINE      CODE     ---       #28
      00FF2351H   LINE      CODE     ---       #29
      00FF2358H   LINE      CODE     ---       #30
      00FF2358H   LINE      CODE     ---       #31
      00FF2358H   LINE      CODE     ---       #32
      ---         BLOCKEND  ---      ---       LVL=0

      00FF235BH   BLOCK     CODE     ---       LVL=0
      00FF235BH   LINE      CODE     ---       #38
      00FF235BH   LINE      CODE     ---       #40
      00FF236BH   LINE      CODE     ---       #41
      00FF2372H   LINE      CODE     ---       #43
      00FF237AH   LINE      CODE     ---       #44
      00FF2382H   LINE      CODE     ---       #45
      00FF238EH   LINE      CODE     ---       #47
      00FF2390H   LINE      CODE     ---       #48
      00FF239AH   LINE      CODE     ---       #49
      00FF23A3H   LINE      CODE     ---       #50
      00FF23A3H   LINE      CODE     ---       #51
      00FF23A3H   LINE      CODE     ---       #52
      ---         BLOCKEND  ---      ---       LVL=0

      00FF20A5H   BLOCK     CODE     ---       LVL=0
      00FF20A5H   LINE      CODE     ---       #60
      00FF20A5H   LINE      CODE     ---       #62
      00FF20ABH   LINE      CODE     ---       #64
      00FF20B3H   LINE      CODE     ---       #66
      00FF20C9H   LINE      CODE     ---       #67
      00FF20CBH   LINE      CODE     ---       #68
      00FF20D0H   LINE      CODE     ---       #70
      00FF20E6H   LINE      CODE     ---       #71
      00FF20E6H   LINE      CODE     ---       #72
      00FF20FEH   LINE      CODE     ---       #73
      00FF2116H   LINE      CODE     ---       #74
      00FF2119H   LINE      CODE     ---       #75
      00FF2119H   LINE      CODE     ---       #78
      00FF211BH   LINE      CODE     ---       #79
      00FF211EH   LINE      CODE     ---       #80
      00FF211EH   LINE      CODE     ---       #81
      ---         BLOCKEND  ---      ---       LVL=0

      00FF211EH   BLOCK     CODE     ---       LVL=0
      00FF211EH   LINE      CODE     ---       #88
      00FF211EH   LINE      CODE     ---       #90
      00FF2124H   LINE      CODE     ---       #92
      00FF212CH   LINE      CODE     ---       #94
      00FF2142H   LINE      CODE     ---       #95
      00FF2144H   LINE      CODE     ---       #96
      00FF2149H   LINE      CODE     ---       #98
      00FF215FH   LINE      CODE     ---       #99
      00FF215FH   LINE      CODE     ---       #100
      00FF2177H   LINE      CODE     ---       #101
      00FF218FH   LINE      CODE     ---       #102
      00FF2192H   LINE      CODE     ---       #103
      00FF2192H   LINE      CODE     ---       #106
      00FF2194H   LINE      CODE     ---       #107
      00FF2197H   LINE      CODE     ---       #108
L251 LINKER/LOCATER V4.66.93.0                                                        07/30/2023  00:57:28  PAGE 28


      00FF2197H   LINE      CODE     ---       #109
      ---         BLOCKEND  ---      ---       LVL=0

      00FF150AH   BLOCK     CODE     ---       LVL=0
      00FF150AH   LINE      CODE     ---       #115
      00FF150AH   LINE      CODE     ---       #117
      00FF1525H   LINE      CODE     ---       #118
      00FF1540H   LINE      CODE     ---       #119
      00FF156AH   LINE      CODE     ---       #120
      00FF157DH   LINE      CODE     ---       #122
      00FF1592H   LINE      CODE     ---       #123
      00FF15ABH   LINE      CODE     ---       #124
      00FF15BDH   LINE      CODE     ---       #125
      00FF15D0H   LINE      CODE     ---       #127
      00FF15E5H   LINE      CODE     ---       #128
      00FF15FEH   LINE      CODE     ---       #129
      00FF160FH   LINE      CODE     ---       #130
      00FF1621H   LINE      CODE     ---       #132
      00FF1636H   LINE      CODE     ---       #133
      00FF164FH   LINE      CODE     ---       #134
      00FF1665H   LINE      CODE     ---       #135
      00FF167EH   LINE      CODE     ---       #136
      ---         BLOCKEND  ---      ---       LVL=0

      00FF1E8BH   BLOCK     CODE     ---       LVL=0
      00FF1E8BH   LINE      CODE     ---       #143
      00FF1E8BH   LINE      CODE     ---       #144
      00FF1E8BH   LINE      CODE     ---       #146
      00FF1E97H   LINE      CODE     ---       #148
      00FF1EA8H   LINE      CODE     ---       #150
      00FF1EAEH   LINE      CODE     ---       #151
      00FF1EB1H   LINE      CODE     ---       #152
      00FF1EB3H   LINE      CODE     ---       #153
      00FF1EC5H   LINE      CODE     ---       #154
      00FF1ECEH   LINE      CODE     ---       #155
      00FF1ED4H   LINE      CODE     ---       #156
      00FF1ED5H   LINE      CODE     ---       #157
      00FF1EE6H   LINE      CODE     ---       #159
      00FF1EECH   LINE      CODE     ---       #160
      00FF1EEFH   LINE      CODE     ---       #161
      00FF1EF1H   LINE      CODE     ---       #162
      00FF1EF3H   LINE      CODE     ---       #163
      00FF1EF8H   LINE      CODE     ---       #164
      00FF1EFCH   LINE      CODE     ---       #165
      00FF1F00H   LINE      CODE     ---       #166
      00FF1F04H   LINE      CODE     ---       #167
      00FF1F05H   LINE      CODE     ---       #168
      00FF1F16H   LINE      CODE     ---       #170
      00FF1F1CH   LINE      CODE     ---       #171
      00FF1F1CH   LINE      CODE     ---       #173
      ---         BLOCKEND  ---      ---       LVL=0

      ---         MODULE    ---      ---       timer
      00FF2925H   PUBLIC    CODE     ---       delay
      00FF28ECH   PUBLIC    CODE     ---       Timer1Init
      00000119H   PUBLIC    EDATA    WORD      delay_cnt
      000000D0H   SFRSYM    DATA     BYTE      PSW
      0000009DH   SFRSYM    DATA     BYTE      IRCBAND
      00000097H   SFRSYM    DATA     BYTE      AUXR2
      000000EFH   SFRSYM    DATA     BYTE      AUXINTIF
      000000FDH   SFRSYM    DATA     BYTE      S4CON
      000000ACH   SFRSYM    DATA     BYTE      S3CON
      0000009AH   SFRSYM    DATA     BYTE      S2CON
      000000B7H   SFRSYM    DATA     BYTE      IPH
      000000CDH   SFRSYM    DATA     BYTE      SPSTAT
L251 LINKER/LOCATER V4.66.93.0                                                        07/30/2023  00:57:28  PAGE 29


      000000DDH   SFRSYM    DATA     BYTE      T4T3M
      000000C1H   SFRSYM    DATA     BYTE      WDT_CONTR
      00000088H.6 SFRSYM    DATA     BIT       TR1
      0000008BH   SFRSYM    DATA     BYTE      TL1
      0000008DH   SFRSYM    DATA     BYTE      TH1
      000000DFH   SFRSYM    DATA     BYTE      IP3
      000000F4H   SFRSYM    DATA     BYTE      USBCON
      00000088H.7 SFRSYM    DATA     BIT       TF1
      000000B5H   SFRSYM    DATA     BYTE      IP2
      000000FFH   SFRSYM    DATA     BYTE      RSTCFG
      000000A8H.3 SFRSYM    DATA     BIT       ET1
      000000C7H   SFRSYM    DATA     BYTE      IAP_CONTR
      000000F9H   SFRSYM    DATA     BYTE      LINICR
      0000008EH   SFRSYM    DATA     BYTE      AUXR
      000000AFH   SFRSYM    DATA     BYTE      IE2
      00000088H   SFRSYM    DATA     BYTE      TCON
      00000089H   SFRSYM    DATA     BYTE      TMOD
      00000098H   SFRSYM    DATA     BYTE      SCON
      000000F1H   SFRSYM    DATA     BYTE      CANICR
      00000087H   SFRSYM    DATA     BYTE      PCON
      000000BCH   SFRSYM    DATA     BYTE      ADC_CONTR
      000000E7H   SFRSYM    DATA     BYTE      CMPCR2
      000000E6H   SFRSYM    DATA     BYTE      CMPCR1
      000000DEH   SFRSYM    DATA     BYTE      ADCCFG
      000000B8H   SFRSYM    DATA     BYTE      IP
      0000008FH   SFRSYM    DATA     BYTE      INTCLKO
      000000EEH   SFRSYM    DATA     BYTE      IP3H
      000000B6H   SFRSYM    DATA     BYTE      IP2H
      000000A8H   SFRSYM    DATA     BYTE      IE
      000000BBH   SFRSYM    DATA     BYTE      P_SW3
      000000BAH   SFRSYM    DATA     BYTE      P_SW2
      000000A2H   SFRSYM    DATA     BYTE      P_SW1
      000000CEH   SFRSYM    DATA     BYTE      SPCTL
      000000F8H   SFRSYM    DATA     BYTE      P7
      000000A8H.7 SFRSYM    DATA     BIT       EA
      000000E8H   SFRSYM    DATA     BYTE      P6
      000000C8H   SFRSYM    DATA     BYTE      P5
      000000C0H   SFRSYM    DATA     BYTE      P4
      000000B0H   SFRSYM    DATA     BYTE      P3
      000000A0H   SFRSYM    DATA     BYTE      P2
      00000090H   SFRSYM    DATA     BYTE      P1
      00000080H   SFRSYM    DATA     BYTE      P0

      00FF28ECH   BLOCK     CODE     ---       LVL=0
      00FF28ECH   LINE      CODE     ---       #3
      00FF28ECH   LINE      CODE     ---       #5
      00FF28EFH   LINE      CODE     ---       #6
      00FF28F2H   LINE      CODE     ---       #7
      00FF28F5H   LINE      CODE     ---       #8
      00FF28F8H   LINE      CODE     ---       #9
      00FF28FAH   LINE      CODE     ---       #10
      00FF28FCH   LINE      CODE     ---       #11
      00FF28FEH   LINE      CODE     ---       #12
      00FF2900H   LINE      CODE     ---       #13
      ---         BLOCKEND  ---      ---       LVL=0

      00FF2925H   BLOCK     CODE     ---       LVL=0
      WR6         REGSYM    ---      WORD      delay
      00FF2925H   LINE      CODE     ---       #19
      00FF2925H   LINE      CODE     ---       #21
      00FF2929H   LINE      CODE     ---       #22
      00FF2933H   LINE      CODE     ---       #23
      ---         BLOCKEND  ---      ---       LVL=0

      ---         MODULE    ---      ---       Uart
L251 LINKER/LOCATER V4.66.93.0                                                        07/30/2023  00:57:28  PAGE 30


      00FF2851H   PUBLIC    CODE     ---       UartInit
      00FF2968H   PUBLIC    CODE     ---       Uart1_Isr
      00FF2972H   PUBLIC    CODE     ---       Uart_sendbyte
      00FF2896H   PUBLIC    CODE     ---       Uart_String
      000000D0H   SFRSYM    DATA     BYTE      PSW
      0000009DH   SFRSYM    DATA     BYTE      IRCBAND
      00000097H   SFRSYM    DATA     BYTE      AUXR2
      000000EFH   SFRSYM    DATA     BYTE      AUXINTIF
      000000FDH   SFRSYM    DATA     BYTE      S4CON
      000000ACH   SFRSYM    DATA     BYTE      S3CON
      0000009AH   SFRSYM    DATA     BYTE      S2CON
      000000B7H   SFRSYM    DATA     BYTE      IPH
      000000CDH   SFRSYM    DATA     BYTE      SPSTAT
      000000DDH   SFRSYM    DATA     BYTE      T4T3M
      000000C1H   SFRSYM    DATA     BYTE      WDT_CONTR
      000000D7H   SFRSYM    DATA     BYTE      T2L
      000000D6H   SFRSYM    DATA     BYTE      T2H
      000000DFH   SFRSYM    DATA     BYTE      IP3
      000000F4H   SFRSYM    DATA     BYTE      USBCON
      000000B5H   SFRSYM    DATA     BYTE      IP2
      000000FFH   SFRSYM    DATA     BYTE      RSTCFG
      000000C7H   SFRSYM    DATA     BYTE      IAP_CONTR
      000000F9H   SFRSYM    DATA     BYTE      LINICR
      0000008EH   SFRSYM    DATA     BYTE      AUXR
      000000AFH   SFRSYM    DATA     BYTE      IE2
      00000088H   SFRSYM    DATA     BYTE      TCON
      00000089H   SFRSYM    DATA     BYTE      TMOD
      00000098H   SFRSYM    DATA     BYTE      SCON
      000000F1H   SFRSYM    DATA     BYTE      CANICR
      00000087H   SFRSYM    DATA     BYTE      PCON
      00000099H   SFRSYM    DATA     BYTE      SBUF
      000000BCH   SFRSYM    DATA     BYTE      ADC_CONTR
      000000E7H   SFRSYM    DATA     BYTE      CMPCR2
      000000E6H   SFRSYM    DATA     BYTE      CMPCR1
      00000098H.1 SFRSYM    DATA     BIT       TI
      00000098H.0 SFRSYM    DATA     BIT       RI
      000000DEH   SFRSYM    DATA     BYTE      ADCCFG
      000000B8H   SFRSYM    DATA     BYTE      IP
      000000A8H.4 SFRSYM    DATA     BIT       ES
      0000008FH   SFRSYM    DATA     BYTE      INTCLKO
      000000EEH   SFRSYM    DATA     BYTE      IP3H
      000000B6H   SFRSYM    DATA     BYTE      IP2H
      000000A8H   SFRSYM    DATA     BYTE      IE
      000000BBH   SFRSYM    DATA     BYTE      P_SW3
      000000BAH   SFRSYM    DATA     BYTE      P_SW2
      000000A2H   SFRSYM    DATA     BYTE      P_SW1
      000000CEH   SFRSYM    DATA     BYTE      SPCTL
      000000F8H   SFRSYM    DATA     BYTE      P7
      000000A8H.7 SFRSYM    DATA     BIT       EA
      000000E8H   SFRSYM    DATA     BYTE      P6
      000000C8H   SFRSYM    DATA     BYTE      P5
      000000C0H   SFRSYM    DATA     BYTE      P4
      000000B0H   SFRSYM    DATA     BYTE      P3
      000000A0H   SFRSYM    DATA     BYTE      P2
      00000090H   SFRSYM    DATA     BYTE      P1
      00000080H   SFRSYM    DATA     BYTE      P0

      00FF2851H   BLOCK     CODE     ---       LVL=0
      00FF2851H   LINE      CODE     ---       #2
      00FF2851H   LINE      CODE     ---       #4
      00FF2854H   LINE      CODE     ---       #5
      00FF2857H   LINE      CODE     ---       #6
      00FF285AH   LINE      CODE     ---       #7
      00FF285DH   LINE      CODE     ---       #8
      00FF2860H   LINE      CODE     ---       #9
L251 LINKER/LOCATER V4.66.93.0                                                        07/30/2023  00:57:28  PAGE 31


      00FF2863H   LINE      CODE     ---       #10
      00FF2865H   LINE      CODE     ---       #11
      00FF2867H   LINE      CODE     ---       #12
      ---         BLOCKEND  ---      ---       LVL=0

      00FF2972H   BLOCK     CODE     ---       LVL=0
      R11         REGSYM    ---      BYTE      byte
      00FF2972H   LINE      CODE     ---       #14
      00FF2972H   LINE      CODE     ---       #16
      00FF2975H   LINE      CODE     ---       #17
      00FF2978H   LINE      CODE     ---       #18
      00FF297AH   LINE      CODE     ---       #19
      ---         BLOCKEND  ---      ---       LVL=0

      00FF2896H   BLOCK     CODE     ---       LVL=0
      REG=3       REGSYM    ---      ---       p
      00FF2896H   LINE      CODE     ---       #21
      00FF289AH   LINE      CODE     ---       #23
      00FF289CH   LINE      CODE     ---       #25
      00FF28A4H   LINE      CODE     ---       #26
      00FF28A9H   LINE      CODE     ---       #27
      ---         BLOCKEND  ---      ---       LVL=0

      00FF2968H   BLOCK     CODE     ---       LVL=0
      00FF2968H   LINE      CODE     ---       #29
      00FF296AH   LINE      CODE     ---       #31
      00FF296DH   LINE      CODE     ---       #33
      00FF296FH   LINE      CODE     ---       #34
      ---         BLOCKEND  ---      ---       LVL=0

      ---         MODULE    ---      ---       iic
      00FF2951H   PUBLIC    CODE     ---       IIC_Delay
      00FF2914H   PUBLIC    CODE     ---       IIC_Start
      00FF258CH   PUBLIC    CODE     ---       Hall_element
      00FF2868H   PUBLIC    CODE     ---       IIC_SendAck
      00FF25BBH   PUBLIC    CODE     ---       IIC_SendByte
      00FF2901H   PUBLIC    CODE     ---       IIC_WaitAck
      00FF2943H   PUBLIC    CODE     ---       IIC_Stop
      00FF2697H   PUBLIC    CODE     ---       IIC_RecByte
      00000020H.5 PUBLIC    BIT      BIT       ?IIC_SendAck?BIT
      000000D0H   SFRSYM    DATA     BYTE      PSW
      0000009DH   SFRSYM    DATA     BYTE      IRCBAND
      00000097H   SFRSYM    DATA     BYTE      AUXR2
      000000EFH   SFRSYM    DATA     BYTE      AUXINTIF
      000000FDH   SFRSYM    DATA     BYTE      S4CON
      000000ACH   SFRSYM    DATA     BYTE      S3CON
      0000009AH   SFRSYM    DATA     BYTE      S2CON
      000000A0H   SFRSYM    ---      BIT       SCL
      000000B7H   SFRSYM    DATA     BYTE      IPH
      000000CDH   SFRSYM    DATA     BYTE      SPSTAT
      000000DDH   SFRSYM    DATA     BYTE      T4T3M
      000000C1H   SFRSYM    DATA     BYTE      WDT_CONTR
      000000A0H.2 SFRSYM    ---      BIT       SDA
      000000DFH   SFRSYM    DATA     BYTE      IP3
      000000F4H   SFRSYM    DATA     BYTE      USBCON
      000000B5H   SFRSYM    DATA     BYTE      IP2
      000000FFH   SFRSYM    DATA     BYTE      RSTCFG
      000000C7H   SFRSYM    DATA     BYTE      IAP_CONTR
      000000F9H   SFRSYM    DATA     BYTE      LINICR
      0000008EH   SFRSYM    DATA     BYTE      AUXR
      000000AFH   SFRSYM    DATA     BYTE      IE2
      00000088H   SFRSYM    DATA     BYTE      TCON
      00000089H   SFRSYM    DATA     BYTE      TMOD
      00000098H   SFRSYM    DATA     BYTE      SCON
      000000F1H   SFRSYM    DATA     BYTE      CANICR
L251 LINKER/LOCATER V4.66.93.0                                                        07/30/2023  00:57:28  PAGE 32


      00000087H   SFRSYM    DATA     BYTE      PCON
      000000BCH   SFRSYM    DATA     BYTE      ADC_CONTR
      000000E7H   SFRSYM    DATA     BYTE      CMPCR2
      000000E6H   SFRSYM    DATA     BYTE      CMPCR1
      000000DEH   SFRSYM    DATA     BYTE      ADCCFG
      000000B8H   SFRSYM    DATA     BYTE      IP
      0000008FH   SFRSYM    DATA     BYTE      INTCLKO
      000000EEH   SFRSYM    DATA     BYTE      IP3H
      000000B6H   SFRSYM    DATA     BYTE      IP2H
      000000A8H   SFRSYM    DATA     BYTE      IE
      000000BBH   SFRSYM    DATA     BYTE      P_SW3
      000000BAH   SFRSYM    DATA     BYTE      P_SW2
      000000A2H   SFRSYM    DATA     BYTE      P_SW1
      000000CEH   SFRSYM    DATA     BYTE      SPCTL
      000000F8H   SFRSYM    DATA     BYTE      P7
      000000E8H   SFRSYM    DATA     BYTE      P6
      000000C8H   SFRSYM    DATA     BYTE      P5
      000000C0H   SFRSYM    DATA     BYTE      P4
      000000B0H   SFRSYM    DATA     BYTE      P3
      000000A0H   SFRSYM    DATA     BYTE      P2
      00000090H   SFRSYM    DATA     BYTE      P1
      00000080H   SFRSYM    DATA     BYTE      P0

      00FF2951H   BLOCK     CODE     ---       LVL=0
      R7          REGSYM    ---      BYTE      i
      00FF2951H   LINE      CODE     ---       #8
      00FF2953H   LINE      CODE     ---       #10
      00FF295CH   LINE      CODE     ---       #12
      ---         BLOCKEND  ---      ---       LVL=0

      00FF2914H   BLOCK     CODE     ---       LVL=0
      00FF2914H   LINE      CODE     ---       #15
      00FF2914H   LINE      CODE     ---       #17
      00FF2916H   LINE      CODE     ---       #18
      00FF2918H   LINE      CODE     ---       #19
      00FF291DH   LINE      CODE     ---       #20
      00FF291FH   LINE      CODE     ---       #21
      00FF2922H   LINE      CODE     ---       #22
      00FF2924H   LINE      CODE     ---       #23
      ---         BLOCKEND  ---      ---       LVL=0

      00FF2943H   BLOCK     CODE     ---       LVL=0
      00FF2943H   LINE      CODE     ---       #26
      00FF2943H   LINE      CODE     ---       #28
      00FF2945H   LINE      CODE     ---       #29
      00FF2947H   LINE      CODE     ---       #30
      00FF294CH   LINE      CODE     ---       #31
      00FF294EH   LINE      CODE     ---       #32
      ---         BLOCKEND  ---      ---       LVL=0

      00FF2868H   BLOCK     CODE     ---       LVL=0
      00000020H.5 SYMBOL    BIT      BIT       ackbit
      00FF2868H   LINE      CODE     ---       #36
      00FF2868H   LINE      CODE     ---       #38
      00FF286AH   LINE      CODE     ---       #39
      00FF286EH   LINE      CODE     ---       #40
      00FF2873H   LINE      CODE     ---       #41
      00FF2875H   LINE      CODE     ---       #42
      00FF2878H   LINE      CODE     ---       #43
      00FF287AH   LINE      CODE     ---       #44
      00FF287CH   LINE      CODE     ---       #45
      ---         BLOCKEND  ---      ---       LVL=0

      00FF2901H   BLOCK     CODE     ---       LVL=0
      00000020H.6 SYMBOL    BIT      BIT       ackbit
L251 LINKER/LOCATER V4.66.93.0                                                        07/30/2023  00:57:28  PAGE 33


      00FF2901H   LINE      CODE     ---       #49
      00FF2901H   LINE      CODE     ---       #50
      00FF2901H   LINE      CODE     ---       #52
      00FF2903H   LINE      CODE     ---       #53
      00FF2908H   LINE      CODE     ---       #54
      00FF290CH   LINE      CODE     ---       #55
      00FF290EH   LINE      CODE     ---       #56
      00FF2911H   LINE      CODE     ---       #57
      00FF2913H   LINE      CODE     ---       #58
      ---         BLOCKEND  ---      ---       LVL=0

      00FF25BBH   BLOCK     CODE     ---       LVL=0
      R15         REGSYM    ---      BYTE      byt
      00FF25BFH   BLOCK     CODE     NEAR LAB  LVL=1
      R14         REGSYM    ---      BYTE      i
      ---         BLOCKEND  ---      ---       LVL=1
      00FF25BBH   LINE      CODE     ---       #61
      00FF25BFH   LINE      CODE     ---       #62
      00FF25BFH   LINE      CODE     ---       #63
      00FF25BFH   LINE      CODE     ---       #64
      00FF25C2H   LINE      CODE     ---       #66
      00FF25C4H   LINE      CODE     ---       #67
      00FF25C9H   LINE      CODE     ---       #68
      00FF25D2H   LINE      CODE     ---       #69
      00FF25D4H   LINE      CODE     ---       #70
      00FF25D9H   LINE      CODE     ---       #71
      00FF25DBH   LINE      CODE     ---       #72
      00FF25DDH   LINE      CODE     ---       #73
      00FF25E0H   LINE      CODE     ---       #74
      00FF25E4H   LINE      CODE     ---       #75
      00FF25E6H   LINE      CODE     ---       #76
      ---         BLOCKEND  ---      ---       LVL=0

      00FF2697H   BLOCK     CODE     ---       LVL=0
      00FF2699H   BLOCK     CODE     NEAR LAB  LVL=1
      R14         REGSYM    ---      BYTE      i
      R15         REGSYM    ---      BYTE      da
      ---         BLOCKEND  ---      ---       LVL=1
      00FF2697H   LINE      CODE     ---       #79
      00FF2699H   LINE      CODE     ---       #80
      00FF2699H   LINE      CODE     ---       #81
      00FF269BH   LINE      CODE     ---       #82
      00FF269EH   LINE      CODE     ---       #84
      00FF26A0H   LINE      CODE     ---       #85
      00FF26A5H   LINE      CODE     ---       #86
      00FF26A7H   LINE      CODE     ---       #87
      00FF26ADH   LINE      CODE     ---       #88
      00FF26AFH   LINE      CODE     ---       #89
      00FF26B4H   LINE      CODE     ---       #90
      00FF26B8H   LINE      CODE     ---       #91
      00FF26BAH   LINE      CODE     ---       #92
      ---         BLOCKEND  ---      ---       LVL=0

      00FF258CH   BLOCK     CODE     ---       LVL=0
      R15         REGSYM    ---      BYTE      readaddr
      00FF2590H   BLOCK     CODE     NEAR LAB  LVL=1
      R15         REGSYM    ---      BYTE      temp
      ---         BLOCKEND  ---      ---       LVL=1
      00FF258CH   LINE      CODE     ---       #93
      00FF2590H   LINE      CODE     ---       #94
      00FF2590H   LINE      CODE     ---       #95
      00FF2590H   LINE      CODE     ---       #96
      00FF2593H   LINE      CODE     ---       #97
      00FF2598H   LINE      CODE     ---       #98
      00FF259BH   LINE      CODE     ---       #99
L251 LINKER/LOCATER V4.66.93.0                                                        07/30/2023  00:57:28  PAGE 34


      00FF25A0H   LINE      CODE     ---       #100
      00FF25A3H   LINE      CODE     ---       #102
      00FF25A6H   LINE      CODE     ---       #103
      00FF25ABH   LINE      CODE     ---       #104
      00FF25AEH   LINE      CODE     ---       #105
      00FF25B3H   LINE      CODE     ---       #106
      00FF25B6H   LINE      CODE     ---       #107
      00FF25B8H   LINE      CODE     ---       #108
      ---         BLOCKEND  ---      ---       LVL=0

      ---         MODULE    ---      ---       pwm
      00FF2431H   PUBLIC    CODE     ---       Update_duty
      00FF1F1DH   PUBLIC    CODE     ---       PWMA_Config
      0000010DH   PUBLIC    EDATA    INT       dutyL
      0000010FH   PUBLIC    EDATA    INT       dutyR
      000000D0H   SFRSYM    DATA     BYTE      PSW
      0000009DH   SFRSYM    DATA     BYTE      IRCBAND
      00000097H   SFRSYM    DATA     BYTE      AUXR2
      000000EFH   SFRSYM    DATA     BYTE      AUXINTIF
      000000FDH   SFRSYM    DATA     BYTE      S4CON
      000000ACH   SFRSYM    DATA     BYTE      S3CON
      0000009AH   SFRSYM    DATA     BYTE      S2CON
      000000B7H   SFRSYM    DATA     BYTE      IPH
      000000CDH   SFRSYM    DATA     BYTE      SPSTAT
      000000DDH   SFRSYM    DATA     BYTE      T4T3M
      000000C1H   SFRSYM    DATA     BYTE      WDT_CONTR
      000000DFH   SFRSYM    DATA     BYTE      IP3
      000000F4H   SFRSYM    DATA     BYTE      USBCON
      000000B5H   SFRSYM    DATA     BYTE      IP2
      000000FFH   SFRSYM    DATA     BYTE      RSTCFG
      000000C7H   SFRSYM    DATA     BYTE      IAP_CONTR
      000000F9H   SFRSYM    DATA     BYTE      LINICR
      0000008EH   SFRSYM    DATA     BYTE      AUXR
      000000AFH   SFRSYM    DATA     BYTE      IE2
      00000088H   SFRSYM    DATA     BYTE      TCON
      00000089H   SFRSYM    DATA     BYTE      TMOD
      00000098H   SFRSYM    DATA     BYTE      SCON
      000000F1H   SFRSYM    DATA     BYTE      CANICR
      00000087H   SFRSYM    DATA     BYTE      PCON
      000000BCH   SFRSYM    DATA     BYTE      ADC_CONTR
      000000E7H   SFRSYM    DATA     BYTE      CMPCR2
      000000E6H   SFRSYM    DATA     BYTE      CMPCR1
      000000DEH   SFRSYM    DATA     BYTE      ADCCFG
      000000B8H   SFRSYM    DATA     BYTE      IP
      0000008FH   SFRSYM    DATA     BYTE      INTCLKO
      000000EEH   SFRSYM    DATA     BYTE      IP3H
      000000B6H   SFRSYM    DATA     BYTE      IP2H
      000000A8H   SFRSYM    DATA     BYTE      IE
      000000BBH   SFRSYM    DATA     BYTE      P_SW3
      000000BAH   SFRSYM    DATA     BYTE      P_SW2
      000000A2H   SFRSYM    DATA     BYTE      P_SW1
      000000CEH   SFRSYM    DATA     BYTE      SPCTL
      000000F8H   SFRSYM    DATA     BYTE      P7
      000000E8H   SFRSYM    DATA     BYTE      P6
      000000C8H   SFRSYM    DATA     BYTE      P5
      000000C0H   SFRSYM    DATA     BYTE      P4
      000000B0H   SFRSYM    DATA     BYTE      P3
      000000A0H   SFRSYM    DATA     BYTE      P2
      00000090H   SFRSYM    DATA     BYTE      P1
      00000080H   SFRSYM    DATA     BYTE      P0

      00FF1F1DH   BLOCK     CODE     ---       LVL=0
      00FF1F1DH   LINE      CODE     ---       #9
      00FF1F1DH   LINE      CODE     ---       #11
      00FF1F2AH   LINE      CODE     ---       #13
L251 LINKER/LOCATER V4.66.93.0                                                        07/30/2023  00:57:28  PAGE 35


      00FF1F32H   LINE      CODE     ---       #14
      00FF1F3BH   LINE      CODE     ---       #16
      00FF1F43H   LINE      CODE     ---       #17
      00FF1F50H   LINE      CODE     ---       #18
      00FF1F57H   LINE      CODE     ---       #19
      00FF1F5CH   LINE      CODE     ---       #21
      00FF1F65H   LINE      CODE     ---       #22
      00FF1F6EH   LINE      CODE     ---       #24
      00FF1F77H   LINE      CODE     ---       #25
      00FF1F80H   LINE      CODE     ---       #27
      00FF1F89H   LINE      CODE     ---       #28
      00FF1F92H   LINE      CODE     ---       #30
      00FF1F9BH   LINE      CODE     ---       #31
      00FF1FA4H   LINE      CODE     ---       #33
      00FF1FADH   LINE      CODE     ---       #34
      ---         BLOCKEND  ---      ---       LVL=0

      00FF2431H   BLOCK     CODE     ---       LVL=0
      R7          REGSYM    ---      BYTE      sw
      00FF2431H   LINE      CODE     ---       #41
      00FF2433H   LINE      CODE     ---       #43
      00FF2437H   LINE      CODE     ---       #45
      00FF243DH   LINE      CODE     ---       #46
      00FF2441H   LINE      CODE     ---       #47
      00FF2441H   LINE      CODE     ---       #65
      00FF2452H   LINE      CODE     ---       #66
      00FF2459H   LINE      CODE     ---       #68
      00FF2466H   LINE      CODE     ---       #69
      00FF246DH   LINE      CODE     ---       #74
      ---         BLOCKEND  ---      ---       LVL=0

      ---         MODULE    ---      ---       GPIO
      00FF24E4H   PUBLIC    CODE     ---       GPIO_init
      00000094H   SFRSYM    DATA     BYTE      P0M0
      000000D0H   SFRSYM    DATA     BYTE      PSW
      000000BAH.7 SFRSYM    DATA     BIT       EAXFR
      0000009DH   SFRSYM    DATA     BYTE      IRCBAND
      00000097H   SFRSYM    DATA     BYTE      AUXR2
      000000EAH   SFRSYM    DATA     BYTE      CKCON
      000000EFH   SFRSYM    DATA     BYTE      AUXINTIF
      000000FDH   SFRSYM    DATA     BYTE      S4CON
      000000ACH   SFRSYM    DATA     BYTE      S3CON
      0000009AH   SFRSYM    DATA     BYTE      S2CON
      000000B7H   SFRSYM    DATA     BYTE      IPH
      000000CDH   SFRSYM    DATA     BYTE      SPSTAT
      000000DDH   SFRSYM    DATA     BYTE      T4T3M
      000000C1H   SFRSYM    DATA     BYTE      WDT_CONTR
      000000E9H   SFRSYM    DATA     BYTE      WTST
      000000DFH   SFRSYM    DATA     BYTE      IP3
      000000F4H   SFRSYM    DATA     BYTE      USBCON
      000000B5H   SFRSYM    DATA     BYTE      IP2
      000000FFH   SFRSYM    DATA     BYTE      RSTCFG
      000000C7H   SFRSYM    DATA     BYTE      IAP_CONTR
      000000F9H   SFRSYM    DATA     BYTE      LINICR
      0000008EH   SFRSYM    DATA     BYTE      AUXR
      000000AFH   SFRSYM    DATA     BYTE      IE2
      00000088H   SFRSYM    DATA     BYTE      TCON
      00000089H   SFRSYM    DATA     BYTE      TMOD
      00000098H   SFRSYM    DATA     BYTE      SCON
      000000F1H   SFRSYM    DATA     BYTE      CANICR
      00000087H   SFRSYM    DATA     BYTE      PCON
      000000BCH   SFRSYM    DATA     BYTE      ADC_CONTR
      000000E7H   SFRSYM    DATA     BYTE      CMPCR2
      000000E6H   SFRSYM    DATA     BYTE      CMPCR1
      000000DEH   SFRSYM    DATA     BYTE      ADCCFG
L251 LINKER/LOCATER V4.66.93.0                                                        07/30/2023  00:57:28  PAGE 36


      000000B8H   SFRSYM    DATA     BYTE      IP
      0000008FH   SFRSYM    DATA     BYTE      INTCLKO
      000000EEH   SFRSYM    DATA     BYTE      IP3H
      000000B6H   SFRSYM    DATA     BYTE      IP2H
      000000A8H   SFRSYM    DATA     BYTE      IE
      000000BBH   SFRSYM    DATA     BYTE      P_SW3
      000000BAH   SFRSYM    DATA     BYTE      P_SW2
      000000A2H   SFRSYM    DATA     BYTE      P_SW1
      000000CEH   SFRSYM    DATA     BYTE      SPCTL
      000000F8H   SFRSYM    DATA     BYTE      P7
      000000E1H   SFRSYM    DATA     BYTE      P7M1
      000000E8H   SFRSYM    DATA     BYTE      P6
      000000C8H   SFRSYM    DATA     BYTE      P5
      000000CBH   SFRSYM    DATA     BYTE      P6M1
      000000E2H   SFRSYM    DATA     BYTE      P7M0
      000000C0H   SFRSYM    DATA     BYTE      P4
      000000C9H   SFRSYM    DATA     BYTE      P5M1
      000000CCH   SFRSYM    DATA     BYTE      P6M0
      000000B0H   SFRSYM    DATA     BYTE      P3
      000000B3H   SFRSYM    DATA     BYTE      P4M1
      000000CAH   SFRSYM    DATA     BYTE      P5M0
      000000A0H   SFRSYM    DATA     BYTE      P2
      000000B1H   SFRSYM    DATA     BYTE      P3M1
      000000B4H   SFRSYM    DATA     BYTE      P4M0
      00000090H   SFRSYM    DATA     BYTE      P1
      00000095H   SFRSYM    DATA     BYTE      P2M1
      000000B2H   SFRSYM    DATA     BYTE      P3M0
      00000080H   SFRSYM    DATA     BYTE      P0
      00000091H   SFRSYM    DATA     BYTE      P1M1
      00000096H   SFRSYM    DATA     BYTE      P2M0
      00000092H   SFRSYM    DATA     BYTE      P1M0
      00000093H   SFRSYM    DATA     BYTE      P0M1

      00FF24E4H   BLOCK     CODE     ---       LVL=0
      00FF24E4H   LINE      CODE     ---       #3
      00FF24E4H   LINE      CODE     ---       #5
      00FF24E7H   LINE      CODE     ---       #6
      00FF24EAH   LINE      CODE     ---       #7
      00FF24EDH   LINE      CODE     ---       #9
      00FF24F3H   LINE      CODE     ---       #10
      00FF24F9H   LINE      CODE     ---       #11
      00FF24FFH   LINE      CODE     ---       #12
      00FF2505H   LINE      CODE     ---       #13
      00FF250BH   LINE      CODE     ---       #14
      00FF2511H   LINE      CODE     ---       #15
      00FF2517H   LINE      CODE     ---       #16
      00FF251DH   LINE      CODE     ---       #17
      ---         BLOCKEND  ---      ---       LVL=0

      ---         MODULE    ---      ---       motor
      00FF298DH   PUBLIC    CODE     ---       Motor_Init
      00FF278FH   PUBLIC    CODE     ---       Motor_FRcontrol
      00FF297BH   PUBLIC    CODE     ---       Motor_Forward
      00FF2984H   PUBLIC    CODE     ---       Motor_reverse
      00000080H.1 SFRSYM    DATA     BIT       MOTOR_AIN1
      000000D0H   SFRSYM    DATA     BYTE      PSW
      0000009DH   SFRSYM    DATA     BYTE      IRCBAND
      00000097H   SFRSYM    DATA     BYTE      AUXR2
      000000EFH   SFRSYM    DATA     BYTE      AUXINTIF
      000000FDH   SFRSYM    DATA     BYTE      S4CON
      000000ACH   SFRSYM    DATA     BYTE      S3CON
      0000009AH   SFRSYM    DATA     BYTE      S2CON
      000000B7H   SFRSYM    DATA     BYTE      IPH
      000000CDH   SFRSYM    DATA     BYTE      SPSTAT
      000000DDH   SFRSYM    DATA     BYTE      T4T3M
L251 LINKER/LOCATER V4.66.93.0                                                        07/30/2023  00:57:28  PAGE 37


      000000C1H   SFRSYM    DATA     BYTE      WDT_CONTR
      000000DFH   SFRSYM    DATA     BYTE      IP3
      000000F4H   SFRSYM    DATA     BYTE      USBCON
      000000B5H   SFRSYM    DATA     BYTE      IP2
      000000FFH   SFRSYM    DATA     BYTE      RSTCFG
      000000C7H   SFRSYM    DATA     BYTE      IAP_CONTR
      000000F9H   SFRSYM    DATA     BYTE      LINICR
      0000008EH   SFRSYM    DATA     BYTE      AUXR
      000000AFH   SFRSYM    DATA     BYTE      IE2
      00000088H   SFRSYM    DATA     BYTE      TCON
      00000089H   SFRSYM    DATA     BYTE      TMOD
      00000098H   SFRSYM    DATA     BYTE      SCON
      000000F1H   SFRSYM    DATA     BYTE      CANICR
      00000087H   SFRSYM    DATA     BYTE      PCON
      000000BCH   SFRSYM    DATA     BYTE      ADC_CONTR
      000000E7H   SFRSYM    DATA     BYTE      CMPCR2
      000000E6H   SFRSYM    DATA     BYTE      CMPCR1
      000000DEH   SFRSYM    DATA     BYTE      ADCCFG
      000000B8H   SFRSYM    DATA     BYTE      IP
      0000008FH   SFRSYM    DATA     BYTE      INTCLKO
      000000EEH   SFRSYM    DATA     BYTE      IP3H
      000000B6H   SFRSYM    DATA     BYTE      IP2H
      000000A8H   SFRSYM    DATA     BYTE      IE
      000000BBH   SFRSYM    DATA     BYTE      P_SW3
      000000BAH   SFRSYM    DATA     BYTE      P_SW2
      000000A2H   SFRSYM    DATA     BYTE      P_SW1
      000000CEH   SFRSYM    DATA     BYTE      SPCTL
      000000F8H   SFRSYM    DATA     BYTE      P7
      000000E8H   SFRSYM    DATA     BYTE      P6
      000000C8H   SFRSYM    DATA     BYTE      P5
      000000C0H   SFRSYM    DATA     BYTE      P4
      000000B0H   SFRSYM    DATA     BYTE      P3
      000000A0H   SFRSYM    DATA     BYTE      P2
      00000090H   SFRSYM    DATA     BYTE      P1
      00000080H   SFRSYM    DATA     BYTE      P0
      00000080H.4 SFRSYM    DATA     BIT       MOTOR_BIN2
      00000080H.2 SFRSYM    DATA     BIT       MOTOR_AIN2
      00000080H.3 SFRSYM    DATA     BIT       MOTOR_BIN1

      00FF298DH   BLOCK     CODE     ---       LVL=0
      00FF298DH   LINE      CODE     ---       #3
      00FF298DH   LINE      CODE     ---       #5
      00FF2990H   LINE      CODE     ---       #6
      ---         BLOCKEND  ---      ---       LVL=0

      00FF297BH   BLOCK     CODE     ---       LVL=0
      00FF297BH   LINE      CODE     ---       #9
      00FF297BH   LINE      CODE     ---       #11
      00FF297DH   LINE      CODE     ---       #12
      00FF297FH   LINE      CODE     ---       #14
      00FF2981H   LINE      CODE     ---       #15
      00FF2983H   LINE      CODE     ---       #16
      ---         BLOCKEND  ---      ---       LVL=0

      00FF2984H   BLOCK     CODE     ---       LVL=0
      00FF2984H   LINE      CODE     ---       #18
      00FF2984H   LINE      CODE     ---       #20
      00FF2986H   LINE      CODE     ---       #21
      00FF2988H   LINE      CODE     ---       #23
      00FF298AH   LINE      CODE     ---       #24
      00FF298CH   LINE      CODE     ---       #25
      ---         BLOCKEND  ---      ---       LVL=0

      00FF278FH   BLOCK     CODE     ---       LVL=0
      WR6         REGSYM    ---      INT       motor1
L251 LINKER/LOCATER V4.66.93.0                                                        07/30/2023  00:57:28  PAGE 38


      WR4         REGSYM    ---      INT       motor2
      00FF278FH   LINE      CODE     ---       #33
      00FF278FH   LINE      CODE     ---       #35
      00FF2795H   LINE      CODE     ---       #37
      00FF2797H   LINE      CODE     ---       #38
      00FF2799H   LINE      CODE     ---       #39
      00FF279BH   LINE      CODE     ---       #42
      00FF279DH   LINE      CODE     ---       #43
      00FF279FH   LINE      CODE     ---       #44
      00FF279FH   LINE      CODE     ---       #46
      00FF27A5H   LINE      CODE     ---       #48
      00FF27A7H   LINE      CODE     ---       #49
      00FF27A9H   LINE      CODE     ---       #50
      00FF27AAH   LINE      CODE     ---       #53
      00FF27ACH   LINE      CODE     ---       #54
      00FF27AEH   LINE      CODE     ---       #55
      00FF27AEH   LINE      CODE     ---       #56
      ---         BLOCKEND  ---      ---       LVL=0

      ---         MODULE    ---      ---       ADC
      00FF272CH   PUBLIC    CODE     ---       ADC_Readchannel_1
      00FF274DH   PUBLIC    CODE     ---       ADC_Readchannel_2
      00FF27CDH   PUBLIC    CODE     ---       ADC_Readchannel_3
      00FF26BDH   PUBLIC    CODE     ---       ADC_Read
      00FF287FH   PUBLIC    CODE     ---       ADC_Init
      00000109H   PUBLIC    EDATA    BYTE      ?ADC_Read?BYTE
      000000D0H   SFRSYM    DATA     BYTE      PSW
      0000009DH   SFRSYM    DATA     BYTE      IRCBAND
      00000097H   SFRSYM    DATA     BYTE      AUXR2
      000000EFH   SFRSYM    DATA     BYTE      AUXINTIF
      000000FDH   SFRSYM    DATA     BYTE      S4CON
      000000ACH   SFRSYM    DATA     BYTE      S3CON
      0000009AH   SFRSYM    DATA     BYTE      S2CON
      000000B7H   SFRSYM    DATA     BYTE      IPH
      000000CDH   SFRSYM    DATA     BYTE      SPSTAT
      000000BEH   SFRSYM    DATA     BYTE      ADC_RESL
      000000DDH   SFRSYM    DATA     BYTE      T4T3M
      000000C1H   SFRSYM    DATA     BYTE      WDT_CONTR
      000000DFH   SFRSYM    DATA     BYTE      IP3
      000000F4H   SFRSYM    DATA     BYTE      USBCON
      000000B5H   SFRSYM    DATA     BYTE      IP2
      000000FFH   SFRSYM    DATA     BYTE      RSTCFG
      000000BCH.5 SFRSYM    DATA     BIT       ADC_FLAG
      000000C7H   SFRSYM    DATA     BYTE      IAP_CONTR
      000000F9H   SFRSYM    DATA     BYTE      LINICR
      0000008EH   SFRSYM    DATA     BYTE      AUXR
      000000AFH   SFRSYM    DATA     BYTE      IE2
      000000BCH.6 SFRSYM    DATA     BIT       ADC_START
      000000BCH.7 SFRSYM    DATA     BIT       ADC_POWER
      00000088H   SFRSYM    DATA     BYTE      TCON
      00000089H   SFRSYM    DATA     BYTE      TMOD
      00000098H   SFRSYM    DATA     BYTE      SCON
      000000F1H   SFRSYM    DATA     BYTE      CANICR
      00000087H   SFRSYM    DATA     BYTE      PCON
      000000BCH   SFRSYM    DATA     BYTE      ADC_CONTR
      000000E7H   SFRSYM    DATA     BYTE      CMPCR2
      000000E6H   SFRSYM    DATA     BYTE      CMPCR1
      000000DEH   SFRSYM    DATA     BYTE      ADCCFG
      000000B8H   SFRSYM    DATA     BYTE      IP
      0000008FH   SFRSYM    DATA     BYTE      INTCLKO
      000000EEH   SFRSYM    DATA     BYTE      IP3H
      000000B6H   SFRSYM    DATA     BYTE      IP2H
      000000BDH   SFRSYM    DATA     BYTE      ADC_RES
      000000A8H   SFRSYM    DATA     BYTE      IE
      000000BBH   SFRSYM    DATA     BYTE      P_SW3
L251 LINKER/LOCATER V4.66.93.0                                                        07/30/2023  00:57:28  PAGE 39


      000000BAH   SFRSYM    DATA     BYTE      P_SW2
      000000A2H   SFRSYM    DATA     BYTE      P_SW1
      000000CEH   SFRSYM    DATA     BYTE      SPCTL
      000000F8H   SFRSYM    DATA     BYTE      P7
      000000E8H   SFRSYM    DATA     BYTE      P6
      000000C8H   SFRSYM    DATA     BYTE      P5
      000000C0H   SFRSYM    DATA     BYTE      P4
      000000B0H   SFRSYM    DATA     BYTE      P3
      000000A0H   SFRSYM    DATA     BYTE      P2
      00000090H   SFRSYM    DATA     BYTE      P1
      00000080H   SFRSYM    DATA     BYTE      P0

      00FF287FH   BLOCK     CODE     ---       LVL=0
      00FF287FH   LINE      CODE     ---       #3
      00FF287FH   LINE      CODE     ---       #5
      00FF288CH   LINE      CODE     ---       #6
      00FF288FH   LINE      CODE     ---       #7
      00FF2892H   LINE      CODE     ---       #8
      00FF2895H   LINE      CODE     ---       #9
      ---         BLOCKEND  ---      ---       LVL=0

      00FF26BDH   BLOCK     CODE     ---       LVL=0
      REG=7       REGSYM    ---      ---       channel1
      00FF26BFH   BLOCK     CODE     NEAR LAB  LVL=1
      WR6         REGSYM    ---      WORD      value
      ---         BLOCKEND  ---      ---       LVL=1
      00FF26BDH   LINE      CODE     ---       #11
      00FF26BFH   LINE      CODE     ---       #12
      00FF26BFH   LINE      CODE     ---       #13
      00FF26BFH   LINE      CODE     ---       #14
      00FF26BFH   LINE      CODE     ---       #16
      00FF26C2H   LINE      CODE     ---       #17
      00FF26C3H   LINE      CODE     ---       #18
      00FF26C4H   LINE      CODE     ---       #20
      00FF26C8H   LINE      CODE     ---       #21
      00FF26CBH   LINE      CODE     ---       #23
      00FF26D7H   LINE      CODE     ---       #25
      00FF26D7H   LINE      CODE     ---       #26
      00FF26D7H   LINE      CODE     ---       #28
      00FF26D7H   LINE      CODE     ---       #30
      00FF26DFH   LINE      CODE     ---       #32
      00FF26E2H   LINE      CODE     ---       #34
      00FF26E2H   LINE      CODE     ---       #35
      00FF26E2H   LINE      CODE     ---       #37
      00FF26E2H   LINE      CODE     ---       #41
      00FF26E2H   LINE      CODE     ---       #43
      00FF26E2H   LINE      CODE     ---       #47
      00FF26E2H   LINE      CODE     ---       #48
      00FF26E2H   LINE      CODE     ---       #49
      ---         BLOCKEND  ---      ---       LVL=0

      00FF272CH   BLOCK     CODE     ---       LVL=0
      WR6         REGSYM    ---      WORD      value
      00FF272CH   LINE      CODE     ---       #51
      00FF272CH   LINE      CODE     ---       #52
      00FF272CH   LINE      CODE     ---       #53
      00FF272CH   LINE      CODE     ---       #55
      00FF2734H   LINE      CODE     ---       #58
      00FF2737H   LINE      CODE     ---       #59
      00FF2738H   LINE      CODE     ---       #60
      00FF2739H   LINE      CODE     ---       #62
      00FF273DH   LINE      CODE     ---       #63
      00FF2740H   LINE      CODE     ---       #65
      00FF274CH   LINE      CODE     ---       #66
      00FF274CH   LINE      CODE     ---       #67
L251 LINKER/LOCATER V4.66.93.0                                                        07/30/2023  00:57:28  PAGE 40


      ---         BLOCKEND  ---      ---       LVL=0

      00FF274DH   BLOCK     CODE     ---       LVL=0
      WR6         REGSYM    ---      WORD      value
      00FF274DH   LINE      CODE     ---       #69
      00FF274DH   LINE      CODE     ---       #70
      00FF274DH   LINE      CODE     ---       #71
      00FF274DH   LINE      CODE     ---       #73
      00FF2755H   LINE      CODE     ---       #75
      00FF2758H   LINE      CODE     ---       #76
      00FF2759H   LINE      CODE     ---       #77
      00FF275AH   LINE      CODE     ---       #79
      00FF275EH   LINE      CODE     ---       #80
      00FF2761H   LINE      CODE     ---       #82
      00FF276DH   LINE      CODE     ---       #83
      00FF276DH   LINE      CODE     ---       #84
      ---         BLOCKEND  ---      ---       LVL=0

      00FF27CDH   BLOCK     CODE     ---       LVL=0
      WR6         REGSYM    ---      WORD      value
      00FF27CDH   LINE      CODE     ---       #86
      00FF27CDH   LINE      CODE     ---       #87
      00FF27CDH   LINE      CODE     ---       #88
      00FF27CDH   LINE      CODE     ---       #90
      00FF27D0H   LINE      CODE     ---       #92
      00FF27D3H   LINE      CODE     ---       #93
      00FF27D4H   LINE      CODE     ---       #94
      00FF27D5H   LINE      CODE     ---       #96
      00FF27D9H   LINE      CODE     ---       #97
      00FF27DCH   LINE      CODE     ---       #99
      00FF27E8H   LINE      CODE     ---       #100
      00FF27E8H   LINE      CODE     ---       #101
      ---         BLOCKEND  ---      ---       LVL=0

      ---         MODULE    ---      ---       LineFollower
      00FF17BCH   PUBLIC    CODE     ---       ReadLine
      0000011BH   PUBLIC    EDATA    BYTE      read_value
      000000D0H   SFRSYM    DATA     BYTE      PSW
      0000009DH   SFRSYM    DATA     BYTE      IRCBAND
      00000097H   SFRSYM    DATA     BYTE      AUXR2
      000000C8H.2 SFRSYM    DATA     BIT       det_R
      000000EFH   SFRSYM    DATA     BYTE      AUXINTIF
      00000080H.6 SFRSYM    DATA     BIT       det_L
      000000FDH   SFRSYM    DATA     BYTE      S4CON
      000000ACH   SFRSYM    DATA     BYTE      S3CON
      0000009AH   SFRSYM    DATA     BYTE      S2CON
      000000B7H   SFRSYM    DATA     BYTE      IPH
      000000CDH   SFRSYM    DATA     BYTE      SPSTAT
      00000080H.7 SFRSYM    DATA     BIT       det_C
      000000DDH   SFRSYM    DATA     BYTE      T4T3M
      000000C1H   SFRSYM    DATA     BYTE      WDT_CONTR
      000000DFH   SFRSYM    DATA     BYTE      IP3
      000000F4H   SFRSYM    DATA     BYTE      USBCON
      000000B5H   SFRSYM    DATA     BYTE      IP2
      000000FFH   SFRSYM    DATA     BYTE      RSTCFG
      000000C7H   SFRSYM    DATA     BYTE      IAP_CONTR
      000000F9H   SFRSYM    DATA     BYTE      LINICR
      0000008EH   SFRSYM    DATA     BYTE      AUXR
      000000AFH   SFRSYM    DATA     BYTE      IE2
      00000088H   SFRSYM    DATA     BYTE      TCON
      00000089H   SFRSYM    DATA     BYTE      TMOD
      00000098H   SFRSYM    DATA     BYTE      SCON
      000000C8H.3 SFRSYM    DATA     BIT       det_CR
      000000F1H   SFRSYM    DATA     BYTE      CANICR
      00000087H   SFRSYM    DATA     BYTE      PCON
L251 LINKER/LOCATER V4.66.93.0                                                        07/30/2023  00:57:28  PAGE 41


      000000BCH   SFRSYM    DATA     BYTE      ADC_CONTR
      00000080H.5 SFRSYM    DATA     BIT       det_CL
      000000E7H   SFRSYM    DATA     BYTE      CMPCR2
      000000E6H   SFRSYM    DATA     BYTE      CMPCR1
      000000DEH   SFRSYM    DATA     BYTE      ADCCFG
      000000B8H   SFRSYM    DATA     BYTE      IP
      0000008FH   SFRSYM    DATA     BYTE      INTCLKO
      000000EEH   SFRSYM    DATA     BYTE      IP3H
      000000B6H   SFRSYM    DATA     BYTE      IP2H
      000000A8H   SFRSYM    DATA     BYTE      IE
      000000BBH   SFRSYM    DATA     BYTE      P_SW3
      000000BAH   SFRSYM    DATA     BYTE      P_SW2
      000000A2H   SFRSYM    DATA     BYTE      P_SW1
      000000CEH   SFRSYM    DATA     BYTE      SPCTL
      000000F8H   SFRSYM    DATA     BYTE      P7
      000000E8H   SFRSYM    DATA     BYTE      P6
      000000C8H   SFRSYM    DATA     BYTE      P5
      000000C0H   SFRSYM    DATA     BYTE      P4
      000000B0H   SFRSYM    DATA     BYTE      P3
      000000A0H   SFRSYM    DATA     BYTE      P2
      00000090H   SFRSYM    DATA     BYTE      P1
      00000080H   SFRSYM    DATA     BYTE      P0

      00FF17BCH   BLOCK     CODE     ---       LVL=0
      R6          REGSYM    ---      BYTE      read_value
      R7          REGSYM    ---      CHAR      return_value
      00FF17BCH   LINE      CODE     ---       #4
      00FF17BCH   LINE      CODE     ---       #5
      00FF17BCH   LINE      CODE     ---       #6
      00FF17BCH   LINE      CODE     ---       #7
      00FF17BEH   LINE      CODE     ---       #9
      00FF17C5H   LINE      CODE     ---       #10
      00FF17CAH   LINE      CODE     ---       #12
      00FF17CCH   LINE      CODE     ---       #14
      00FF17D3H   LINE      CODE     ---       #15
      00FF17D8H   LINE      CODE     ---       #17
      00FF17DBH   LINE      CODE     ---       #19
      00FF17E2H   LINE      CODE     ---       #20
      00FF17E7H   LINE      CODE     ---       #22
      00FF17EAH   LINE      CODE     ---       #24
      00FF17F1H   LINE      CODE     ---       #25
      00FF17F6H   LINE      CODE     ---       #27
      00FF17F9H   LINE      CODE     ---       #29
      00FF1800H   LINE      CODE     ---       #30
      00FF1805H   LINE      CODE     ---       #32
      00FF1808H   LINE      CODE     ---       #34
      00FF187AH   LINE      CODE     ---       #36
      00FF187AH   LINE      CODE     ---       #37
      00FF187CH   LINE      CODE     ---       #38
      00FF187EH   LINE      CODE     ---       #39
      00FF187EH   LINE      CODE     ---       #40
      00FF187EH   LINE      CODE     ---       #41
      00FF1880H   LINE      CODE     ---       #42
      00FF1880H   LINE      CODE     ---       #43
      00FF1880H   LINE      CODE     ---       #44
      00FF1882H   LINE      CODE     ---       #45
      00FF1882H   LINE      CODE     ---       #46
      00FF1885H   LINE      CODE     ---       #47
      00FF1887H   LINE      CODE     ---       #48
      00FF1887H   LINE      CODE     ---       #49
      00FF188AH   LINE      CODE     ---       #50
      00FF188CH   LINE      CODE     ---       #51
      00FF188CH   LINE      CODE     ---       #52
      00FF188CH   LINE      CODE     ---       #53
      00FF188EH   LINE      CODE     ---       #54
L251 LINKER/LOCATER V4.66.93.0                                                        07/30/2023  00:57:28  PAGE 42


      00FF188EH   LINE      CODE     ---       #55
      00FF188EH   LINE      CODE     ---       #56
      00FF1890H   LINE      CODE     ---       #57
      00FF1890H   LINE      CODE     ---       #58
      00FF1893H   LINE      CODE     ---       #59
      00FF1895H   LINE      CODE     ---       #60
      00FF1895H   LINE      CODE     ---       #61
      00FF1898H   LINE      CODE     ---       #62
      00FF189AH   LINE      CODE     ---       #63
      00FF189AH   LINE      CODE     ---       #64
      00FF189DH   LINE      CODE     ---       #65
      00FF189FH   LINE      CODE     ---       #66
      00FF189FH   LINE      CODE     ---       #67
      00FF18A2H   LINE      CODE     ---       #68
      00FF18A2H   LINE      CODE     ---       #69
      00FF18A2H   LINE      CODE     ---       #71
      00FF18A4H   LINE      CODE     ---       #72
      ---         BLOCKEND  ---      ---       LVL=0

      ---         MODULE    ---      ---       MPU6050
      00FF28ACH   PUBLIC    CODE     ---       I2C_RecvACK
      00FF295DH   PUBLIC    CODE     ---       Delay2us
      00FF27E9H   PUBLIC    CODE     ---       Single_WriteI2C
      00FF2197H   PUBLIC    CODE     ---       Read_MPU6050
      00FF2820H   PUBLIC    CODE     ---       I2C_Start
      00FF276EH   PUBLIC    CODE     ---       Delay50ms
      00FF2709H   PUBLIC    CODE     ---       I2C_SendByte
      00FF2934H   PUBLIC    CODE     ---       I2C_Stop
      00FF26E3H   PUBLIC    CODE     ---       I2C_RecvByte
      00FF24A9H   PUBLIC    CODE     ---       InitMPU6050
      000000D0H   SFRSYM    DATA     BYTE      PSW
      0000009DH   SFRSYM    DATA     BYTE      IRCBAND
      00000097H   SFRSYM    DATA     BYTE      AUXR2
      000000EFH   SFRSYM    DATA     BYTE      AUXINTIF
      000000FDH   SFRSYM    DATA     BYTE      S4CON
      000000ACH   SFRSYM    DATA     BYTE      S3CON
      0000009AH   SFRSYM    DATA     BYTE      S2CON
      000000A0H   SFRSYM    ---      BIT       SCL
      000000B7H   SFRSYM    DATA     BYTE      IPH
      000000CDH   SFRSYM    DATA     BYTE      SPSTAT
      000000DDH   SFRSYM    DATA     BYTE      T4T3M
      000000C1H   SFRSYM    DATA     BYTE      WDT_CONTR
      000000A0H.2 SFRSYM    ---      BIT       SDA
      000000DFH   SFRSYM    DATA     BYTE      IP3
      000000F4H   SFRSYM    DATA     BYTE      USBCON
      000000B5H   SFRSYM    DATA     BYTE      IP2
      000000FFH   SFRSYM    DATA     BYTE      RSTCFG
      000000C7H   SFRSYM    DATA     BYTE      IAP_CONTR
      000000F9H   SFRSYM    DATA     BYTE      LINICR
      0000008EH   SFRSYM    DATA     BYTE      AUXR
      000000AFH   SFRSYM    DATA     BYTE      IE2
      00000088H   SFRSYM    DATA     BYTE      TCON
      00000089H   SFRSYM    DATA     BYTE      TMOD
      00000098H   SFRSYM    DATA     BYTE      SCON
      000000F1H   SFRSYM    DATA     BYTE      CANICR
      00000087H   SFRSYM    DATA     BYTE      PCON
      000000BCH   SFRSYM    DATA     BYTE      ADC_CONTR
      000000E7H   SFRSYM    DATA     BYTE      CMPCR2
      000000E6H   SFRSYM    DATA     BYTE      CMPCR1
      000000D0H.7 SFRSYM    DATA     BIT       CY
      000000DEH   SFRSYM    DATA     BYTE      ADCCFG
      000000B8H   SFRSYM    DATA     BYTE      IP
      0000008FH   SFRSYM    DATA     BYTE      INTCLKO
      000000EEH   SFRSYM    DATA     BYTE      IP3H
      000000B6H   SFRSYM    DATA     BYTE      IP2H
L251 LINKER/LOCATER V4.66.93.0                                                        07/30/2023  00:57:28  PAGE 43


      000000A8H   SFRSYM    DATA     BYTE      IE
      000000BBH   SFRSYM    DATA     BYTE      P_SW3
      000000BAH   SFRSYM    DATA     BYTE      P_SW2
      000000A2H   SFRSYM    DATA     BYTE      P_SW1
      000000CEH   SFRSYM    DATA     BYTE      SPCTL
      000000F8H   SFRSYM    DATA     BYTE      P7
      000000E8H   SFRSYM    DATA     BYTE      P6
      000000C8H   SFRSYM    DATA     BYTE      P5
      000000C0H   SFRSYM    DATA     BYTE      P4
      000000B0H   SFRSYM    DATA     BYTE      P3
      000000A0H   SFRSYM    DATA     BYTE      P2
      00000090H   SFRSYM    DATA     BYTE      P1
      00000080H   SFRSYM    DATA     BYTE      P0

      00FF295DH   BLOCK     CODE     ---       LVL=0
      R10         REGSYM    ---      BYTE      i
      00FF295DH   LINE      CODE     ---       #25
      00FF295DH   LINE      CODE     ---       #26
      00FF295DH   LINE      CODE     ---       #28
      00FF2960H   LINE      CODE     ---       #29
      00FF2967H   LINE      CODE     ---       #30
      ---         BLOCKEND  ---      ---       LVL=0

      00FF276EH   BLOCK     CODE     ---       LVL=0
      R10         REGSYM    ---      BYTE      i
      R7          REGSYM    ---      BYTE      j
      R6          REGSYM    ---      BYTE      k
      00FF276EH   LINE      CODE     ---       #32
      00FF276EH   LINE      CODE     ---       #33
      00FF276EH   LINE      CODE     ---       #36
      00FF276FH   LINE      CODE     ---       #37
      00FF2770H   LINE      CODE     ---       #38
      00FF2773H   LINE      CODE     ---       #39
      00FF2776H   LINE      CODE     ---       #40
      00FF2779H   LINE      CODE     ---       #41
      00FF2779H   LINE      CODE     ---       #43
      00FF2779H   LINE      CODE     ---       #45
      00FF2780H   LINE      CODE     ---       #46
      00FF2787H   LINE      CODE     ---       #47
      00FF278EH   LINE      CODE     ---       #48
      ---         BLOCKEND  ---      ---       LVL=0

      00FF2820H   BLOCK     CODE     ---       LVL=0
      00FF2820H   LINE      CODE     ---       #55
      00FF2820H   LINE      CODE     ---       #57
      00FF2823H   LINE      CODE     ---       #58
      00FF2826H   LINE      CODE     ---       #59
      00FF2828H   LINE      CODE     ---       #60
      00FF282AH   LINE      CODE     ---       #61
      00FF282DH   LINE      CODE     ---       #62
      00FF2830H   LINE      CODE     ---       #63
      00FF2832H   LINE      CODE     ---       #64
      00FF2835H   LINE      CODE     ---       #65
      00FF2837H   LINE      CODE     ---       #66
      ---         BLOCKEND  ---      ---       LVL=0

      00FF2934H   BLOCK     CODE     ---       LVL=0
      00FF2934H   LINE      CODE     ---       #72
      00FF2934H   LINE      CODE     ---       #74
      00FF2937H   LINE      CODE     ---       #75
      00FF2939H   LINE      CODE     ---       #76
      00FF293BH   LINE      CODE     ---       #77
      00FF293EH   LINE      CODE     ---       #78
      00FF2940H   LINE      CODE     ---       #79
      ---         BLOCKEND  ---      ---       LVL=0
L251 LINKER/LOCATER V4.66.93.0                                                        07/30/2023  00:57:28  PAGE 44



      00FF28ACH   BLOCK     CODE     ---       LVL=0
      00FF28ACH   LINE      CODE     ---       #85
      00FF28ACH   LINE      CODE     ---       #87
      00FF28AEH   LINE      CODE     ---       #88
      00FF28B1H   LINE      CODE     ---       #89
      00FF28B3H   LINE      CODE     ---       #90
      00FF28B6H   LINE      CODE     ---       #91
      00FF28BAH   LINE      CODE     ---       #92
      00FF28BCH   LINE      CODE     ---       #93
      00FF28BFH   LINE      CODE     ---       #94
      00FF28C1H   LINE      CODE     ---       #95
      ---         BLOCKEND  ---      ---       LVL=0

      00FF2709H   BLOCK     CODE     ---       LVL=0
      R15         REGSYM    ---      BYTE      dat
      00FF270DH   BLOCK     CODE     NEAR LAB  LVL=1
      R14         REGSYM    ---      BYTE      i
      ---         BLOCKEND  ---      ---       LVL=1
      00FF2709H   LINE      CODE     ---       #100
      00FF270DH   LINE      CODE     ---       #101
      00FF270DH   LINE      CODE     ---       #103
      00FF270FH   LINE      CODE     ---       #105
      00FF2711H   LINE      CODE     ---       #106
      00FF2715H   LINE      CODE     ---       #107
      00FF2717H   LINE      CODE     ---       #108
      00FF271AH   LINE      CODE     ---       #109
      00FF271CH   LINE      CODE     ---       #110
      00FF271FH   LINE      CODE     ---       #111
      00FF2726H   LINE      CODE     ---       #112
      00FF2729H   LINE      CODE     ---       #113
      ---         BLOCKEND  ---      ---       LVL=0

      00FF26E3H   BLOCK     CODE     ---       LVL=0
      00FF26E5H   BLOCK     CODE     NEAR LAB  LVL=1
      R14         REGSYM    ---      BYTE      i
      R15         REGSYM    ---      BYTE      dat
      ---         BLOCKEND  ---      ---       LVL=1
      00FF26E3H   LINE      CODE     ---       #118
      00FF26E5H   LINE      CODE     ---       #119
      00FF26E5H   LINE      CODE     ---       #121
      00FF26E7H   LINE      CODE     ---       #122
      00FF26E9H   LINE      CODE     ---       #123
      00FF26EBH   LINE      CODE     ---       #125
      00FF26EDH   LINE      CODE     ---       #126
      00FF26EFH   LINE      CODE     ---       #127
      00FF26F2H   LINE      CODE     ---       #128
      00FF26F8H   LINE      CODE     ---       #129
      00FF26FAH   LINE      CODE     ---       #130
      00FF26FDH   LINE      CODE     ---       #131
      00FF2704H   LINE      CODE     ---       #132
      00FF2706H   LINE      CODE     ---       #133
      ---         BLOCKEND  ---      ---       LVL=0

      00FF27E9H   BLOCK     CODE     ---       LVL=0
      R14         REGSYM    ---      BYTE      REG_Address
      R15         REGSYM    ---      BYTE      REG_data
      00FF27E9H   LINE      CODE     ---       #138
      00FF27EDH   LINE      CODE     ---       #140
      00FF27F0H   LINE      CODE     ---       #141
      00FF27F5H   LINE      CODE     ---       #142
      00FF27FAH   LINE      CODE     ---       #143
      00FF27FFH   LINE      CODE     ---       #144
      00FF2802H   LINE      CODE     ---       #145
      ---         BLOCKEND  ---      ---       LVL=0
L251 LINKER/LOCATER V4.66.93.0                                                        07/30/2023  00:57:28  PAGE 45



      00FF24A9H   BLOCK     CODE     ---       LVL=0
      00FF24A9H   LINE      CODE     ---       #174
      00FF24A9H   LINE      CODE     ---       #177
      00FF24ACH   LINE      CODE     ---       #178
      00FF24AFH   LINE      CODE     ---       #179
      00FF24B2H   LINE      CODE     ---       #180
      00FF24B5H   LINE      CODE     ---       #182
      00FF24BDH   LINE      CODE     ---       #183
      00FF24C0H   LINE      CODE     ---       #184
      00FF24C7H   LINE      CODE     ---       #185
      00FF24CFH   LINE      CODE     ---       #186
      00FF24D7H   LINE      CODE     ---       #187
      00FF24DFH   LINE      CODE     ---       #188
      ---         BLOCKEND  ---      ---       LVL=0

      00FF2197H   BLOCK     CODE     ---       LVL=0
      REG=3       REGSYM    ---      ---       buf
      00FF219BH   BLOCK     CODE     NEAR LAB  LVL=1
      000000C0H   SYMBOL    EDATA    BYTE      i
      ---         BLOCKEND  ---      ---       LVL=1
      00FF2197H   LINE      CODE     ---       #205
      00FF219BH   LINE      CODE     ---       #206
      00FF219BH   LINE      CODE     ---       #209
      00FF219EH   LINE      CODE     ---       #210
      00FF21A3H   LINE      CODE     ---       #211
      00FF21A8H   LINE      CODE     ---       #212
      00FF21ABH   LINE      CODE     ---       #213
      00FF21B0H   LINE      CODE     ---       #214
      00FF21B5H   LINE      CODE     ---       #216
      00FF21C5H   LINE      CODE     ---       #217
      00FF21C7H   LINE      CODE     ---       #218
      00FF21C9H   LINE      CODE     ---       #219
      00FF21CCH   LINE      CODE     ---       #220
      00FF21CEH   LINE      CODE     ---       #221
      00FF21D1H   LINE      CODE     ---       #222
      00FF21E3H   LINE      CODE     ---       #223
      00FF21F3H   LINE      CODE     ---       #224
      00FF21F5H   LINE      CODE     ---       #225
      00FF21F7H   LINE      CODE     ---       #226
      00FF21FAH   LINE      CODE     ---       #227
      00FF21FCH   LINE      CODE     ---       #228
      00FF21FFH   LINE      CODE     ---       #229
      00FF2202H   LINE      CODE     ---       #230
      ---         BLOCKEND  ---      ---       LVL=0

      ---         MODULE    ---      ---       ?C?FPADD
      00FF002CH   PUBLIC    CODE     ---       ?C?FPADD
      00FF0029H   PUBLIC    CODE     ---       ?C?FPSUB

      ---         MODULE    ---      ---       ?C?FPMUL
      00FF00E4H   PUBLIC    CODE     ---       ?C?FPMUL

      ---         MODULE    ---      ---       ?C?FPDIV
      00FF0184H   PUBLIC    CODE     ---       ?C?FPDIV

      ---         MODULE    ---      ---       ?C?FPNEG
      00FF0205H   PUBLIC    CODE     ---       ?C?FPNEG

      ---         MODULE    ---      ---       ?C?FCAST
      00FF021DH   PUBLIC    CODE     NEAR LAB  ?C?FCASTC
      00FF0218H   PUBLIC    CODE     NEAR LAB  ?C?FCASTI
      00FF0213H   PUBLIC    CODE     NEAR LAB  ?C?FCASTL

      ---         MODULE    ---      ---       ?C?CASTF
L251 LINKER/LOCATER V4.66.93.0                                                        07/30/2023  00:57:28  PAGE 46


      00FF0250H   PUBLIC    CODE     NEAR LAB  ?C?CASTF

      ---         MODULE    ---      ---       SPRINTF
      000000E8H   PUBLIC    EDATA    ---       ?SPRINTF?BYTE
      00FF028DH   PUBLIC    CODE     NEAR LAB  SPRINTF

      ---         MODULE    ---      ---       SQRT?_
      00FF02ADH   PUBLIC    CODE     ---       SQRT?_

      ---         MODULE    ---      ---       ASIN?_
      00FF033DH   PUBLIC    CODE     ---       ASIN?_

      ---         MODULE    ---      ---       atan2
      00FF23ECH   PUBLIC    CODE     ---       atan2?_

      ---         MODULE    ---      ---       ?C?FPGETOPN
      00FF035DH   PUBLIC    CODE     ---       ?C?FPGETOPN2
      00FF039AH   PUBLIC    CODE     ---       ?C?FPNANRESULT
      00FF03A2H   PUBLIC    CODE     ---       ?C?FPOVERFLOW
      00FF0376H   PUBLIC    CODE     ---       ?C?FPRESULT
      00FF038CH   PUBLIC    CODE     ---       ?C?FPRESULT2
      00FF039FH   PUBLIC    CODE     ---       ?C?FPUNDERFLOW

      ---         MODULE    ---      ---       ?C?FPCMP
      00FF03B0H   PUBLIC    CODE     ---       ?C?FPCMP
      00FF03AEH   PUBLIC    CODE     ---       ?C?FPCMP3

      ---         MODULE    ---      ---       ?C?PRNFMT
      00FF0421H   PUBLIC    CODE     ---       ?C?PRNFMT

      ---         MODULE    ---      ---       ATAN?_
      00FF0850H   PUBLIC    CODE     ---       ATAN?_

      ---         MODULE    ---      ---       ?C?FPCONVERT
      00FF0930H   PUBLIC    CODE     ---       ?C?FPCONVERT
      00FF09E8H   PUBLIC    CODE     ---       ?C?FPROUND

      ---         MODULE    ---      ---       ?C?FPSERIES
      00FF0A2BH   PUBLIC    CODE     ---       ?C?FP2SERIES
      00FF0A34H   PUBLIC    CODE     ---       ?C?FPSERIES

      ---         MODULE    ---      ---       ?C?FTNPWR
      00FF0A88H   PUBLIC    CODE     ---       ?C?FTNPWR

      ---         MODULE    ---      ---       ?C_START
      00FF0000H   PUBLIC    CODE     ---       ?C?STARTUP
      00FF0000H   PUBLIC    CODE     ---       ?C_STARTUP

      ---         MODULE    ---      ---       ?C?INITEDATA
      00FF2048H   PUBLIC    CODE     ---       ?C?INITEDATA

      ---         MODULE    ---      ---       ?C?INITHDATA
      00FF2071H   PUBLIC    CODE     ---       ?C?INITHDATA

      ---         MODULE    ---      ---       ?C?LIMUL
      00FF0ABFH   PUBLIC    CODE     ---       ?C?LIMUL

      ---         MODULE    ---      ---       ?C?ULDIV
      00FF0ACAH   PUBLIC    CODE     NEAR LAB  ?C?ULDIV
      00FF0AC8H   PUBLIC    CODE     NEAR LAB  ?C?ULIDIV

      ---         MODULE    ---      ---       ?C?INITEDATA_END
      00FF2A75H   PUBLIC    HCONST   WORD      ?C?INITEDATA_END

      ---         MODULE    ---      ---       ?C?INITHDATA_END
L251 LINKER/LOCATER V4.66.93.0                                                        07/30/2023  00:57:28  PAGE 47


      00FF2B9BH   PUBLIC    HCONST   WORD      ?C?INITHDATA_END



*** WARNING L46: SFR SYMBOL HAS DIFFERENT VALUES
    SYMBOL:  SCL
    MODULE:  MPU6050.obj (MPU6050)
   DEFINED:  iic.obj (iic)

*** WARNING L46: SFR SYMBOL HAS DIFFERENT VALUES
    SYMBOL:  SDA
    MODULE:  MPU6050.obj (MPU6050)
   DEFINED:  iic.obj (iic)

*** WARNING L57: UNCALLED FUNCTION, IGNORED FOR OVERLAY PROCESS
    NAME:    OLED_DisPlay_Off/oled

*** WARNING L57: UNCALLED FUNCTION, IGNORED FOR OVERLAY PROCESS
    NAME:    OLED_Display_128x64/oled

*** WARNING L57: UNCALLED FUNCTION, IGNORED FOR OVERLAY PROCESS
    NAME:    OLED_DisPlay_On/oled

*** WARNING L57: UNCALLED FUNCTION, IGNORED FOR OVERLAY PROCESS
    NAME:    Meun_2_control/Meun

*** WARNING L57: UNCALLED FUNCTION, IGNORED FOR OVERLAY PROCESS
    NAME:    Meun_2_angle/Meun

*** WARNING L57: UNCALLED FUNCTION, IGNORED FOR OVERLAY PROCESS
    NAME:    Memu/Meun

*** WARNING L57: UNCALLED FUNCTION, IGNORED FOR OVERLAY PROCESS
    NAME:    Meun_2_speed/Meun

*** WARNING L57: UNCALLED FUNCTION, IGNORED FOR OVERLAY PROCESS
    NAME:    Meun_2_Pitching/Meun

*** WARNING L57: UNCALLED FUNCTION, IGNORED FOR OVERLAY PROCESS
    NAME:    rotary_encoder/Encoders

*** WARNING L57: UNCALLED FUNCTION, IGNORED FOR OVERLAY PROCESS
    NAME:    Cancel_determine/Encoders

*** WARNING L57: UNCALLED FUNCTION, IGNORED FOR OVERLAY PROCESS
    NAME:    delay/timer

*** WARNING L57: UNCALLED FUNCTION, IGNORED FOR OVERLAY PROCESS
    NAME:    Uart_String/Uart

*** WARNING L57: UNCALLED FUNCTION, IGNORED FOR OVERLAY PROCESS
    NAME:    Hall_element/iic

*** WARNING L57: UNCALLED FUNCTION, IGNORED FOR OVERLAY PROCESS
    NAME:    IIC_SendAck/iic

*** WARNING L57: UNCALLED FUNCTION, IGNORED FOR OVERLAY PROCESS
    NAME:    Motor_reverse/motor

*** WARNING L57: UNCALLED FUNCTION, IGNORED FOR OVERLAY PROCESS
    NAME:    ADC_Readchannel_1/ADC

*** WARNING L57: UNCALLED FUNCTION, IGNORED FOR OVERLAY PROCESS
    NAME:    ADC_Readchannel_2/ADC

L251 LINKER/LOCATER V4.66.93.0                                                        07/30/2023  00:57:28  PAGE 48


*** WARNING L57: UNCALLED FUNCTION, IGNORED FOR OVERLAY PROCESS
    NAME:    ADC_Readchannel_3/ADC

*** WARNING L57: UNCALLED FUNCTION, IGNORED FOR OVERLAY PROCESS
    NAME:    ADC_Read/ADC

*** WARNING L57: UNCALLED FUNCTION, IGNORED FOR OVERLAY PROCESS
    NAME:    ADC_Init/ADC

Program Size: data=24.7 edata+hdata=515 xdata=14 const=548 code=10637
L251 RUN COMPLETE.  22 WARNING(S),  0 ERROR(S)
