L251 LINKER/LOCATER V4.66.93.0                                                          07/20/2023  20:58:36  PAGE 1


L251 LINKER/LOCATER V4.66.93.0, INVOKED BY:
D:\SOFTWARE\WORKSOFTWARE\KEIL5_C251\C251\BIN\L251.EXE main.obj, oled.obj, Meun.obj, Encoders.obj, timer.obj, Uart.obj, i
>> ic.obj, pwm.obj, GPIO.obj, motor.obj, ADC.obj, LineFollower.obj TO LED CASE CLASSES (EDATA (0X0-0XFFF), HDATA (0X0-0X
>> FFF))


CPU MODE:     251 SOURCE MODE
INTR FRAME:   2 BYTES SAVED ON INTERRUPT
MEMORY MODEL: XSMALL WITH FLOATING POINT ARITHMETIC


INPUT MODULES INCLUDED:
  main.obj (main)
         COMMENT TYPE 0: C251 V5.60.0
  oled.obj (oled)
         COMMENT TYPE 0: C251 V5.60.0
  Meun.obj (Meun)
         COMMENT TYPE 0: C251 V5.60.0
  Encoders.obj (Encoders)
         COMMENT TYPE 0: C251 V5.60.0
  timer.obj (timer)
         COMMENT TYPE 0: C251 V5.60.0
  Uart.obj (Uart)
         COMMENT TYPE 0: C251 V5.60.0
  iic.obj (iic)
         COMMENT TYPE 0: C251 V5.60.0
  pwm.obj (pwm)
         COMMENT TYPE 0: C251 V5.60.0
  GPIO.obj (GPIO)
         COMMENT TYPE 0: C251 V5.60.0
  motor.obj (motor)
         COMMENT TYPE 0: C251 V5.60.0
  ADC.obj (ADC)
         COMMENT TYPE 0: C251 V5.60.0
  LineFollower.obj (LineFollower)
         COMMENT TYPE 0: C251 V5.60.0
  D:\SOFTWARE\WORKSOFTWARE\KEIL5_C251\C251\LIB\C2SFPXS.LIB (?C?FPMUL)
         COMMENT TYPE 0: A251 V4.69.6.0
  D:\SOFTWARE\WORKSOFTWARE\KEIL5_C251\C251\LIB\C2SFPXS.LIB (?C?FCAST)
         COMMENT TYPE 0: A251 V4.69.6.0
  D:\SOFTWARE\WORKSOFTWARE\KEIL5_C251\C251\LIB\C2SFPXS.LIB (?C?CASTF)
         COMMENT TYPE 0: A251 V4.69.6.0
  D:\SOFTWARE\WORKSOFTWARE\KEIL5_C251\C251\LIB\C2SFPXS.LIB (SPRINTF)
         COMMENT TYPE 0: A251 V4.69.6.0
  D:\SOFTWARE\WORKSOFTWARE\KEIL5_C251\C251\LIB\C2SFPXS.LIB (?C?FPGETOPN)
         COMMENT TYPE 0: A251 V4.69.6.0
  D:\SOFTWARE\WORKSOFTWARE\KEIL5_C251\C251\LIB\C2SFPXS.LIB (?C?PRNFMT)
         COMMENT TYPE 0: A251 V4.69.6.0
  D:\SOFTWARE\WORKSOFTWARE\KEIL5_C251\C251\LIB\C2SFPXS.LIB (?C?FPCONVERT)
         COMMENT TYPE 0: A251 V4.69.6.0
  D:\SOFTWARE\WORKSOFTWARE\KEIL5_C251\C251\LIB\C2SFPXS.LIB (?C?FPDIV)
         COMMENT TYPE 0: A251 V4.69.6.0
  D:\SOFTWARE\WORKSOFTWARE\KEIL5_C251\C251\LIB\C2SFPXS.LIB (?C?FTNPWR)
         COMMENT TYPE 0: A251 V4.69.6.0
  D:\SOFTWARE\WORKSOFTWARE\KEIL5_C251\C251\LIB\C2SXS.LIB (?C_START)
         COMMENT TYPE 0: A251 V4.69.6.0
  D:\SOFTWARE\WORKSOFTWARE\KEIL5_C251\C251\LIB\C2SXS.LIB (?C?INITEDATA)
         COMMENT TYPE 0: A251 V4.69.6.0
  D:\SOFTWARE\WORKSOFTWARE\KEIL5_C251\C251\LIB\C2SXS.LIB (?C?LIMUL)
         COMMENT TYPE 0: A251 V4.69.6.0
  D:\SOFTWARE\WORKSOFTWARE\KEIL5_C251\C251\LIB\C2SXS.LIB (?C?ULDIV)
         COMMENT TYPE 0: A251 V4.69.6.0
  D:\SOFTWARE\WORKSOFTWARE\KEIL5_C251\C251\LIB\C2SXS.LIB (?C?INITEDATA_END)
         COMMENT TYPE 0: A251 V4.69.6.0


L251 LINKER/LOCATER V4.66.93.0                                                        07/20/2023  20:58:36  PAGE 2


ACTIVE MEMORY CLASSES OF MODULE:  LED (main)

BASE        START       END         USED      MEMORY CLASS
==========================================================
000000H     000000H     000FFFH     0001A4H   EDATA
000000H     000000H     000FFFH               HDATA
000000H     FF0000H     FFFFFFH     000140H   HCONST
FF0000H     FF0000H     FFFFFFH     001DA5H   CODE
000020H.0   000020H.0   00002FH.7   000000H.7 BIT
FF0000H     FF0000H     FFFFFFH     000004H   CONST
000000H     000000H     00007FH     000008H   DATA


MEMORY MAP OF MODULE:  LED (main)


START     STOP      LENGTH    ALIGN  RELOC    MEMORY CLASS   SEGMENT NAME
=========================================================================
000000H   000007H   000008H   ---    AT..     DATA           "REG BANK 0"
000008H   000015H   00000EH   BYTE   UNIT     EDATA          ?ED?OLED_DISPLAY_STRING_5X7?OLED
000016H   000019H   000004H   BYTE   UNIT     EDATA          ?ED?OLED
00001AH   00001DH   000004H   BYTE   UNIT     EDATA          ?ED?PWM
00001EH   00001FH   000002H   BYTE   UNIT     EDATA          ?ED?OLED_DISPLAY_128X64?OLED
000020H.0 000020H.4 000000H.5 BIT    UNIT     BIT            ?BI?ENCODERS
000020H.5 000020H.5 000000H.1 BIT    UNIT     BIT            ?BI?IIC_SENDACK?IIC
000020H.6 000020H.6 000000H.1 BIT    UNIT     BIT            ?BI?IIC_WAITACK?IIC
000020H.7 000020H   000000H.1 ---    ---      **GAP**
000021H   000063H   000043H   BYTE   UNIT     EDATA          _EDATA_GROUP_
000064H   000095H   000032H   BYTE   UNIT     EDATA          ?ED?MAIN
000096H   0000A3H   00000EH   BYTE   UNIT     EDATA          ?ED?ENCODERS
0000A4H   0000A7H   000004H   BYTE   UNIT     EDATA          ?ED?ADC_READ?ADC
0000A8H   0000A9H   000002H   BYTE   UNIT     EDATA          ?ED?MEUN
0000AAH   0000ABH   000002H   BYTE   UNIT     EDATA          ?ED?TIMER
0000ACH   0000ACH   000001H   BYTE   UNIT     EDATA          ?ED?OLED_DISPLAY_5X7?OLED
0000ADH   0001ACH   000100H   BYTE   UNIT     EDATA          ?STACK
0001ADH   FEFFFFH   FEFE53H   ---    ---      **GAP**
FF0000H   FF0002H   000003H   ---    OFFS..   CODE           ?CO?start251?4
FF0003H   FF0019H   000017H   BYTE   INSEG    CODE           ?PR?GET_DATA_FROM_ROM?OLED
FF001AH   FF001AH   000001H   ---    ---      **GAP**
FF001BH   FF001DH   000003H   ---    OFFS..   CODE           ?PR?IV?3
FF001EH   FF0021H   000004H   BYTE   UNIT     CONST          ?CO?PRINTF
FF0022H   FF0022H   000001H   ---    ---      **GAP**
FF0023H   FF0025H   000003H   ---    OFFS..   CODE           ?PR?IV?4
FF0026H   FF0839H   000814H   BYTE   UNIT     CODE           ?C?LIB_CODE
FF083AH   FF0A62H   000229H   BYTE   INSEG    CODE           ?PR?OLED_16X16?OLED
FF0A63H   FF0C2DH   0001CBH   BYTE   INSEG    CODE           ?PR?MAIN_MEUN?MEUN
FF0C2EH   FF0DA2H   000175H   BYTE   INSEG    CODE           ?PR?SECOND_MENU_VALUE?ENCODERS
FF0DA3H   FF0EDFH   00013DH   BYTE   INSEG    CODE           ?PR?OLED_SHOWNUM?OLED
FF0EE0H   FF0FDFH   000100H   BYTE   INSEG    CODE           ?PR?DISP_REFRESH?MAIN
FF0FE0H   FF10A2H   0000C3H   BYTE   INSEG    CODE           ?PR?OLED_INIT?OLED
FF10A3H   FF1155H   0000B3H   BYTE   INSEG    CODE           ?PR?MEMU?MEUN
FF1156H   FF11FEH   0000A9H   BYTE   INSEG    CODE           ?PR?OLED_DISPLAY_STRING_5X7?OLED
FF11FFH   FF129DH   00009FH   BYTE   INSEG    CODE           ?PR?MEUN_2_CONTROL?MEUN
FF129EH   FF133CH   00009FH   BYTE   INSEG    CODE           ?PR?MEUN_2_ANGLE?MEUN
FF133DH   FF13DBH   00009FH   BYTE   INSEG    CODE           ?PR?MEUN_2_SPEED?MEUN
FF13DCH   FF147AH   00009FH   BYTE   INSEG    CODE           ?PR?MEUN_2_PITCHING?MEUN
FF147BH   FF150CH   000092H   BYTE   INSEG    CODE           ?PR?CANCEL_DETERMINE?ENCODERS
FF150DH   FF159DH   000091H   BYTE   INSEG    CODE           ?PR?PWMA_CONFIG?PWM
FF159EH   FF1616H   000079H   BYTE   INSEG    CODE           ?PR?ADD?ENCODERS
FF1617H   FF168FH   000079H   BYTE   INSEG    CODE           ?PR?LOSE?ENCODERS
FF1690H   FF1705H   000076H   BYTE   INSEG    CODE           ?PR?READLINE?LINEFOLLOWER
FF1706H   FF1764H   00005FH   BYTE   INSEG    CODE           ?PR?MAIN?MAIN
FF1765H   FF17BFH   00005BH   BYTE   INSEG    CODE           ?PR?OLED_GET_DATA_FROM_ROM?OLED
FF17C0H   FF1815H   000056H   BYTE   INSEG    CODE           ?PR?OLED_DISPLAY_16X16?OLED
FF1816H   FF186BH   000056H   BYTE   INSEG    CODE           ?PR?OLED_DISPLAY_8X16?OLED
L251 LINKER/LOCATER V4.66.93.0                                                        07/20/2023  20:58:36  PAGE 3


FF186CH   FF18BAH   00004FH   BYTE   INSEG    CODE           ?PR?UP_KEY_DETECTION?ENCODERS
FF18BBH   FF1905H   00004BH   BYTE   INSEG    CODE           ?PR?ROTARY_ENCODER?ENCODERS
FF1906H   FF1918H   000013H   BYTE   UNIT     CODE           ?C_C51STARTUP
FF1919H   FF1922H   00000AH   BYTE   UNIT     CODE           ?C_C51STARTUP?1
FF1923H   FF194BH   000029H   BYTE   UNIT     CODE           ?C_C51STARTUP?2
FF194CH   FF194EH   000003H   BYTE   UNIT     CODE           ?C_C51STARTUP?3
FF194FH   FF1994H   000046H   BYTE   INSEG    CODE           ?PR?TIMER1?MAIN
FF1995H   FF19DAH   000046H   BYTE   INSEG    CODE           ?PR?OLED_DISPLAY_128X64?OLED
FF19DBH   FF1A14H   00003AH   BYTE   INSEG    CODE           ?PR?GPIO_INIT?GPIO
FF1A15H   FF1A4BH   000037H   BYTE   INSEG    CODE           ?PR?OLED_CLEAR_0_2?OLED
FF1A4CH   FF1A82H   000037H   BYTE   INSEG    CODE           ?PR?OLED_CLEAR?OLED
FF1A83H   FF1AB1H   00002FH   BYTE   INSEG    CODE           ?PR?HALL_ELEMENT?IIC
FF1AB2H   FF1ADFH   00002EH   BYTE   INSEG    CODE           ?PR?IIC_SENDBYTE?IIC
FF1AE0H   FF1B0BH   00002CH   BYTE   INSEG    CODE           ?PR?OLED_DISPLAYTURN?OLED
FF1B0CH   FF1B37H   00002CH   BYTE   INSEG    CODE           ?PR?OLED_DISPLAY_5X7?OLED
FF1B38H   FF1B62H   00002BH   BYTE   INSEG    CODE           ?PR?OLED_WR_BYTE?OLED
FF1B63H   FF1B8DH   00002BH   BYTE   INSEG    CODE           ?PR?OLED_ADDRESS?OLED
FF1B8EH   FF1BB6H   000029H   BYTE   INSEG    CODE           ?PR?UPDATE_DUTY?PWM
FF1BB7H   FF1BDCH   000026H   BYTE   INSEG    CODE           ?PR?IIC_RECBYTE?IIC
FF1BDDH   FF1C02H   000026H   BYTE   INSEG    CODE           ?PR?ADC_READ?ADC
FF1C03H   FF1C23H   000021H   BYTE   INSEG    CODE           ?PR?ADC_READCHANNEL_1?ADC
FF1C24H   FF1C44H   000021H   BYTE   INSEG    CODE           ?PR?ADC_READCHANNEL_2?ADC
FF1C45H   FF1C62H   00001EH   BYTE   INSEG    CODE           ?PR?OLED_COLORTURN?OLED
FF1C63H   FF1C7EH   00001CH   BYTE   INSEG    CODE           ?PR?ADC_READCHANNEL_3?ADC
FF1C7FH   FF1C99H   00001BH   BYTE   INSEG    CODE           ?PR?SEND_COMMAND_TO_ROM?OLED
FF1C9AH   FF1CB0H   000017H   BYTE   INSEG    CODE           ?PR?DELAY_MS?OLED
FF1CB1H   FF1CC7H   000017H   BYTE   INSEG    CODE           ?PR?UARTINIT?UART
FF1CC8H   FF1CDEH   000017H   BYTE   INSEG    CODE           ?PR?IIC_SENDACK?IIC
FF1CDFH   FF1CF5H   000017H   BYTE   INSEG    CODE           ?PR?ADC_INIT?ADC
FF1CF6H   FF1D0BH   000016H   BYTE   INSEG    CODE           ?PR?UART_STRING?UART
FF1D0CH   FF1D20H   000015H   BYTE   INSEG    CODE           ?PR?OLED_DISPLAY_OFF?OLED
FF1D21H   FF1D35H   000015H   BYTE   INSEG    CODE           ?PR?OLED_DISPLAY_ON?OLED
FF1D36H   FF1D4AH   000015H   BYTE   INSEG    CODE           ?PR?TIMER1INIT?TIMER
FF1D4BH   FF1D5DH   000013H   BYTE   INSEG    CODE           ?PR?IIC_WAITACK?IIC
FF1D5EH   FF1D6EH   000011H   BYTE   INSEG    CODE           ?PR?IIC_START?IIC
FF1D6FH   FF1D7DH   00000FH   BYTE   INSEG    CODE           ?PR?DELAY?TIMER
FF1D7EH   FF1D8BH   00000EH   BYTE   INSEG    CODE           ?PR?IIC_STOP?IIC
FF1D8CH   FF1D97H   00000CH   BYTE   INSEG    CODE           ?PR?IIC_DELAY?IIC
FF1D98H   FF1DA1H   00000AH   BYTE   INSEG    CODE           ?PR?UART1_ISR?UART
FF1DA2H   FF1DAAH   000009H   BYTE   INSEG    CODE           ?PR?UART_SENDBYTE?UART
FF1DABH   FF1E85H   0000DBH   BYTE   UNIT     HCONST         ?HC?MEUN
FF1E86H   FF1EC2H   00003DH   BYTE   UNIT     HCONST         ?C_INITEDATA
FF1EC3H   FF1ED8H   000016H   BYTE   UNIT     HCONST         ?HC?OLED
FF1ED9H   FF1EEAH   000012H   BYTE   UNIT     HCONST         ?HC?MAIN



OVERLAY MAP OF MODULE:   LED (main)


FUNCTION/MODULE                   EDATA_GROUP
--> CALLED FUNCTION/MODULE        START  STOP
=============================================
timer1/main                       ----- -----

*** NEW ROOT ********************

?C_C51STARTUP?1                   ----- -----

*** NEW ROOT ********************

Uart1_Isr/Uart                    ----- -----

*** NEW ROOT ********************

L251 LINKER/LOCATER V4.66.93.0                                                        07/20/2023  20:58:36  PAGE 4


?C_C51STARTUP                     ----- -----

*** NEW ROOT ********************

?C_C51STARTUP?3                   ----- -----
  +--> main/main

main/main                         ----- -----
  +--> GPIO_init/GPIO
  +--> OLED_Init/oled
  +--> OLED_ColorTurn/oled
  +--> OLED_DisplayTurn/oled
  +--> OLED_Clear/oled
  +--> Timer1Init/timer
  +--> UartInit/Uart
  +--> PWMA_Config/pwm
  +--> ADC_Init/ADC
  +--> ADC_Readchannel_1/ADC
  +--> ADC_Readchannel_2/ADC
  +--> ADC_Readchannel_3/ADC
  +--> ReadLine/LineFollower
  +--> Disp_refresh/main
  +--> Update_duty/pwm

GPIO_init/GPIO                    ----- -----

OLED_Init/oled                    ----- -----
  +--> delay_ms/oled
  +--> OLED_WR_Byte/oled
  +--> OLED_Clear/oled

delay_ms/oled                     ----- -----

OLED_WR_Byte/oled                 ----- -----

OLED_Clear/oled                   ----- -----
  +--> OLED_WR_Byte/oled

OLED_ColorTurn/oled               ----- -----
  +--> OLED_WR_Byte/oled

OLED_DisplayTurn/oled             ----- -----
  +--> OLED_WR_Byte/oled

Timer1Init/timer                  ----- -----

UartInit/Uart                     ----- -----

PWMA_Config/pwm                   ----- -----

ADC_Init/ADC                      ----- -----

ADC_Readchannel_1/ADC             ----- -----

ADC_Readchannel_2/ADC             ----- -----

ADC_Readchannel_3/ADC             ----- -----

ReadLine/LineFollower             0021H 0022H
  +--> ADC_Readchannel_1/ADC
  +--> ADC_Readchannel_2/ADC
  +--> ADC_Readchannel_3/ADC

Disp_refresh/main                 ----- -----
  +--> SPRINTF/SPRINTF
L251 LINKER/LOCATER V4.66.93.0                                                        07/20/2023  20:58:36  PAGE 5


  +--> OLED_16x16/oled
  +--> OLED_ShowNum/oled

SPRINTF/SPRINTF                   0021H 0048H
  +--> OUT/SPRINTF

OUT/SPRINTF                       ----- -----
  +--> PUTCH/SPRINTF

PUTCH/SPRINTF                     ----- -----

OLED_16x16/oled                   0029H 005EH
  +--> OLED_get_data_from_ROM/oled
  +--> OLED_Display_16x16/oled
  +--> OLED_Display_8x16/oled

OLED_get_data_from_ROM/oled       005FH 0063H
  +--> Send_Command_to_ROM/oled
  +--> Get_data_from_ROM/oled

Send_Command_to_ROM/oled          ----- -----

Get_data_from_ROM/oled            ----- -----

OLED_Display_16x16/oled           005FH 0062H
  +--> OLED_address/oled
  +--> OLED_WR_Byte/oled

OLED_address/oled                 ----- -----
  +--> OLED_WR_Byte/oled

OLED_Display_8x16/oled            005FH 0062H
  +--> OLED_address/oled
  +--> OLED_WR_Byte/oled

OLED_ShowNum/oled                 0021H 0028H
  +--> OLED_16x16/oled
  +--> ?C?ULIDIV/?C?ULDIV

?C?ULIDIV/?C?ULDIV                ----- -----

Update_duty/pwm                   ----- -----

*** NEW ROOT ********************

?C_C51STARTUP?2                   ----- -----



PUBLIC SYMBOLS OF MODULE:  LED (main)


      VALUE       CLASS    TYPE      PUBLIC SYMBOL NAME
      =================================================
      0000009CH   EDATA    BYTE      ?ADC_Read?BYTE
      00FF0103H   CODE     NEAR LAB  ?C?CASTF
      000000FFH   NUMBER   ---       ?C?CODESEG
      00FF00D0H   CODE     NEAR LAB  ?C?FCASTC
      00FF00CBH   CODE     NEAR LAB  ?C?FCASTI
      00FF00C6H   CODE     NEAR LAB  ?C?FCASTL
      00FF05FBH   CODE     ---       ?C?FPCONVERT
      00FF06F6H   CODE     ---       ?C?FPDIV
      00FF0160H   CODE     ---       ?C?FPGETOPN2
      00FF0026H   CODE     ---       ?C?FPMUL
      00FF019DH   CODE     ---       ?C?FPNANRESULT
L251 LINKER/LOCATER V4.66.93.0                                                        07/20/2023  20:58:36  PAGE 6


      00FF01A5H   CODE     ---       ?C?FPOVERFLOW
      00FF0179H   CODE     ---       ?C?FPRESULT
      00FF018FH   CODE     ---       ?C?FPRESULT2
      00FF06B3H   CODE     ---       ?C?FPROUND
      00FF01A2H   CODE     ---       ?C?FPUNDERFLOW
      00FF07A7H   CODE     ---       ?C?FTNPWR
      00FF1923H   CODE     ---       ?C?INITEDATA
      00FF1EC1H   HCONST   WORD      ?C?INITEDATA_END
      00FF07DEH   CODE     ---       ?C?LIMUL
      00FF01DEH   CODE     ---       ?C?PRNFMT
      00FF0000H   CODE     ---       ?C?STARTUP
      00FF07E9H   CODE     NEAR LAB  ?C?ULDIV
      00FF07E7H   CODE     NEAR LAB  ?C?ULIDIV
      00000001H   NUMBER   ---       ?C?XDATASEG
      00FF0000H   CODE     ---       ?C_STARTUP
      00000020H.5 BIT      BIT       ?IIC_SendAck?BIT
      00000049H   EDATA    ---       ?sprintf?BYTE
*SFR* 000000BCH   DATA     BYTE      ADC_CONTR
*SFR* 000000BCH.5 DATA     BIT       ADC_FLAG
      00FF1CDFH   CODE     ---       ADC_Init
*SFR* 000000BCH.7 DATA     BIT       ADC_POWER
      00FF1BDDH   CODE     ---       ADC_Read
      00FF1C03H   CODE     ---       ADC_Readchannel_1
      00FF1C24H   CODE     ---       ADC_Readchannel_2
      00FF1C63H   CODE     ---       ADC_Readchannel_3
*SFR* 000000BDH   DATA     BYTE      ADC_RES
*SFR* 000000BEH   DATA     BYTE      ADC_RESL
*SFR* 000000BCH.6 DATA     BIT       ADC_START
*SFR* 000000DEH   DATA     BYTE      ADCCFG
      00000090H   EDATA    WORD      ADCP1
      00000092H   EDATA    WORD      ADCP2
      00000094H   EDATA    WORD      ADCP3
      00FF159EH   CODE     ---       add
      00000020H.2 BIT      BIT       add_lose
      00000098H   EDATA    ---       adjust
      00000020H.1 BIT      BIT       arrow_Value
*SFR* 000000EFH   DATA     BYTE      AUXINTIF
*SFR* 0000008EH   DATA     BYTE      AUXR
*SFR* 00000097H   DATA     BYTE      AUXR2
      00FF147BH   CODE     ---       Cancel_determine
*SFR* 000000F1H   DATA     BYTE      CANICR
*SFR* 000000EAH   DATA     BYTE      CKCON
*SFR* 000000E6H   DATA     BYTE      CMPCR1
*SFR* 000000E7H   DATA     BYTE      CMPCR2
      000000A2H   EDATA    BYTE      Confirm_exit
      00FF1D6FH   CODE     ---       delay
      000000AAH   EDATA    WORD      delay_cnt
      00FF1C9AH   CODE     ---       delay_ms
      00FF0EE0H   CODE     ---       Disp_refresh
      0000001AH   EDATA    WORD      duty
      0000001CH   EDATA    WORD      duty2
*SFR* 000000A8H.7 DATA     BIT       EA
*SFR* 000000BAH.7 DATA     BIT       EAXFR
*SFR* 000000B0H.2 DATA     BIT       EC11_A
*SFR* 000000B0H.3 DATA     BIT       EC11_B
*SFR* 000000B0H.4 DATA     BIT       EC11_K
*SFR* 000000A8H.4 DATA     BIT       ES
*SFR* 000000A8H.3 DATA     BIT       ET1
      00000020H.4 BIT      BIT       falling_Down
      00000016H   EDATA    DWORD     fontaddr
      00FF0003H   CODE     ---       Get_data_from_ROM
      00FF19DBH   CODE     ---       GPIO_init
      00FF1A83H   CODE     ---       Hall_element
*SFR* 000000C7H   DATA     BYTE      IAP_CONTR
*SFR* 000000A8H   DATA     BYTE      IE
L251 LINKER/LOCATER V4.66.93.0                                                        07/20/2023  20:58:36  PAGE 7


*SFR* 000000AFH   DATA     BYTE      IE2
      00FF1D8CH   CODE     ---       IIC_Delay
      00FF1BB7H   CODE     ---       IIC_RecByte
      00FF1CC8H   CODE     ---       IIC_SendAck
      00FF1AB2H   CODE     ---       IIC_SendByte
      00FF1D5EH   CODE     ---       IIC_Start
      00FF1D7EH   CODE     ---       IIC_Stop
      00FF1D4BH   CODE     ---       IIC_WaitAck
*SFR* 0000008FH   DATA     BYTE      INTCLKO
*SFR* 000000B8H   DATA     BYTE      IP
*SFR* 000000B5H   DATA     BYTE      IP2
*SFR* 000000B6H   DATA     BYTE      IP2H
*SFR* 000000DFH   DATA     BYTE      IP3
*SFR* 000000EEH   DATA     BYTE      IP3H
*SFR* 000000B7H   DATA     BYTE      IPH
*SFR* 0000009DH   DATA     BYTE      IRCBAND
      0000008EH   EDATA    INT       line_inaccuracy
*SFR* 000000F9H   DATA     BYTE      LINICR
      00000020H.3 BIT      BIT       long_short
      00FF1617H   CODE     ---       lose
      00FF1706H   CODE     ---       main
      00FF0A63H   CODE     ---       Main_Meun
      00FF10A3H   CODE     ---       Memu
      00FF129EH   CODE     ---       Meun_2_angle
      00FF11FFH   CODE     ---       Meun_2_control
      00FF13DCH   CODE     ---       Meun_2_Pitching
      00FF133DH   CODE     ---       Meun_2_speed
*SFR* 00000080H.2 DATA     BIT       MOTOR_AIN1
*SFR* 00000080H.1 DATA     BIT       MOTOR_AIN2
*SFR* 00000080H.3 DATA     BIT       MOTOR_BIN1
*SFR* 00000080H.4 DATA     BIT       MOTOR_BIN2
      00FF083AH   CODE     ---       OLED_16x16
      00FF1B63H   CODE     ---       OLED_address
      00FF1A4CH   CODE     ---       OLED_Clear
      00FF1A15H   CODE     ---       OLED_Clear_0_2
      00FF1C45H   CODE     ---       OLED_ColorTurn
*SFR* 00000090H.6 DATA     BIT       OLED_CS
*SFR* 00000090H.5 DATA     BIT       OLED_DC
      00FF1995H   CODE     ---       OLED_Display_128x64
      00FF17C0H   CODE     ---       OLED_Display_16x16
      00FF1B0CH   CODE     ---       OLED_Display_5x7
      00FF1816H   CODE     ---       OLED_Display_8x16
      00FF1D0CH   CODE     ---       OLED_DisPlay_Off
      00FF1D21H   CODE     ---       OLED_DisPlay_On
      00FF1156H   CODE     ---       OLED_Display_string_5x7
      00FF1AE0H   CODE     ---       OLED_DisplayTurn
      00FF1765H   CODE     ---       OLED_get_data_from_ROM
      00FF0FE0H   CODE     ---       OLED_Init
*SFR* 00000090H.7 DATA     BIT       OLED_READ_FS0
*SFR* 00000090H.3 DATA     BIT       OLED_ROM_CS
*SFR* 000000C0H.7 DATA     BIT       OLED_SCL
*SFR* 00000090H.4 DATA     BIT       OLED_SDA
      00FF0DA3H   CODE     ---       OLED_ShowNum
      00000064H   EDATA    ---       oled_showtext
      00FF1B38H   CODE     ---       OLED_WR_Byte
*SFR* 00000080H   DATA     BYTE      P0
*SFR* 00000094H   DATA     BYTE      P0M0
*SFR* 00000093H   DATA     BYTE      P0M1
*SFR* 00000090H   DATA     BYTE      P1
*SFR* 00000092H   DATA     BYTE      P1M0
*SFR* 00000091H   DATA     BYTE      P1M1
*SFR* 000000A0H   DATA     BYTE      P2
*SFR* 00000096H   DATA     BYTE      P2M0
*SFR* 00000095H   DATA     BYTE      P2M1
*SFR* 000000B0H   DATA     BYTE      P3
L251 LINKER/LOCATER V4.66.93.0                                                        07/20/2023  20:58:36  PAGE 8


*SFR* 000000B2H   DATA     BYTE      P3M0
*SFR* 000000B1H   DATA     BYTE      P3M1
*SFR* 000000C0H   DATA     BYTE      P4
*SFR* 000000B4H   DATA     BYTE      P4M0
*SFR* 000000B3H   DATA     BYTE      P4M1
*SFR* 000000C8H   DATA     BYTE      P5
*SFR* 000000FFH.4 DATA     BIT       P54RST
*SFR* 000000CAH   DATA     BYTE      P5M0
*SFR* 000000C9H   DATA     BYTE      P5M1
*SFR* 000000E8H   DATA     BYTE      P6
*SFR* 000000CCH   DATA     BYTE      P6M0
*SFR* 000000CBH   DATA     BYTE      P6M1
*SFR* 000000F8H   DATA     BYTE      P7
*SFR* 000000E2H   DATA     BYTE      P7M0
*SFR* 000000E1H   DATA     BYTE      P7M1
*SFR* 000000A2H   DATA     BYTE      P_SW1
*SFR* 000000BAH   DATA     BYTE      P_SW2
*SFR* 000000BBH   DATA     BYTE      P_SW3
      000000A8H   EDATA    INT       page_table
      000000A3H   EDATA    BYTE      part2_count
      000000A1H   EDATA    BYTE      part_count
*SFR* 00000087H   DATA     BYTE      PCON
*SFR* 000000D0H   DATA     BYTE      PSW
      00FF150DH   CODE     ---       PWMA_Config
      00FF1690H   CODE     ---       ReadLine
*SFR* 00000098H.0 DATA     BIT       RI
      00000020H.0 BIT      BIT       rising_edge
      00FF18BBH   CODE     ---       rotary_encoder
*SFR* 000000FFH   DATA     BYTE      RSTCFG
*SFR* 000000A2H.6 DATA     BIT       S1_S0
*SFR* 000000A2H.7 DATA     BIT       S1_S1
*SFR* 0000009AH   DATA     BYTE      S2CON
*SFR* 000000ACH   DATA     BYTE      S3CON
*SFR* 000000FDH   DATA     BYTE      S4CON
      00000096H   EDATA    WORD      s_count
*SFR* 00000099H   DATA     BYTE      SBUF
*SFR* 000000A0H.0 DATA     BIT       SCL
*SFR* 00000098H   DATA     BYTE      SCON
*SFR* 000000A0H.2 DATA     BIT       SDA
      00FF0C2EH   CODE     ---       Second_menu_value
      00FF1C7FH   CODE     ---       Send_Command_to_ROM
      00FF1DF6H   HCONST   ---       set
*SFR* 000000CEH   DATA     BYTE      SPCTL
      0000009DH   EDATA    ---       spin
      00FF0140H   CODE     NEAR LAB  sprintf
*SFR* 000000CDH   DATA     BYTE      SPSTAT
*SFR* 000000D6H   DATA     BYTE      T2H
*SFR* 000000D7H   DATA     BYTE      T2L
*SFR* 000000DDH   DATA     BYTE      T4T3M
*SFR* 00000088H   DATA     BYTE      TCON
*SFR* 00000088H.7 DATA     BIT       TF1
*SFR* 0000008DH   DATA     BYTE      TH1
*SFR* 00000098H.1 DATA     BIT       TI
      00FF194FH   CODE     ---       timer1
      00FF1D36H   CODE     ---       Timer1Init
      00000078H   EDATA    WORD      timer_delay
*SFR* 0000008BH   DATA     BYTE      TL1
*SFR* 00000089H   DATA     BYTE      TMOD
*SFR* 00000088H.6 DATA     BIT       TR1
      0000007AH   EDATA    ---       txbuf
      00FF1D98H   CODE     ---       Uart1_Isr
      00FF1DA2H   CODE     ---       Uart_sendbyte
      00FF1CF6H   CODE     ---       Uart_String
      00FF1CB1H   CODE     ---       UartInit
      00FF186CH   CODE     ---       up_key_detection
L251 LINKER/LOCATER V4.66.93.0                                                        07/20/2023  20:58:36  PAGE 9


      00FF1B8EH   CODE     ---       Update_duty
*SFR* 000000F4H   DATA     BYTE      USBCON
*SFR* 000000C1H   DATA     BYTE      WDT_CONTR
*SFR* 000000E9H   DATA     BYTE      WTST



SYMBOL TABLE OF MODULE:  LED (main)

      VALUE       REP       CLASS    TYPE      SYMBOL NAME
      ====================================================
      ---         MODULE    ---      ---       main
      00FF1706H   PUBLIC    CODE     ---       main
      00FF194FH   PUBLIC    CODE     ---       timer1
      00FF0EE0H   PUBLIC    CODE     ---       Disp_refresh
      00000064H   PUBLIC    EDATA    ---       oled_showtext
      00000078H   PUBLIC    EDATA    WORD      timer_delay
      0000007AH   PUBLIC    EDATA    ---       txbuf
      0000008EH   PUBLIC    EDATA    INT       line_inaccuracy
      00000090H   PUBLIC    EDATA    WORD      ADCP1
      00000092H   PUBLIC    EDATA    WORD      ADCP2
      00000094H   PUBLIC    EDATA    WORD      ADCP3
      00000080H.2 SFRSYM    DATA     BIT       MOTOR_AIN1
      000000D0H   SFRSYM    DATA     BYTE      PSW
      0000009DH   SFRSYM    DATA     BYTE      IRCBAND
      00000097H   SFRSYM    DATA     BYTE      AUXR2
      000000EFH   SFRSYM    DATA     BYTE      AUXINTIF
      000000A2H.7 SFRSYM    DATA     BIT       S1_S1
      000000FDH   SFRSYM    DATA     BYTE      S4CON
      000000A2H.6 SFRSYM    DATA     BIT       S1_S0
      000000ACH   SFRSYM    DATA     BYTE      S3CON
      0000009AH   SFRSYM    DATA     BYTE      S2CON
      000000B7H   SFRSYM    DATA     BYTE      IPH
      000000CDH   SFRSYM    DATA     BYTE      SPSTAT
      000000DDH   SFRSYM    DATA     BYTE      T4T3M
      000000C1H   SFRSYM    DATA     BYTE      WDT_CONTR
      000000DFH   SFRSYM    DATA     BYTE      IP3
      000000F4H   SFRSYM    DATA     BYTE      USBCON
      000000B5H   SFRSYM    DATA     BYTE      IP2
      000000FFH   SFRSYM    DATA     BYTE      RSTCFG
      000000C7H   SFRSYM    DATA     BYTE      IAP_CONTR
      000000F9H   SFRSYM    DATA     BYTE      LINICR
      0000008EH   SFRSYM    DATA     BYTE      AUXR
      000000AFH   SFRSYM    DATA     BYTE      IE2
      00000088H   SFRSYM    DATA     BYTE      TCON
      00000089H   SFRSYM    DATA     BYTE      TMOD
      00000098H   SFRSYM    DATA     BYTE      SCON
      000000FFH.4 SFRSYM    DATA     BIT       P54RST
      000000F1H   SFRSYM    DATA     BYTE      CANICR
      00000087H   SFRSYM    DATA     BYTE      PCON
      000000BCH   SFRSYM    DATA     BYTE      ADC_CONTR
      000000E7H   SFRSYM    DATA     BYTE      CMPCR2
      000000E6H   SFRSYM    DATA     BYTE      CMPCR1
      000000DEH   SFRSYM    DATA     BYTE      ADCCFG
      000000B8H   SFRSYM    DATA     BYTE      IP
      0000008FH   SFRSYM    DATA     BYTE      INTCLKO
      000000B0H.4 SFRSYM    DATA     BIT       EC11_K
      000000EEH   SFRSYM    DATA     BYTE      IP3H
      000000B6H   SFRSYM    DATA     BYTE      IP2H
      000000A8H   SFRSYM    DATA     BYTE      IE
      000000BBH   SFRSYM    DATA     BYTE      P_SW3
      000000BAH   SFRSYM    DATA     BYTE      P_SW2
      000000A2H   SFRSYM    DATA     BYTE      P_SW1
      000000CEH   SFRSYM    DATA     BYTE      SPCTL
      000000F8H   SFRSYM    DATA     BYTE      P7
L251 LINKER/LOCATER V4.66.93.0                                                        07/20/2023  20:58:36  PAGE 10


      000000E8H   SFRSYM    DATA     BYTE      P6
      000000C8H   SFRSYM    DATA     BYTE      P5
      000000C0H   SFRSYM    DATA     BYTE      P4
      000000B0H   SFRSYM    DATA     BYTE      P3
      000000A0H   SFRSYM    DATA     BYTE      P2
      00000090H   SFRSYM    DATA     BYTE      P1
      00000080H   SFRSYM    DATA     BYTE      P0
      00000080H.4 SFRSYM    DATA     BIT       MOTOR_BIN2
      00000080H.1 SFRSYM    DATA     BIT       MOTOR_AIN2
      00000080H.3 SFRSYM    DATA     BIT       MOTOR_BIN1

      00FF1706H   BLOCK     CODE     ---       LVL=0
      00FF1706H   LINE      CODE     ---       #34
      00FF1706H   LINE      CODE     ---       #36
      00FF1709H   LINE      CODE     ---       #37
      00FF170CH   LINE      CODE     ---       #38
      00FF1710H   LINE      CODE     ---       #39
      00FF1715H   LINE      CODE     ---       #40
      00FF1718H   LINE      CODE     ---       #42
      00FF171BH   LINE      CODE     ---       #43
      00FF171EH   LINE      CODE     ---       #44
      00FF1724H   LINE      CODE     ---       #45
      00FF1727H   LINE      CODE     ---       #47
      00FF172AH   LINE      CODE     ---       #49
      00FF172DH   LINE      CODE     ---       #51
      00FF172FH   LINE      CODE     ---       #52
      00FF1731H   LINE      CODE     ---       #54
      00FF1733H   LINE      CODE     ---       #55
      00FF1735H   LINE      CODE     ---       #57
      00FF173DH   LINE      CODE     ---       #58
      00FF1741H   LINE      CODE     ---       #60
      00FF1741H   LINE      CODE     ---       #66
      00FF1748H   LINE      CODE     ---       #67
      00FF174FH   LINE      CODE     ---       #68
      00FF1756H   LINE      CODE     ---       #70
      00FF175DH   LINE      CODE     ---       #80
      00FF1760H   LINE      CODE     ---       #83
      00FF1763H   LINE      CODE     ---       #84
      ---         BLOCKEND  ---      ---       LVL=0

      00FF194FH   BLOCK     CODE     ---       LVL=0
      00FF194FH   LINE      CODE     ---       #86
      00FF1955H   LINE      CODE     ---       #88
      00FF195FH   LINE      CODE     ---       #89
      00FF1965H   LINE      CODE     ---       #91
      00FF1975H   LINE      CODE     ---       #93
      00FF197BH   LINE      CODE     ---       #95
      00FF197DH   LINE      CODE     ---       #96
      00FF197DH   LINE      CODE     ---       #97
      00FF1984H   LINE      CODE     ---       #99
      00FF198EH   LINE      CODE     ---       #100
      ---         BLOCKEND  ---      ---       LVL=0

      00FF0EE0H   BLOCK     CODE     ---       LVL=0
      00FF0EE0H   LINE      CODE     ---       #103
      00FF0EE2H   LINE      CODE     ---       #105
      00FF0EF1H   LINE      CODE     ---       #106
      00FF0EFBH   LINE      CODE     ---       #107
      00FF0F0AH   LINE      CODE     ---       #108
      00FF0F15H   LINE      CODE     ---       #109
      00FF0F24H   LINE      CODE     ---       #110
      00FF0F2FH   LINE      CODE     ---       #112
      00FF0F4BH   LINE      CODE     ---       #113
      00FF0F68H   LINE      CODE     ---       #114
      00FF0F85H   LINE      CODE     ---       #116
L251 LINKER/LOCATER V4.66.93.0                                                        07/20/2023  20:58:36  PAGE 11


      00FF0F8FH   LINE      CODE     ---       #118
      00FF0F99H   LINE      CODE     ---       #119
      00FF0FA8H   LINE      CODE     ---       #120
      00FF0FB3H   LINE      CODE     ---       #121
      00FF0FC0H   LINE      CODE     ---       #122
      00FF0FC2H   LINE      CODE     ---       #127
      00FF0FDDH   LINE      CODE     ---       #128
      00FF0FDDH   LINE      CODE     ---       #133
      ---         BLOCKEND  ---      ---       LVL=0

      ---         MODULE    ---      ---       oled
      00FF0003H   PUBLIC    CODE     ---       Get_data_from_ROM
      00FF17C0H   PUBLIC    CODE     ---       OLED_Display_16x16
      00FF1AE0H   PUBLIC    CODE     ---       OLED_DisplayTurn
      00FF1A15H   PUBLIC    CODE     ---       OLED_Clear_0_2
      00FF0FE0H   PUBLIC    CODE     ---       OLED_Init
      00FF1156H   PUBLIC    CODE     ---       OLED_Display_string_5x7
      00FF1B0CH   PUBLIC    CODE     ---       OLED_Display_5x7
      00FF1B38H   PUBLIC    CODE     ---       OLED_WR_Byte
      00FF1765H   PUBLIC    CODE     ---       OLED_get_data_from_ROM
      00FF1C45H   PUBLIC    CODE     ---       OLED_ColorTurn
      00FF1D0CH   PUBLIC    CODE     ---       OLED_DisPlay_Off
      00FF1995H   PUBLIC    CODE     ---       OLED_Display_128x64
      00FF1C7FH   PUBLIC    CODE     ---       Send_Command_to_ROM
      00FF083AH   PUBLIC    CODE     ---       OLED_16x16
      00FF1C9AH   PUBLIC    CODE     ---       delay_ms
      00FF1816H   PUBLIC    CODE     ---       OLED_Display_8x16
      00FF0DA3H   PUBLIC    CODE     ---       OLED_ShowNum
      00FF1D21H   PUBLIC    CODE     ---       OLED_DisPlay_On
      00FF1A4CH   PUBLIC    CODE     ---       OLED_Clear
      00FF1B63H   PUBLIC    CODE     ---       OLED_address
      00000016H   PUBLIC    EDATA    DWORD     fontaddr
      000000D0H   SFRSYM    DATA     BYTE      PSW
      0000009DH   SFRSYM    DATA     BYTE      IRCBAND
      00000097H   SFRSYM    DATA     BYTE      AUXR2
      000000EFH   SFRSYM    DATA     BYTE      AUXINTIF
      00000090H.3 SFRSYM    DATA     BIT       OLED_ROM_CS
      000000FDH   SFRSYM    DATA     BYTE      S4CON
      000000C0H.7 SFRSYM    DATA     BIT       OLED_SCL
      000000ACH   SFRSYM    DATA     BYTE      S3CON
      0000009AH   SFRSYM    DATA     BYTE      S2CON
      000000B7H   SFRSYM    DATA     BYTE      IPH
      000000CDH   SFRSYM    DATA     BYTE      SPSTAT
      00000090H.4 SFRSYM    DATA     BIT       OLED_SDA
      000000DDH   SFRSYM    DATA     BYTE      T4T3M
      000000C1H   SFRSYM    DATA     BYTE      WDT_CONTR
      00000090H.7 SFRSYM    DATA     BIT       OLED_READ_FS0
      000000DFH   SFRSYM    DATA     BYTE      IP3
      000000F4H   SFRSYM    DATA     BYTE      USBCON
      000000B5H   SFRSYM    DATA     BYTE      IP2
      000000FFH   SFRSYM    DATA     BYTE      RSTCFG
      000000C7H   SFRSYM    DATA     BYTE      IAP_CONTR
      000000F9H   SFRSYM    DATA     BYTE      LINICR
      0000008EH   SFRSYM    DATA     BYTE      AUXR
      000000AFH   SFRSYM    DATA     BYTE      IE2
      00000088H   SFRSYM    DATA     BYTE      TCON
      00000089H   SFRSYM    DATA     BYTE      TMOD
      00000098H   SFRSYM    DATA     BYTE      SCON
      000000F1H   SFRSYM    DATA     BYTE      CANICR
      00000087H   SFRSYM    DATA     BYTE      PCON
      000000BCH   SFRSYM    DATA     BYTE      ADC_CONTR
      000000E7H   SFRSYM    DATA     BYTE      CMPCR2
      000000E6H   SFRSYM    DATA     BYTE      CMPCR1
      00000090H.6 SFRSYM    DATA     BIT       OLED_CS
      000000DEH   SFRSYM    DATA     BYTE      ADCCFG
L251 LINKER/LOCATER V4.66.93.0                                                        07/20/2023  20:58:36  PAGE 12


      000000B8H   SFRSYM    DATA     BYTE      IP
      0000008FH   SFRSYM    DATA     BYTE      INTCLKO
      000000EEH   SFRSYM    DATA     BYTE      IP3H
      000000B6H   SFRSYM    DATA     BYTE      IP2H
      000000A8H   SFRSYM    DATA     BYTE      IE
      000000BBH   SFRSYM    DATA     BYTE      P_SW3
      000000BAH   SFRSYM    DATA     BYTE      P_SW2
      00000090H.5 SFRSYM    DATA     BIT       OLED_DC
      000000A2H   SFRSYM    DATA     BYTE      P_SW1
      000000CEH   SFRSYM    DATA     BYTE      SPCTL
      000000F8H   SFRSYM    DATA     BYTE      P7
      000000E8H   SFRSYM    DATA     BYTE      P6
      000000C8H   SFRSYM    DATA     BYTE      P5
      000000C0H   SFRSYM    DATA     BYTE      P4
      000000B0H   SFRSYM    DATA     BYTE      P3
      000000A0H   SFRSYM    DATA     BYTE      P2
      00000090H   SFRSYM    DATA     BYTE      P1
      00000080H   SFRSYM    DATA     BYTE      P0

      00FF1C9AH   BLOCK     CODE     ---       LVL=0
      WR2         REGSYM    ---      WORD      ms
      00FF1C9CH   BLOCK     CODE     NEAR LAB  LVL=1
      WR0         REGSYM    ---      WORD      a
      ---         BLOCKEND  ---      ---       LVL=1
      00FF1C9AH   LINE      CODE     ---       #3
      00FF1C9CH   LINE      CODE     ---       #4
      00FF1C9CH   LINE      CODE     ---       #6
      00FF1C9EH   LINE      CODE     ---       #8
      00FF1CA2H   LINE      CODE     ---       #9
      00FF1CAAH   LINE      CODE     ---       #10
      00FF1CACH   LINE      CODE     ---       #11
      00FF1CB0H   LINE      CODE     ---       #12
      00FF1CB0H   LINE      CODE     ---       #13
      ---         BLOCKEND  ---      ---       LVL=0

      00FF1C45H   BLOCK     CODE     ---       LVL=0
      R15         REGSYM    ---      BYTE      i
      00FF1C45H   LINE      CODE     ---       #16
      00FF1C49H   LINE      CODE     ---       #18
      00FF1C4DH   LINE      CODE     ---       #20
      00FF1C54H   LINE      CODE     ---       #21
      00FF1C54H   LINE      CODE     ---       #22
      00FF1C59H   LINE      CODE     ---       #24
      00FF1C60H   LINE      CODE     ---       #25
      ---         BLOCKEND  ---      ---       LVL=0

      00FF1AE0H   BLOCK     CODE     ---       LVL=0
      R15         REGSYM    ---      BYTE      i
      00FF1AE0H   LINE      CODE     ---       #29
      00FF1AE4H   LINE      CODE     ---       #31
      00FF1AE8H   LINE      CODE     ---       #33
      00FF1AEFH   LINE      CODE     ---       #34
      00FF1AF6H   LINE      CODE     ---       #35
      00FF1AF6H   LINE      CODE     ---       #36
      00FF1AFBH   LINE      CODE     ---       #38
      00FF1B02H   LINE      CODE     ---       #39
      00FF1B09H   LINE      CODE     ---       #40
      ---         BLOCKEND  ---      ---       LVL=0

      00FF1D21H   BLOCK     CODE     ---       LVL=0
      00FF1D21H   LINE      CODE     ---       #44
      00FF1D21H   LINE      CODE     ---       #46
      00FF1D28H   LINE      CODE     ---       #47
      00FF1D2FH   LINE      CODE     ---       #48
      ---         BLOCKEND  ---      ---       LVL=0
L251 LINKER/LOCATER V4.66.93.0                                                        07/20/2023  20:58:36  PAGE 13



      00FF1D0CH   BLOCK     CODE     ---       LVL=0
      00FF1D0CH   LINE      CODE     ---       #52
      00FF1D0CH   LINE      CODE     ---       #54
      00FF1D13H   LINE      CODE     ---       #55
      00FF1D1AH   LINE      CODE     ---       #56
      ---         BLOCKEND  ---      ---       LVL=0

      00FF1B38H   BLOCK     CODE     ---       LVL=0
      R6          REGSYM    ---      BYTE      dat
      R7          REGSYM    ---      BYTE      cmd
      00FF1B3AH   BLOCK     CODE     NEAR LAB  LVL=1
      R7          REGSYM    ---      BYTE      i
      ---         BLOCKEND  ---      ---       LVL=1
      00FF1B38H   LINE      CODE     ---       #62
      00FF1B3AH   LINE      CODE     ---       #63
      00FF1B3AH   LINE      CODE     ---       #65
      00FF1B3EH   LINE      CODE     ---       #67
      00FF1B40H   LINE      CODE     ---       #68
      00FF1B42H   LINE      CODE     ---       #71
      00FF1B44H   LINE      CODE     ---       #72
      00FF1B44H   LINE      CODE     ---       #73
      00FF1B46H   LINE      CODE     ---       #74
      00FF1B49H   LINE      CODE     ---       #76
      00FF1B4BH   LINE      CODE     ---       #77
      00FF1B50H   LINE      CODE     ---       #79
      00FF1B52H   LINE      CODE     ---       #80
      00FF1B54H   LINE      CODE     ---       #83
      00FF1B56H   LINE      CODE     ---       #84
      00FF1B56H   LINE      CODE     ---       #85
      00FF1B58H   LINE      CODE     ---       #86
      00FF1B5AH   LINE      CODE     ---       #87
      00FF1B5EH   LINE      CODE     ---       #88
      00FF1B60H   LINE      CODE     ---       #89
      00FF1B62H   LINE      CODE     ---       #90
      ---         BLOCKEND  ---      ---       LVL=0

      00FF1A4CH   BLOCK     CODE     ---       LVL=0
      00FF1A4EH   BLOCK     CODE     NEAR LAB  LVL=1
      R15         REGSYM    ---      BYTE      i
      R14         REGSYM    ---      BYTE      n
      ---         BLOCKEND  ---      ---       LVL=1
      00FF1A4CH   LINE      CODE     ---       #93
      00FF1A4EH   LINE      CODE     ---       #94
      00FF1A4EH   LINE      CODE     ---       #96
      00FF1A50H   LINE      CODE     ---       #98
      00FF1A5BH   LINE      CODE     ---       #99
      00FF1A62H   LINE      CODE     ---       #100
      00FF1A69H   LINE      CODE     ---       #101
      00FF1A6BH   LINE      CODE     ---       #103
      00FF1A72H   LINE      CODE     ---       #104
      00FF1A79H   LINE      CODE     ---       #105
      00FF1A80H   LINE      CODE     ---       #106
      ---         BLOCKEND  ---      ---       LVL=0

      00FF1A15H   BLOCK     CODE     ---       LVL=0
      00FF1A17H   BLOCK     CODE     NEAR LAB  LVL=1
      R14         REGSYM    ---      BYTE      i
      R15         REGSYM    ---      BYTE      n
      ---         BLOCKEND  ---      ---       LVL=1
      00FF1A15H   LINE      CODE     ---       #108
      00FF1A17H   LINE      CODE     ---       #109
      00FF1A17H   LINE      CODE     ---       #110
      00FF1A17H   LINE      CODE     ---       #111
      00FF1A19H   LINE      CODE     ---       #112
L251 LINKER/LOCATER V4.66.93.0                                                        07/20/2023  20:58:36  PAGE 14


      00FF1A24H   LINE      CODE     ---       #113
      00FF1A2BH   LINE      CODE     ---       #114
      00FF1A32H   LINE      CODE     ---       #115
      00FF1A34H   LINE      CODE     ---       #116
      00FF1A3BH   LINE      CODE     ---       #117
      00FF1A42H   LINE      CODE     ---       #118
      00FF1A49H   LINE      CODE     ---       #119
      ---         BLOCKEND  ---      ---       LVL=0

      00FF1B63H   BLOCK     CODE     ---       LVL=0
      R15         REGSYM    ---      BYTE      x
      R10         REGSYM    ---      BYTE      y
      00FF1B63H   LINE      CODE     ---       #121
      00FF1B67H   LINE      CODE     ---       #123
      00FF1B69H   LINE      CODE     ---       #124
      00FF1B74H   LINE      CODE     ---       #125
      00FF1B82H   LINE      CODE     ---       #126
      00FF1B8BH   LINE      CODE     ---       #127
      ---         BLOCKEND  ---      ---       LVL=0

      00FF1995H   BLOCK     CODE     ---       LVL=0
      REG=3       REGSYM    ---      ---       dp
      00FF1999H   BLOCK     CODE     NEAR LAB  LVL=1
      0000001EH   SYMBOL    EDATA    BYTE      i
      0000001FH   SYMBOL    EDATA    BYTE      j
      ---         BLOCKEND  ---      ---       LVL=1
      00FF1995H   LINE      CODE     ---       #130
      00FF1999H   LINE      CODE     ---       #131
      00FF1999H   LINE      CODE     ---       #132
      00FF199EH   LINE      CODE     ---       #133
      00FF19A2H   LINE      CODE     ---       #135
      00FF19AAH   LINE      CODE     ---       #136
      00FF19AFH   LINE      CODE     ---       #138
      00FF19B8H   LINE      CODE     ---       #139
      00FF19BAH   LINE      CODE     ---       #140
      00FF19C6H   LINE      CODE     ---       #141
      00FF19D8H   LINE      CODE     ---       #142
      ---         BLOCKEND  ---      ---       LVL=0

      00FF17C0H   BLOCK     CODE     ---       LVL=0
      0000005FH   SYMBOL    EDATA    BYTE      x
      00000060H   SYMBOL    EDATA    BYTE      y
      REG=3       REGSYM    ---      ---       dp
      00FF17CCH   BLOCK     CODE     NEAR LAB  LVL=1
      00000061H   SYMBOL    EDATA    BYTE      i
      00000062H   SYMBOL    EDATA    BYTE      j
      ---         BLOCKEND  ---      ---       LVL=1
      00FF17C0H   LINE      CODE     ---       #145
      00FF17CCH   LINE      CODE     ---       #146
      00FF17CCH   LINE      CODE     ---       #148
      00FF17D1H   LINE      CODE     ---       #150
      00FF17DCH   LINE      CODE     ---       #151
      00FF17E1H   LINE      CODE     ---       #153
      00FF17EAH   LINE      CODE     ---       #154
      00FF17ECH   LINE      CODE     ---       #155
      00FF17F8H   LINE      CODE     ---       #156
      00FF1801H   LINE      CODE     ---       #157
      00FF1813H   LINE      CODE     ---       #158
      ---         BLOCKEND  ---      ---       LVL=0

      00FF1816H   BLOCK     CODE     ---       LVL=0
      0000005FH   SYMBOL    EDATA    BYTE      x
      00000060H   SYMBOL    EDATA    BYTE      y
      REG=3       REGSYM    ---      ---       dp
      00FF1822H   BLOCK     CODE     NEAR LAB  LVL=1
L251 LINKER/LOCATER V4.66.93.0                                                        07/20/2023  20:58:36  PAGE 15


      00000061H   SYMBOL    EDATA    BYTE      i
      00000062H   SYMBOL    EDATA    BYTE      j
      ---         BLOCKEND  ---      ---       LVL=1
      00FF1816H   LINE      CODE     ---       #161
      00FF1822H   LINE      CODE     ---       #162
      00FF1822H   LINE      CODE     ---       #164
      00FF1827H   LINE      CODE     ---       #166
      00FF1832H   LINE      CODE     ---       #167
      00FF1837H   LINE      CODE     ---       #169
      00FF1840H   LINE      CODE     ---       #170
      00FF1842H   LINE      CODE     ---       #171
      00FF184EH   LINE      CODE     ---       #172
      00FF1857H   LINE      CODE     ---       #173
      00FF1869H   LINE      CODE     ---       #174
      ---         BLOCKEND  ---      ---       LVL=0

      00FF1B0CH   BLOCK     CODE     ---       LVL=0
      R11         REGSYM    ---      BYTE      x
      R10         REGSYM    ---      BYTE      y
      REG=3       REGSYM    ---      ---       dp
      00FF1B10H   BLOCK     CODE     NEAR LAB  LVL=1
      000000ACH   SYMBOL    EDATA    BYTE      i
      ---         BLOCKEND  ---      ---       LVL=1
      00FF1B0CH   LINE      CODE     ---       #177
      00FF1B10H   LINE      CODE     ---       #178
      00FF1B10H   LINE      CODE     ---       #180
      00FF1B13H   LINE      CODE     ---       #181
      00FF1B18H   LINE      CODE     ---       #183
      00FF1B21H   LINE      CODE     ---       #184
      00FF1B23H   LINE      CODE     ---       #185
      00FF1B35H   LINE      CODE     ---       #186
      ---         BLOCKEND  ---      ---       LVL=0

      00FF1C7FH   BLOCK     CODE     ---       LVL=0
      R6          REGSYM    ---      BYTE      dat
      00FF1C81H   BLOCK     CODE     NEAR LAB  LVL=1
      R7          REGSYM    ---      BYTE      i
      ---         BLOCKEND  ---      ---       LVL=1
      00FF1C7FH   LINE      CODE     ---       #189
      00FF1C81H   LINE      CODE     ---       #190
      00FF1C81H   LINE      CODE     ---       #192
      00FF1C84H   LINE      CODE     ---       #194
      00FF1C86H   LINE      CODE     ---       #195
      00FF1C8BH   LINE      CODE     ---       #197
      00FF1C8DH   LINE      CODE     ---       #198
      00FF1C8FH   LINE      CODE     ---       #201
      00FF1C91H   LINE      CODE     ---       #202
      00FF1C91H   LINE      CODE     ---       #203
      00FF1C93H   LINE      CODE     ---       #204
      00FF1C95H   LINE      CODE     ---       #205
      00FF1C99H   LINE      CODE     ---       #206
      ---         BLOCKEND  ---      ---       LVL=0

      00FF0003H   BLOCK     CODE     ---       LVL=0
      R7          REGSYM    ---      BYTE      i
      R10         REGSYM    ---      BYTE      read
      00FF0003H   LINE      CODE     ---       #209
      00FF0003H   LINE      CODE     ---       #210
      00FF0003H   LINE      CODE     ---       #211
      00FF0005H   LINE      CODE     ---       #212
      00FF0008H   LINE      CODE     ---       #214
      00FF000AH   LINE      CODE     ---       #215
      00FF000CH   LINE      CODE     ---       #216
      00FF000FH   LINE      CODE     ---       #218
      00FF0011H   LINE      CODE     ---       #219
L251 LINKER/LOCATER V4.66.93.0                                                        07/20/2023  20:58:36  PAGE 16


      00FF0011H   LINE      CODE     ---       #220
      00FF0013H   LINE      CODE     ---       #221
      00FF0017H   LINE      CODE     ---       #222
      00FF0019H   LINE      CODE     ---       #223
      ---         BLOCKEND  ---      ---       LVL=0

      00FF1765H   BLOCK     CODE     ---       LVL=0
      0000005FH   SYMBOL    EDATA    BYTE      addrHigh
      00000060H   SYMBOL    EDATA    BYTE      addrMid
      00000061H   SYMBOL    EDATA    BYTE      addrLow
      REG=3       REGSYM    ---      ---       pbuff
      00000062H   SYMBOL    EDATA    BYTE      DataLen
      00FF1779H   BLOCK     CODE     NEAR LAB  LVL=1
      00000063H   SYMBOL    EDATA    BYTE      i
      ---         BLOCKEND  ---      ---       LVL=1
      00FF1765H   LINE      CODE     ---       #228
      00FF1779H   LINE      CODE     ---       #229
      00FF1779H   LINE      CODE     ---       #231
      00FF177BH   LINE      CODE     ---       #232
      00FF1780H   LINE      CODE     ---       #233
      00FF1787H   LINE      CODE     ---       #234
      00FF178EH   LINE      CODE     ---       #235
      00FF1795H   LINE      CODE     ---       #236
      00FF1798H   LINE      CODE     ---       #238
      00FF17A8H   LINE      CODE     ---       #239
      00FF17BBH   LINE      CODE     ---       #240
      00FF17BDH   LINE      CODE     ---       #241
      ---         BLOCKEND  ---      ---       LVL=0

      00FF083AH   BLOCK     CODE     ---       LVL=0
      00000029H   SYMBOL    EDATA    BYTE      x
      0000002AH   SYMBOL    EDATA    BYTE      y
      REG=3       REGSYM    ---      ---       text
      00FF0846H   BLOCK     CODE     NEAR LAB  LVL=1
      0000002BH   SYMBOL    EDATA    BYTE      i
      0000002CH   SYMBOL    EDATA    BYTE      addrHigh
      0000002DH   SYMBOL    EDATA    BYTE      addrMid
      0000002EH   SYMBOL    EDATA    BYTE      addrLow
      0000002FH   SYMBOL    EDATA    ---       fontbuf
      00FF09D2H   BLOCK     CODE     NEAR LAB  LVL=2
      0000004FH   SYMBOL    EDATA    ---       fontbuf
      ---         BLOCKEND  ---      ---       LVL=2
      ---         BLOCKEND  ---      ---       LVL=1
      00FF083AH   LINE      CODE     ---       #246
      00FF0846H   LINE      CODE     ---       #247
      00FF0846H   LINE      CODE     ---       #248
      00FF0847H   LINE      CODE     ---       #251
      00FF084AH   LINE      CODE     ---       #253
      00FF087AH   LINE      CODE     ---       #258
      00FF088DH   LINE      CODE     ---       #259
      00FF089BH   LINE      CODE     ---       #260
      00FF08AAH   LINE      CODE     ---       #262
      00FF08B4H   LINE      CODE     ---       #263
      00FF08BAH   LINE      CODE     ---       #264
      00FF08C0H   LINE      CODE     ---       #266
      00FF08CAH   LINE      CODE     ---       #268
      00FF08D9H   LINE      CODE     ---       #270
      00FF08E3H   LINE      CODE     ---       #271
      00FF08E9H   LINE      CODE     ---       #272
      00FF08ECH   LINE      CODE     ---       #273
      00FF092CH   LINE      CODE     ---       #276
      00FF094CH   LINE      CODE     ---       #277
      00FF095AH   LINE      CODE     ---       #278
      00FF0969H   LINE      CODE     ---       #280
      00FF0973H   LINE      CODE     ---       #281
L251 LINKER/LOCATER V4.66.93.0                                                        07/20/2023  20:58:36  PAGE 17


      00FF0979H   LINE      CODE     ---       #282
      00FF097FH   LINE      CODE     ---       #284
      00FF0989H   LINE      CODE     ---       #285
      00FF0998H   LINE      CODE     ---       #286
      00FF09A2H   LINE      CODE     ---       #287
      00FF09A8H   LINE      CODE     ---       #288
      00FF09ABH   LINE      CODE     ---       #289
      00FF09D2H   LINE      CODE     ---       #290
      00FF09D2H   LINE      CODE     ---       #292
      00FF09EBH   LINE      CODE     ---       #293
      00FF09F6H   LINE      CODE     ---       #294
      00FF0A02H   LINE      CODE     ---       #296
      00FF0A0CH   LINE      CODE     ---       #297
      00FF0A12H   LINE      CODE     ---       #298
      00FF0A18H   LINE      CODE     ---       #300
      00FF0A22H   LINE      CODE     ---       #301
      00FF0A31H   LINE      CODE     ---       #302
      00FF0A3BH   LINE      CODE     ---       #303
      00FF0A40H   LINE      CODE     ---       #304
      00FF0A42H   LINE      CODE     ---       #306
      00FF0A4BH   LINE      CODE     ---       #307
      00FF0A60H   LINE      CODE     ---       #308
      ---         BLOCKEND  ---      ---       LVL=0

      00FF1156H   BLOCK     CODE     ---       LVL=0
      00000008H   SYMBOL    EDATA    BYTE      x
      00000009H   SYMBOL    EDATA    BYTE      y
      REG=3       REGSYM    ---      ---       text
      00FF1162H   BLOCK     CODE     NEAR LAB  LVL=1
      0000000AH   SYMBOL    EDATA    BYTE      i
      0000000BH   SYMBOL    EDATA    BYTE      addrHigh
      0000000CH   SYMBOL    EDATA    BYTE      addrMid
      0000000DH   SYMBOL    EDATA    BYTE      addrLow
      00FF117CH   BLOCK     CODE     NEAR LAB  LVL=2
      0000000EH   SYMBOL    EDATA    ---       fontbuf
      ---         BLOCKEND  ---      ---       LVL=2
      ---         BLOCKEND  ---      ---       LVL=1
      00FF1156H   LINE      CODE     ---       #310
      00FF1162H   LINE      CODE     ---       #311
      00FF1162H   LINE      CODE     ---       #312
      00FF1163H   LINE      CODE     ---       #314
      00FF1165H   LINE      CODE     ---       #316
      00FF117CH   LINE      CODE     ---       #317
      00FF117CH   LINE      CODE     ---       #319
      00FF1188H   LINE      CODE     ---       #320
      00FF1192H   LINE      CODE     ---       #321
      00FF119EH   LINE      CODE     ---       #323
      00FF11A8H   LINE      CODE     ---       #324
      00FF11AEH   LINE      CODE     ---       #325
      00FF11B4H   LINE      CODE     ---       #327
      00FF11BEH   LINE      CODE     ---       #328
      00FF11CDH   LINE      CODE     ---       #329
      00FF11D7H   LINE      CODE     ---       #330
      00FF11DCH   LINE      CODE     ---       #331
      00FF11DEH   LINE      CODE     ---       #333
      00FF11E7H   LINE      CODE     ---       #334
      00FF11FCH   LINE      CODE     ---       #335
      ---         BLOCKEND  ---      ---       LVL=0

      00FF0DA3H   BLOCK     CODE     ---       LVL=0
      R15         REGSYM    ---      BYTE      x
      R14         REGSYM    ---      BYTE      y
      DR28        REGSYM    ---      FLOAT     num1
      R13         REGSYM    ---      BYTE      len
      00FF0DADH   BLOCK     CODE     NEAR LAB  LVL=1
L251 LINKER/LOCATER V4.66.93.0                                                        07/20/2023  20:58:36  PAGE 18


      R12         REGSYM    ---      BYTE      i
      00000021H   SYMBOL    EDATA    DWORD     t
      00000025H   SYMBOL    EDATA    DWORD     num
      ---         BLOCKEND  ---      ---       LVL=1
      00FF0DA3H   LINE      CODE     ---       #341
      00FF0DADH   LINE      CODE     ---       #342
      00FF0DADH   LINE      CODE     ---       #343
      00FF0DADH   LINE      CODE     ---       #344
      00FF0DB3H   LINE      CODE     ---       #345
      00FF0DC1H   LINE      CODE     ---       #346
      00FF0DD3H   LINE      CODE     ---       #347
      00FF0DE6H   LINE      CODE     ---       #348
      00FF0DEBH   LINE      CODE     ---       #350
      00FF0DFEH   LINE      CODE     ---       #351
      00FF0E09H   LINE      CODE     ---       #352
      00FF0E0CH   LINE      CODE     ---       #353
      00FF0E14H   LINE      CODE     ---       #354
      00FF0E47H   LINE      CODE     ---       #356
      00FF0E55H   LINE      CODE     ---       #357
      00FF0E63H   LINE      CODE     ---       #358
      00FF0E71H   LINE      CODE     ---       #359
      00FF0E7FH   LINE      CODE     ---       #360
      00FF0E8DH   LINE      CODE     ---       #361
      00FF0E9BH   LINE      CODE     ---       #362
      00FF0EA9H   LINE      CODE     ---       #363
      00FF0EB7H   LINE      CODE     ---       #364
      00FF0EC5H   LINE      CODE     ---       #365
      00FF0ED4H   LINE      CODE     ---       #366
      00FF0ED4H   LINE      CODE     ---       #367
      00FF0EDDH   LINE      CODE     ---       #368
      ---         BLOCKEND  ---      ---       LVL=0

      00FF0FE0H   BLOCK     CODE     ---       LVL=0
      00FF0FE0H   LINE      CODE     ---       #371
      00FF0FE0H   LINE      CODE     ---       #374
      00FF0FE2H   LINE      CODE     ---       #375
      00FF0FE4H   LINE      CODE     ---       #376
      00FF0FEBH   LINE      CODE     ---       #377
      00FF0FF2H   LINE      CODE     ---       #378
      00FF0FF9H   LINE      CODE     ---       #379
      00FF1000H   LINE      CODE     ---       #380
      00FF1007H   LINE      CODE     ---       #381
      00FF100EH   LINE      CODE     ---       #382
      00FF1015H   LINE      CODE     ---       #383
      00FF101CH   LINE      CODE     ---       #384
      00FF1023H   LINE      CODE     ---       #385
      00FF102AH   LINE      CODE     ---       #386
      00FF1031H   LINE      CODE     ---       #387
      00FF1038H   LINE      CODE     ---       #388
      00FF103FH   LINE      CODE     ---       #389
      00FF1046H   LINE      CODE     ---       #390
      00FF104DH   LINE      CODE     ---       #391
      00FF1054H   LINE      CODE     ---       #392
      00FF105BH   LINE      CODE     ---       #393
      00FF1061H   LINE      CODE     ---       #394
      00FF1068H   LINE      CODE     ---       #395
      00FF106FH   LINE      CODE     ---       #396
      00FF1076H   LINE      CODE     ---       #397
      00FF107DH   LINE      CODE     ---       #398
      00FF1084H   LINE      CODE     ---       #399
      00FF108BH   LINE      CODE     ---       #400
      00FF1092H   LINE      CODE     ---       #401
      00FF1099H   LINE      CODE     ---       #402
      00FF109CH   LINE      CODE     ---       #403
      ---         BLOCKEND  ---      ---       LVL=0
L251 LINKER/LOCATER V4.66.93.0                                                        07/20/2023  20:58:36  PAGE 19



      ---         MODULE    ---      ---       Meun
      00FF1DF6H   PUBLIC    HCONST   ---       set
      00FF0A63H   PUBLIC    CODE     ---       Main_Meun
      00FF11FFH   PUBLIC    CODE     ---       Meun_2_control
      00FF129EH   PUBLIC    CODE     ---       Meun_2_angle
      00FF10A3H   PUBLIC    CODE     ---       Memu
      00FF133DH   PUBLIC    CODE     ---       Meun_2_speed
      00FF13DCH   PUBLIC    CODE     ---       Meun_2_Pitching
      000000A8H   PUBLIC    EDATA    INT       page_table
      000000D0H   SFRSYM    DATA     BYTE      PSW
      0000009DH   SFRSYM    DATA     BYTE      IRCBAND
      00000097H   SFRSYM    DATA     BYTE      AUXR2
      000000EFH   SFRSYM    DATA     BYTE      AUXINTIF
      000000FDH   SFRSYM    DATA     BYTE      S4CON
      000000ACH   SFRSYM    DATA     BYTE      S3CON
      0000009AH   SFRSYM    DATA     BYTE      S2CON
      000000B7H   SFRSYM    DATA     BYTE      IPH
      000000CDH   SFRSYM    DATA     BYTE      SPSTAT
      000000DDH   SFRSYM    DATA     BYTE      T4T3M
      000000C1H   SFRSYM    DATA     BYTE      WDT_CONTR
      000000DFH   SFRSYM    DATA     BYTE      IP3
      000000F4H   SFRSYM    DATA     BYTE      USBCON
      000000B5H   SFRSYM    DATA     BYTE      IP2
      000000FFH   SFRSYM    DATA     BYTE      RSTCFG
      000000C7H   SFRSYM    DATA     BYTE      IAP_CONTR
      000000F9H   SFRSYM    DATA     BYTE      LINICR
      0000008EH   SFRSYM    DATA     BYTE      AUXR
      000000AFH   SFRSYM    DATA     BYTE      IE2
      00000088H   SFRSYM    DATA     BYTE      TCON
      00000089H   SFRSYM    DATA     BYTE      TMOD
      00000098H   SFRSYM    DATA     BYTE      SCON
      000000F1H   SFRSYM    DATA     BYTE      CANICR
      00000087H   SFRSYM    DATA     BYTE      PCON
      000000BCH   SFRSYM    DATA     BYTE      ADC_CONTR
      000000E7H   SFRSYM    DATA     BYTE      CMPCR2
      000000E6H   SFRSYM    DATA     BYTE      CMPCR1
      000000DEH   SFRSYM    DATA     BYTE      ADCCFG
      000000B8H   SFRSYM    DATA     BYTE      IP
      0000008FH   SFRSYM    DATA     BYTE      INTCLKO
      000000EEH   SFRSYM    DATA     BYTE      IP3H
      000000B6H   SFRSYM    DATA     BYTE      IP2H
      000000A8H   SFRSYM    DATA     BYTE      IE
      000000BBH   SFRSYM    DATA     BYTE      P_SW3
      000000BAH   SFRSYM    DATA     BYTE      P_SW2
      000000A2H   SFRSYM    DATA     BYTE      P_SW1
      000000CEH   SFRSYM    DATA     BYTE      SPCTL
      000000F8H   SFRSYM    DATA     BYTE      P7
      000000E8H   SFRSYM    DATA     BYTE      P6
      000000C8H   SFRSYM    DATA     BYTE      P5
      000000C0H   SFRSYM    DATA     BYTE      P4
      000000B0H   SFRSYM    DATA     BYTE      P3
      000000A0H   SFRSYM    DATA     BYTE      P2
      00000090H   SFRSYM    DATA     BYTE      P1
      00000080H   SFRSYM    DATA     BYTE      P0

      00FF10A3H   BLOCK     CODE     ---       LVL=0
      00FF10A3H   LINE      CODE     ---       #42
      00FF10A7H   LINE      CODE     ---       #44
      00FF10B4H   LINE      CODE     ---       #46
      00FF10B4H   LINE      CODE     ---       #47
      00FF10B7H   LINE      CODE     ---       #48
      00FF10BAH   LINE      CODE     ---       #49
      00FF10BAH   LINE      CODE     ---       #50
      00FF10E1H   LINE      CODE     ---       #51
L251 LINKER/LOCATER V4.66.93.0                                                        07/20/2023  20:58:36  PAGE 20


      00FF1100H   LINE      CODE     ---       #52
      00FF111FH   LINE      CODE     ---       #53
      00FF1141H   LINE      CODE     ---       #54
      00FF1151H   LINE      CODE     ---       #55
      00FF1151H   LINE      CODE     ---       #56
      00FF1151H   LINE      CODE     ---       #57
      ---         BLOCKEND  ---      ---       LVL=0

      00FF0A63H   BLOCK     CODE     ---       LVL=0
      00FF0A63H   LINE      CODE     ---       #66
      00FF0A65H   LINE      CODE     ---       #68
      00FF0A7EH   LINE      CODE     ---       #70
      00FF0A86H   LINE      CODE     ---       #71
      00FF0AAEH   LINE      CODE     ---       #72
      00FF0AD6H   LINE      CODE     ---       #73
      00FF0AFEH   LINE      CODE     ---       #74
      00FF0B1CH   LINE      CODE     ---       #75
      00FF0B1FH   LINE      CODE     ---       #76
      00FF0B2EH   LINE      CODE     ---       #78
      00FF0B31H   LINE      CODE     ---       #79
      00FF0B36H   LINE      CODE     ---       #80
      00FF0B3AH   LINE      CODE     ---       #81
      00FF0B3DH   LINE      CODE     ---       #82
      00FF0B52H   LINE      CODE     ---       #84
      00FF0B7AH   LINE      CODE     ---       #85
      00FF0BA2H   LINE      CODE     ---       #86
      00FF0BCAH   LINE      CODE     ---       #87
      00FF0BF2H   LINE      CODE     ---       #88
      00FF0BF4H   LINE      CODE     ---       #89
      00FF0C03H   LINE      CODE     ---       #91
      00FF0C06H   LINE      CODE     ---       #92
      00FF0C0CH   LINE      CODE     ---       #93
      00FF0C14H   LINE      CODE     ---       #94
      00FF0C14H   LINE      CODE     ---       #95
      00FF0C24H   LINE      CODE     ---       #97
      00FF0C2BH   LINE      CODE     ---       #98
      ---         BLOCKEND  ---      ---       LVL=0

      00FF133DH   BLOCK     CODE     ---       LVL=0
      00FF133DH   LINE      CODE     ---       #107
      00FF133DH   LINE      CODE     ---       #109
      00FF1365H   LINE      CODE     ---       #110
      00FF138CH   LINE      CODE     ---       #111
      00FF13B4H   LINE      CODE     ---       #112
      ---         BLOCKEND  ---      ---       LVL=0

      00FF129EH   BLOCK     CODE     ---       LVL=0
      00FF129EH   LINE      CODE     ---       #115
      00FF129EH   LINE      CODE     ---       #117
      00FF12C6H   LINE      CODE     ---       #118
      00FF12EDH   LINE      CODE     ---       #119
      00FF1315H   LINE      CODE     ---       #120
      ---         BLOCKEND  ---      ---       LVL=0

      00FF13DCH   BLOCK     CODE     ---       LVL=0
      00FF13DCH   LINE      CODE     ---       #123
      00FF13DCH   LINE      CODE     ---       #125
      00FF1404H   LINE      CODE     ---       #126
      00FF142BH   LINE      CODE     ---       #127
      00FF1453H   LINE      CODE     ---       #128
      ---         BLOCKEND  ---      ---       LVL=0

      00FF11FFH   BLOCK     CODE     ---       LVL=0
      00FF11FFH   LINE      CODE     ---       #131
      00FF11FFH   LINE      CODE     ---       #133
L251 LINKER/LOCATER V4.66.93.0                                                        07/20/2023  20:58:36  PAGE 21


      00FF1227H   LINE      CODE     ---       #134
      00FF124EH   LINE      CODE     ---       #135
      00FF1276H   LINE      CODE     ---       #136
      ---         BLOCKEND  ---      ---       LVL=0

      ---         MODULE    ---      ---       Encoders
      00FF159EH   PUBLIC    CODE     ---       add
      00FF1617H   PUBLIC    CODE     ---       lose
      00FF186CH   PUBLIC    CODE     ---       up_key_detection
      00FF18BBH   PUBLIC    CODE     ---       rotary_encoder
      00FF147BH   PUBLIC    CODE     ---       Cancel_determine
      00FF0C2EH   PUBLIC    CODE     ---       Second_menu_value
      00000096H   PUBLIC    EDATA    WORD      s_count
      00000098H   PUBLIC    EDATA    ---       adjust
      0000009DH   PUBLIC    EDATA    ---       spin
      000000A1H   PUBLIC    EDATA    BYTE      part_count
      000000A2H   PUBLIC    EDATA    BYTE      Confirm_exit
      000000A3H   PUBLIC    EDATA    BYTE      part2_count
      00000020H.0 PUBLIC    BIT      BIT       rising_edge
      00000020H.1 PUBLIC    BIT      BIT       arrow_Value
      00000020H.2 PUBLIC    BIT      BIT       add_lose
      00000020H.3 PUBLIC    BIT      BIT       long_short
      00000020H.4 PUBLIC    BIT      BIT       falling_Down
      000000D0H   SFRSYM    DATA     BYTE      PSW
      0000009DH   SFRSYM    DATA     BYTE      IRCBAND
      00000097H   SFRSYM    DATA     BYTE      AUXR2
      000000EFH   SFRSYM    DATA     BYTE      AUXINTIF
      000000FDH   SFRSYM    DATA     BYTE      S4CON
      000000ACH   SFRSYM    DATA     BYTE      S3CON
      0000009AH   SFRSYM    DATA     BYTE      S2CON
      000000B7H   SFRSYM    DATA     BYTE      IPH
      000000CDH   SFRSYM    DATA     BYTE      SPSTAT
      000000DDH   SFRSYM    DATA     BYTE      T4T3M
      000000C1H   SFRSYM    DATA     BYTE      WDT_CONTR
      000000DFH   SFRSYM    DATA     BYTE      IP3
      000000F4H   SFRSYM    DATA     BYTE      USBCON
      000000B5H   SFRSYM    DATA     BYTE      IP2
      000000FFH   SFRSYM    DATA     BYTE      RSTCFG
      000000C7H   SFRSYM    DATA     BYTE      IAP_CONTR
      000000F9H   SFRSYM    DATA     BYTE      LINICR
      0000008EH   SFRSYM    DATA     BYTE      AUXR
      000000AFH   SFRSYM    DATA     BYTE      IE2
      00000088H   SFRSYM    DATA     BYTE      TCON
      00000089H   SFRSYM    DATA     BYTE      TMOD
      00000098H   SFRSYM    DATA     BYTE      SCON
      000000F1H   SFRSYM    DATA     BYTE      CANICR
      00000087H   SFRSYM    DATA     BYTE      PCON
      000000BCH   SFRSYM    DATA     BYTE      ADC_CONTR
      000000E7H   SFRSYM    DATA     BYTE      CMPCR2
      000000E6H   SFRSYM    DATA     BYTE      CMPCR1
      000000DEH   SFRSYM    DATA     BYTE      ADCCFG
      000000B8H   SFRSYM    DATA     BYTE      IP
      0000008FH   SFRSYM    DATA     BYTE      INTCLKO
      000000B0H.4 SFRSYM    DATA     BIT       EC11_K
      000000EEH   SFRSYM    DATA     BYTE      IP3H
      000000B6H   SFRSYM    DATA     BYTE      IP2H
      000000A8H   SFRSYM    DATA     BYTE      IE
      000000BBH   SFRSYM    DATA     BYTE      P_SW3
      000000BAH   SFRSYM    DATA     BYTE      P_SW2
      000000B0H.3 SFRSYM    DATA     BIT       EC11_B
      000000A2H   SFRSYM    DATA     BYTE      P_SW1
      000000B0H.2 SFRSYM    DATA     BIT       EC11_A
      000000CEH   SFRSYM    DATA     BYTE      SPCTL
      000000F8H   SFRSYM    DATA     BYTE      P7
      000000E8H   SFRSYM    DATA     BYTE      P6
L251 LINKER/LOCATER V4.66.93.0                                                        07/20/2023  20:58:36  PAGE 22


      000000C8H   SFRSYM    DATA     BYTE      P5
      000000C0H   SFRSYM    DATA     BYTE      P4
      000000B0H   SFRSYM    DATA     BYTE      P3
      000000A0H   SFRSYM    DATA     BYTE      P2
      00000090H   SFRSYM    DATA     BYTE      P1
      00000080H   SFRSYM    DATA     BYTE      P0

      00FF186CH   BLOCK     CODE     ---       LVL=0
      00FF186CH   LINE      CODE     ---       #18
      00FF186EH   LINE      CODE     ---       #20
      00FF187CH   LINE      CODE     ---       #21
      00FF1883H   LINE      CODE     ---       #23
      00FF188BH   LINE      CODE     ---       #24
      00FF1893H   LINE      CODE     ---       #25
      00FF18A1H   LINE      CODE     ---       #27
      00FF18A3H   LINE      CODE     ---       #28
      00FF18B1H   LINE      CODE     ---       #29
      00FF18B8H   LINE      CODE     ---       #30
      00FF18B8H   LINE      CODE     ---       #31
      00FF18B8H   LINE      CODE     ---       #32
      ---         BLOCKEND  ---      ---       LVL=0

      00FF18BBH   BLOCK     CODE     ---       LVL=0
      00FF18BBH   LINE      CODE     ---       #38
      00FF18BBH   LINE      CODE     ---       #40
      00FF18CBH   LINE      CODE     ---       #41
      00FF18D2H   LINE      CODE     ---       #43
      00FF18DAH   LINE      CODE     ---       #44
      00FF18E2H   LINE      CODE     ---       #45
      00FF18EEH   LINE      CODE     ---       #47
      00FF18F0H   LINE      CODE     ---       #48
      00FF18FAH   LINE      CODE     ---       #49
      00FF1903H   LINE      CODE     ---       #50
      00FF1903H   LINE      CODE     ---       #51
      00FF1903H   LINE      CODE     ---       #52
      ---         BLOCKEND  ---      ---       LVL=0

      00FF159EH   BLOCK     CODE     ---       LVL=0
      00FF159EH   LINE      CODE     ---       #60
      00FF159EH   LINE      CODE     ---       #62
      00FF15A4H   LINE      CODE     ---       #64
      00FF15ACH   LINE      CODE     ---       #66
      00FF15C2H   LINE      CODE     ---       #67
      00FF15C4H   LINE      CODE     ---       #68
      00FF15C9H   LINE      CODE     ---       #70
      00FF15DFH   LINE      CODE     ---       #71
      00FF15DFH   LINE      CODE     ---       #72
      00FF15F7H   LINE      CODE     ---       #73
      00FF160FH   LINE      CODE     ---       #74
      00FF1612H   LINE      CODE     ---       #75
      00FF1612H   LINE      CODE     ---       #78
      00FF1614H   LINE      CODE     ---       #79
      00FF1617H   LINE      CODE     ---       #80
      00FF1617H   LINE      CODE     ---       #81
      ---         BLOCKEND  ---      ---       LVL=0

      00FF1617H   BLOCK     CODE     ---       LVL=0
      00FF1617H   LINE      CODE     ---       #88
      00FF1617H   LINE      CODE     ---       #90
      00FF161DH   LINE      CODE     ---       #92
      00FF1625H   LINE      CODE     ---       #94
      00FF163BH   LINE      CODE     ---       #95
      00FF163DH   LINE      CODE     ---       #96
      00FF1642H   LINE      CODE     ---       #98
      00FF1658H   LINE      CODE     ---       #99
L251 LINKER/LOCATER V4.66.93.0                                                        07/20/2023  20:58:36  PAGE 23


      00FF1658H   LINE      CODE     ---       #100
      00FF1670H   LINE      CODE     ---       #101
      00FF1688H   LINE      CODE     ---       #102
      00FF168BH   LINE      CODE     ---       #103
      00FF168BH   LINE      CODE     ---       #106
      00FF168DH   LINE      CODE     ---       #107
      00FF1690H   LINE      CODE     ---       #108
      00FF1690H   LINE      CODE     ---       #109
      ---         BLOCKEND  ---      ---       LVL=0

      00FF0C2EH   BLOCK     CODE     ---       LVL=0
      00FF0C2EH   LINE      CODE     ---       #115
      00FF0C2EH   LINE      CODE     ---       #117
      00FF0C49H   LINE      CODE     ---       #118
      00FF0C64H   LINE      CODE     ---       #119
      00FF0C8EH   LINE      CODE     ---       #120
      00FF0CA1H   LINE      CODE     ---       #122
      00FF0CB6H   LINE      CODE     ---       #123
      00FF0CCFH   LINE      CODE     ---       #124
      00FF0CE1H   LINE      CODE     ---       #125
      00FF0CF4H   LINE      CODE     ---       #127
      00FF0D09H   LINE      CODE     ---       #128
      00FF0D22H   LINE      CODE     ---       #129
      00FF0D33H   LINE      CODE     ---       #130
      00FF0D45H   LINE      CODE     ---       #132
      00FF0D5AH   LINE      CODE     ---       #133
      00FF0D73H   LINE      CODE     ---       #134
      00FF0D89H   LINE      CODE     ---       #135
      00FF0DA2H   LINE      CODE     ---       #136
      ---         BLOCKEND  ---      ---       LVL=0

      00FF147BH   BLOCK     CODE     ---       LVL=0
      00FF147BH   LINE      CODE     ---       #143
      00FF147BH   LINE      CODE     ---       #144
      00FF147BH   LINE      CODE     ---       #146
      00FF1487H   LINE      CODE     ---       #148
      00FF1498H   LINE      CODE     ---       #150
      00FF149EH   LINE      CODE     ---       #151
      00FF14A1H   LINE      CODE     ---       #152
      00FF14A3H   LINE      CODE     ---       #153
      00FF14B5H   LINE      CODE     ---       #154
      00FF14BEH   LINE      CODE     ---       #155
      00FF14C4H   LINE      CODE     ---       #156
      00FF14C5H   LINE      CODE     ---       #157
      00FF14D6H   LINE      CODE     ---       #159
      00FF14DCH   LINE      CODE     ---       #160
      00FF14DFH   LINE      CODE     ---       #161
      00FF14E1H   LINE      CODE     ---       #162
      00FF14E3H   LINE      CODE     ---       #163
      00FF14E8H   LINE      CODE     ---       #164
      00FF14ECH   LINE      CODE     ---       #165
      00FF14F0H   LINE      CODE     ---       #166
      00FF14F4H   LINE      CODE     ---       #167
      00FF14F5H   LINE      CODE     ---       #168
      00FF1506H   LINE      CODE     ---       #170
      00FF150CH   LINE      CODE     ---       #171
      00FF150CH   LINE      CODE     ---       #173
      ---         BLOCKEND  ---      ---       LVL=0

      ---         MODULE    ---      ---       timer
      00FF1D6FH   PUBLIC    CODE     ---       delay
      00FF1D36H   PUBLIC    CODE     ---       Timer1Init
      000000AAH   PUBLIC    EDATA    WORD      delay_cnt
      000000D0H   SFRSYM    DATA     BYTE      PSW
      0000009DH   SFRSYM    DATA     BYTE      IRCBAND
L251 LINKER/LOCATER V4.66.93.0                                                        07/20/2023  20:58:36  PAGE 24


      00000097H   SFRSYM    DATA     BYTE      AUXR2
      000000EFH   SFRSYM    DATA     BYTE      AUXINTIF
      000000FDH   SFRSYM    DATA     BYTE      S4CON
      000000ACH   SFRSYM    DATA     BYTE      S3CON
      0000009AH   SFRSYM    DATA     BYTE      S2CON
      000000B7H   SFRSYM    DATA     BYTE      IPH
      000000CDH   SFRSYM    DATA     BYTE      SPSTAT
      000000DDH   SFRSYM    DATA     BYTE      T4T3M
      000000C1H   SFRSYM    DATA     BYTE      WDT_CONTR
      00000088H.6 SFRSYM    DATA     BIT       TR1
      0000008BH   SFRSYM    DATA     BYTE      TL1
      0000008DH   SFRSYM    DATA     BYTE      TH1
      000000DFH   SFRSYM    DATA     BYTE      IP3
      000000F4H   SFRSYM    DATA     BYTE      USBCON
      00000088H.7 SFRSYM    DATA     BIT       TF1
      000000B5H   SFRSYM    DATA     BYTE      IP2
      000000FFH   SFRSYM    DATA     BYTE      RSTCFG
      000000A8H.3 SFRSYM    DATA     BIT       ET1
      000000C7H   SFRSYM    DATA     BYTE      IAP_CONTR
      000000F9H   SFRSYM    DATA     BYTE      LINICR
      0000008EH   SFRSYM    DATA     BYTE      AUXR
      000000AFH   SFRSYM    DATA     BYTE      IE2
      00000088H   SFRSYM    DATA     BYTE      TCON
      00000089H   SFRSYM    DATA     BYTE      TMOD
      00000098H   SFRSYM    DATA     BYTE      SCON
      000000F1H   SFRSYM    DATA     BYTE      CANICR
      00000087H   SFRSYM    DATA     BYTE      PCON
      000000BCH   SFRSYM    DATA     BYTE      ADC_CONTR
      000000E7H   SFRSYM    DATA     BYTE      CMPCR2
      000000E6H   SFRSYM    DATA     BYTE      CMPCR1
      000000DEH   SFRSYM    DATA     BYTE      ADCCFG
      000000B8H   SFRSYM    DATA     BYTE      IP
      0000008FH   SFRSYM    DATA     BYTE      INTCLKO
      000000EEH   SFRSYM    DATA     BYTE      IP3H
      000000B6H   SFRSYM    DATA     BYTE      IP2H
      000000A8H   SFRSYM    DATA     BYTE      IE
      000000BBH   SFRSYM    DATA     BYTE      P_SW3
      000000BAH   SFRSYM    DATA     BYTE      P_SW2
      000000A2H   SFRSYM    DATA     BYTE      P_SW1
      000000CEH   SFRSYM    DATA     BYTE      SPCTL
      000000F8H   SFRSYM    DATA     BYTE      P7
      000000A8H.7 SFRSYM    DATA     BIT       EA
      000000E8H   SFRSYM    DATA     BYTE      P6
      000000C8H   SFRSYM    DATA     BYTE      P5
      000000C0H   SFRSYM    DATA     BYTE      P4
      000000B0H   SFRSYM    DATA     BYTE      P3
      000000A0H   SFRSYM    DATA     BYTE      P2
      00000090H   SFRSYM    DATA     BYTE      P1
      00000080H   SFRSYM    DATA     BYTE      P0

      00FF1D36H   BLOCK     CODE     ---       LVL=0
      00FF1D36H   LINE      CODE     ---       #3
      00FF1D36H   LINE      CODE     ---       #5
      00FF1D39H   LINE      CODE     ---       #6
      00FF1D3CH   LINE      CODE     ---       #7
      00FF1D3FH   LINE      CODE     ---       #8
      00FF1D42H   LINE      CODE     ---       #9
      00FF1D44H   LINE      CODE     ---       #10
      00FF1D46H   LINE      CODE     ---       #11
      00FF1D48H   LINE      CODE     ---       #12
      00FF1D4AH   LINE      CODE     ---       #13
      ---         BLOCKEND  ---      ---       LVL=0

      00FF1D6FH   BLOCK     CODE     ---       LVL=0
      WR6         REGSYM    ---      WORD      delay
L251 LINKER/LOCATER V4.66.93.0                                                        07/20/2023  20:58:36  PAGE 25


      00FF1D6FH   LINE      CODE     ---       #17
      00FF1D6FH   LINE      CODE     ---       #19
      00FF1D73H   LINE      CODE     ---       #20
      00FF1D7DH   LINE      CODE     ---       #21
      ---         BLOCKEND  ---      ---       LVL=0

      ---         MODULE    ---      ---       Uart
      00FF1CB1H   PUBLIC    CODE     ---       UartInit
      00FF1D98H   PUBLIC    CODE     ---       Uart1_Isr
      00FF1DA2H   PUBLIC    CODE     ---       Uart_sendbyte
      00FF1CF6H   PUBLIC    CODE     ---       Uart_String
      000000D0H   SFRSYM    DATA     BYTE      PSW
      0000009DH   SFRSYM    DATA     BYTE      IRCBAND
      00000097H   SFRSYM    DATA     BYTE      AUXR2
      000000EFH   SFRSYM    DATA     BYTE      AUXINTIF
      000000FDH   SFRSYM    DATA     BYTE      S4CON
      000000ACH   SFRSYM    DATA     BYTE      S3CON
      0000009AH   SFRSYM    DATA     BYTE      S2CON
      000000B7H   SFRSYM    DATA     BYTE      IPH
      000000CDH   SFRSYM    DATA     BYTE      SPSTAT
      000000DDH   SFRSYM    DATA     BYTE      T4T3M
      000000C1H   SFRSYM    DATA     BYTE      WDT_CONTR
      000000D7H   SFRSYM    DATA     BYTE      T2L
      000000D6H   SFRSYM    DATA     BYTE      T2H
      000000DFH   SFRSYM    DATA     BYTE      IP3
      000000F4H   SFRSYM    DATA     BYTE      USBCON
      000000B5H   SFRSYM    DATA     BYTE      IP2
      000000FFH   SFRSYM    DATA     BYTE      RSTCFG
      000000C7H   SFRSYM    DATA     BYTE      IAP_CONTR
      000000F9H   SFRSYM    DATA     BYTE      LINICR
      0000008EH   SFRSYM    DATA     BYTE      AUXR
      000000AFH   SFRSYM    DATA     BYTE      IE2
      00000088H   SFRSYM    DATA     BYTE      TCON
      00000089H   SFRSYM    DATA     BYTE      TMOD
      00000098H   SFRSYM    DATA     BYTE      SCON
      000000F1H   SFRSYM    DATA     BYTE      CANICR
      00000087H   SFRSYM    DATA     BYTE      PCON
      00000099H   SFRSYM    DATA     BYTE      SBUF
      000000BCH   SFRSYM    DATA     BYTE      ADC_CONTR
      000000E7H   SFRSYM    DATA     BYTE      CMPCR2
      000000E6H   SFRSYM    DATA     BYTE      CMPCR1
      00000098H.1 SFRSYM    DATA     BIT       TI
      00000098H.0 SFRSYM    DATA     BIT       RI
      000000DEH   SFRSYM    DATA     BYTE      ADCCFG
      000000B8H   SFRSYM    DATA     BYTE      IP
      000000A8H.4 SFRSYM    DATA     BIT       ES
      0000008FH   SFRSYM    DATA     BYTE      INTCLKO
      000000EEH   SFRSYM    DATA     BYTE      IP3H
      000000B6H   SFRSYM    DATA     BYTE      IP2H
      000000A8H   SFRSYM    DATA     BYTE      IE
      000000BBH   SFRSYM    DATA     BYTE      P_SW3
      000000BAH   SFRSYM    DATA     BYTE      P_SW2
      000000A2H   SFRSYM    DATA     BYTE      P_SW1
      000000CEH   SFRSYM    DATA     BYTE      SPCTL
      000000F8H   SFRSYM    DATA     BYTE      P7
      000000A8H.7 SFRSYM    DATA     BIT       EA
      000000E8H   SFRSYM    DATA     BYTE      P6
      000000C8H   SFRSYM    DATA     BYTE      P5
      000000C0H   SFRSYM    DATA     BYTE      P4
      000000B0H   SFRSYM    DATA     BYTE      P3
      000000A0H   SFRSYM    DATA     BYTE      P2
      00000090H   SFRSYM    DATA     BYTE      P1
      00000080H   SFRSYM    DATA     BYTE      P0

      00FF1CB1H   BLOCK     CODE     ---       LVL=0
L251 LINKER/LOCATER V4.66.93.0                                                        07/20/2023  20:58:36  PAGE 26


      00FF1CB1H   LINE      CODE     ---       #2
      00FF1CB1H   LINE      CODE     ---       #4
      00FF1CB4H   LINE      CODE     ---       #5
      00FF1CB7H   LINE      CODE     ---       #6
      00FF1CBAH   LINE      CODE     ---       #7
      00FF1CBDH   LINE      CODE     ---       #8
      00FF1CC0H   LINE      CODE     ---       #9
      00FF1CC3H   LINE      CODE     ---       #10
      00FF1CC5H   LINE      CODE     ---       #11
      00FF1CC7H   LINE      CODE     ---       #12
      ---         BLOCKEND  ---      ---       LVL=0

      00FF1DA2H   BLOCK     CODE     ---       LVL=0
      R11         REGSYM    ---      BYTE      byte
      00FF1DA2H   LINE      CODE     ---       #14
      00FF1DA2H   LINE      CODE     ---       #16
      00FF1DA5H   LINE      CODE     ---       #17
      00FF1DA8H   LINE      CODE     ---       #18
      00FF1DAAH   LINE      CODE     ---       #19
      ---         BLOCKEND  ---      ---       LVL=0

      00FF1CF6H   BLOCK     CODE     ---       LVL=0
      REG=3       REGSYM    ---      ---       p
      00FF1CF6H   LINE      CODE     ---       #21
      00FF1CFAH   LINE      CODE     ---       #23
      00FF1CFCH   LINE      CODE     ---       #25
      00FF1D04H   LINE      CODE     ---       #26
      00FF1D09H   LINE      CODE     ---       #27
      ---         BLOCKEND  ---      ---       LVL=0

      00FF1D98H   BLOCK     CODE     ---       LVL=0
      00FF1D98H   LINE      CODE     ---       #29
      00FF1D9AH   LINE      CODE     ---       #31
      00FF1D9DH   LINE      CODE     ---       #33
      00FF1D9FH   LINE      CODE     ---       #34
      ---         BLOCKEND  ---      ---       LVL=0

      ---         MODULE    ---      ---       iic
      00FF1D8CH   PUBLIC    CODE     ---       IIC_Delay
      00FF1D5EH   PUBLIC    CODE     ---       IIC_Start
      00FF1A83H   PUBLIC    CODE     ---       Hall_element
      00FF1CC8H   PUBLIC    CODE     ---       IIC_SendAck
      00FF1AB2H   PUBLIC    CODE     ---       IIC_SendByte
      00FF1D4BH   PUBLIC    CODE     ---       IIC_WaitAck
      00FF1D7EH   PUBLIC    CODE     ---       IIC_Stop
      00FF1BB7H   PUBLIC    CODE     ---       IIC_RecByte
      00000020H.5 PUBLIC    BIT      BIT       ?IIC_SendAck?BIT
      000000D0H   SFRSYM    DATA     BYTE      PSW
      0000009DH   SFRSYM    DATA     BYTE      IRCBAND
      00000097H   SFRSYM    DATA     BYTE      AUXR2
      000000EFH   SFRSYM    DATA     BYTE      AUXINTIF
      000000FDH   SFRSYM    DATA     BYTE      S4CON
      000000ACH   SFRSYM    DATA     BYTE      S3CON
      0000009AH   SFRSYM    DATA     BYTE      S2CON
      000000A0H.0 SFRSYM    DATA     BIT       SCL
      000000B7H   SFRSYM    DATA     BYTE      IPH
      000000CDH   SFRSYM    DATA     BYTE      SPSTAT
      000000DDH   SFRSYM    DATA     BYTE      T4T3M
      000000C1H   SFRSYM    DATA     BYTE      WDT_CONTR
      000000A0H.2 SFRSYM    DATA     BIT       SDA
      000000DFH   SFRSYM    DATA     BYTE      IP3
      000000F4H   SFRSYM    DATA     BYTE      USBCON
      000000B5H   SFRSYM    DATA     BYTE      IP2
      000000FFH   SFRSYM    DATA     BYTE      RSTCFG
      000000C7H   SFRSYM    DATA     BYTE      IAP_CONTR
L251 LINKER/LOCATER V4.66.93.0                                                        07/20/2023  20:58:36  PAGE 27


      000000F9H   SFRSYM    DATA     BYTE      LINICR
      0000008EH   SFRSYM    DATA     BYTE      AUXR
      000000AFH   SFRSYM    DATA     BYTE      IE2
      00000088H   SFRSYM    DATA     BYTE      TCON
      00000089H   SFRSYM    DATA     BYTE      TMOD
      00000098H   SFRSYM    DATA     BYTE      SCON
      000000F1H   SFRSYM    DATA     BYTE      CANICR
      00000087H   SFRSYM    DATA     BYTE      PCON
      000000BCH   SFRSYM    DATA     BYTE      ADC_CONTR
      000000E7H   SFRSYM    DATA     BYTE      CMPCR2
      000000E6H   SFRSYM    DATA     BYTE      CMPCR1
      000000DEH   SFRSYM    DATA     BYTE      ADCCFG
      000000B8H   SFRSYM    DATA     BYTE      IP
      0000008FH   SFRSYM    DATA     BYTE      INTCLKO
      000000EEH   SFRSYM    DATA     BYTE      IP3H
      000000B6H   SFRSYM    DATA     BYTE      IP2H
      000000A8H   SFRSYM    DATA     BYTE      IE
      000000BBH   SFRSYM    DATA     BYTE      P_SW3
      000000BAH   SFRSYM    DATA     BYTE      P_SW2
      000000A2H   SFRSYM    DATA     BYTE      P_SW1
      000000CEH   SFRSYM    DATA     BYTE      SPCTL
      000000F8H   SFRSYM    DATA     BYTE      P7
      000000E8H   SFRSYM    DATA     BYTE      P6
      000000C8H   SFRSYM    DATA     BYTE      P5
      000000C0H   SFRSYM    DATA     BYTE      P4
      000000B0H   SFRSYM    DATA     BYTE      P3
      000000A0H   SFRSYM    DATA     BYTE      P2
      00000090H   SFRSYM    DATA     BYTE      P1
      00000080H   SFRSYM    DATA     BYTE      P0

      00FF1D8CH   BLOCK     CODE     ---       LVL=0
      R7          REGSYM    ---      BYTE      i
      00FF1D8CH   LINE      CODE     ---       #8
      00FF1D8EH   LINE      CODE     ---       #10
      00FF1D97H   LINE      CODE     ---       #12
      ---         BLOCKEND  ---      ---       LVL=0

      00FF1D5EH   BLOCK     CODE     ---       LVL=0
      00FF1D5EH   LINE      CODE     ---       #15
      00FF1D5EH   LINE      CODE     ---       #17
      00FF1D60H   LINE      CODE     ---       #18
      00FF1D62H   LINE      CODE     ---       #19
      00FF1D67H   LINE      CODE     ---       #20
      00FF1D69H   LINE      CODE     ---       #21
      00FF1D6CH   LINE      CODE     ---       #22
      00FF1D6EH   LINE      CODE     ---       #23
      ---         BLOCKEND  ---      ---       LVL=0

      00FF1D7EH   BLOCK     CODE     ---       LVL=0
      00FF1D7EH   LINE      CODE     ---       #26
      00FF1D7EH   LINE      CODE     ---       #28
      00FF1D80H   LINE      CODE     ---       #29
      00FF1D82H   LINE      CODE     ---       #30
      00FF1D87H   LINE      CODE     ---       #31
      00FF1D89H   LINE      CODE     ---       #32
      ---         BLOCKEND  ---      ---       LVL=0

      00FF1CC8H   BLOCK     CODE     ---       LVL=0
      00000020H.5 SYMBOL    BIT      BIT       ackbit
      00FF1CC8H   LINE      CODE     ---       #36
      00FF1CC8H   LINE      CODE     ---       #38
      00FF1CCAH   LINE      CODE     ---       #39
      00FF1CCEH   LINE      CODE     ---       #40
      00FF1CD3H   LINE      CODE     ---       #41
      00FF1CD5H   LINE      CODE     ---       #42
L251 LINKER/LOCATER V4.66.93.0                                                        07/20/2023  20:58:36  PAGE 28


      00FF1CD8H   LINE      CODE     ---       #43
      00FF1CDAH   LINE      CODE     ---       #44
      00FF1CDCH   LINE      CODE     ---       #45
      ---         BLOCKEND  ---      ---       LVL=0

      00FF1D4BH   BLOCK     CODE     ---       LVL=0
      00000020H.6 SYMBOL    BIT      BIT       ackbit
      00FF1D4BH   LINE      CODE     ---       #49
      00FF1D4BH   LINE      CODE     ---       #50
      00FF1D4BH   LINE      CODE     ---       #52
      00FF1D4DH   LINE      CODE     ---       #53
      00FF1D52H   LINE      CODE     ---       #54
      00FF1D56H   LINE      CODE     ---       #55
      00FF1D58H   LINE      CODE     ---       #56
      00FF1D5BH   LINE      CODE     ---       #57
      00FF1D5DH   LINE      CODE     ---       #58
      ---         BLOCKEND  ---      ---       LVL=0

      00FF1AB2H   BLOCK     CODE     ---       LVL=0
      R15         REGSYM    ---      BYTE      byt
      00FF1AB6H   BLOCK     CODE     NEAR LAB  LVL=1
      R14         REGSYM    ---      BYTE      i
      ---         BLOCKEND  ---      ---       LVL=1
      00FF1AB2H   LINE      CODE     ---       #61
      00FF1AB6H   LINE      CODE     ---       #62
      00FF1AB6H   LINE      CODE     ---       #63
      00FF1AB6H   LINE      CODE     ---       #64
      00FF1AB9H   LINE      CODE     ---       #66
      00FF1ABBH   LINE      CODE     ---       #67
      00FF1AC0H   LINE      CODE     ---       #68
      00FF1AC9H   LINE      CODE     ---       #69
      00FF1ACBH   LINE      CODE     ---       #70
      00FF1AD0H   LINE      CODE     ---       #71
      00FF1AD2H   LINE      CODE     ---       #72
      00FF1AD4H   LINE      CODE     ---       #73
      00FF1AD7H   LINE      CODE     ---       #74
      00FF1ADBH   LINE      CODE     ---       #75
      00FF1ADDH   LINE      CODE     ---       #76
      ---         BLOCKEND  ---      ---       LVL=0

      00FF1BB7H   BLOCK     CODE     ---       LVL=0
      00FF1BB9H   BLOCK     CODE     NEAR LAB  LVL=1
      R14         REGSYM    ---      BYTE      i
      R15         REGSYM    ---      BYTE      da
      ---         BLOCKEND  ---      ---       LVL=1
      00FF1BB7H   LINE      CODE     ---       #79
      00FF1BB9H   LINE      CODE     ---       #80
      00FF1BB9H   LINE      CODE     ---       #81
      00FF1BBBH   LINE      CODE     ---       #82
      00FF1BBEH   LINE      CODE     ---       #84
      00FF1BC0H   LINE      CODE     ---       #85
      00FF1BC5H   LINE      CODE     ---       #86
      00FF1BC7H   LINE      CODE     ---       #87
      00FF1BCDH   LINE      CODE     ---       #88
      00FF1BCFH   LINE      CODE     ---       #89
      00FF1BD4H   LINE      CODE     ---       #90
      00FF1BD8H   LINE      CODE     ---       #91
      00FF1BDAH   LINE      CODE     ---       #92
      ---         BLOCKEND  ---      ---       LVL=0

      00FF1A83H   BLOCK     CODE     ---       LVL=0
      R15         REGSYM    ---      BYTE      readaddr
      00FF1A87H   BLOCK     CODE     NEAR LAB  LVL=1
      R15         REGSYM    ---      BYTE      temp
      ---         BLOCKEND  ---      ---       LVL=1
L251 LINKER/LOCATER V4.66.93.0                                                        07/20/2023  20:58:36  PAGE 29


      00FF1A83H   LINE      CODE     ---       #93
      00FF1A87H   LINE      CODE     ---       #94
      00FF1A87H   LINE      CODE     ---       #95
      00FF1A87H   LINE      CODE     ---       #96
      00FF1A8AH   LINE      CODE     ---       #97
      00FF1A8FH   LINE      CODE     ---       #98
      00FF1A92H   LINE      CODE     ---       #99
      00FF1A97H   LINE      CODE     ---       #100
      00FF1A9AH   LINE      CODE     ---       #102
      00FF1A9DH   LINE      CODE     ---       #103
      00FF1AA2H   LINE      CODE     ---       #104
      00FF1AA5H   LINE      CODE     ---       #105
      00FF1AAAH   LINE      CODE     ---       #106
      00FF1AADH   LINE      CODE     ---       #107
      00FF1AAFH   LINE      CODE     ---       #108
      ---         BLOCKEND  ---      ---       LVL=0

      ---         MODULE    ---      ---       pwm
      00FF1B8EH   PUBLIC    CODE     ---       Update_duty
      00FF150DH   PUBLIC    CODE     ---       PWMA_Config
      0000001AH   PUBLIC    EDATA    WORD      duty
      0000001CH   PUBLIC    EDATA    WORD      duty2
      000000D0H   SFRSYM    DATA     BYTE      PSW
      0000009DH   SFRSYM    DATA     BYTE      IRCBAND
      00000097H   SFRSYM    DATA     BYTE      AUXR2
      000000EFH   SFRSYM    DATA     BYTE      AUXINTIF
      000000FDH   SFRSYM    DATA     BYTE      S4CON
      000000ACH   SFRSYM    DATA     BYTE      S3CON
      0000009AH   SFRSYM    DATA     BYTE      S2CON
      000000B7H   SFRSYM    DATA     BYTE      IPH
      000000CDH   SFRSYM    DATA     BYTE      SPSTAT
      000000DDH   SFRSYM    DATA     BYTE      T4T3M
      000000C1H   SFRSYM    DATA     BYTE      WDT_CONTR
      000000DFH   SFRSYM    DATA     BYTE      IP3
      000000F4H   SFRSYM    DATA     BYTE      USBCON
      000000B5H   SFRSYM    DATA     BYTE      IP2
      000000FFH   SFRSYM    DATA     BYTE      RSTCFG
      000000C7H   SFRSYM    DATA     BYTE      IAP_CONTR
      000000F9H   SFRSYM    DATA     BYTE      LINICR
      0000008EH   SFRSYM    DATA     BYTE      AUXR
      000000AFH   SFRSYM    DATA     BYTE      IE2
      00000088H   SFRSYM    DATA     BYTE      TCON
      00000089H   SFRSYM    DATA     BYTE      TMOD
      00000098H   SFRSYM    DATA     BYTE      SCON
      000000F1H   SFRSYM    DATA     BYTE      CANICR
      00000087H   SFRSYM    DATA     BYTE      PCON
      000000BCH   SFRSYM    DATA     BYTE      ADC_CONTR
      000000E7H   SFRSYM    DATA     BYTE      CMPCR2
      000000E6H   SFRSYM    DATA     BYTE      CMPCR1
      000000DEH   SFRSYM    DATA     BYTE      ADCCFG
      000000B8H   SFRSYM    DATA     BYTE      IP
      0000008FH   SFRSYM    DATA     BYTE      INTCLKO
      000000EEH   SFRSYM    DATA     BYTE      IP3H
      000000B6H   SFRSYM    DATA     BYTE      IP2H
      000000A8H   SFRSYM    DATA     BYTE      IE
      000000BBH   SFRSYM    DATA     BYTE      P_SW3
      000000BAH   SFRSYM    DATA     BYTE      P_SW2
      000000A2H   SFRSYM    DATA     BYTE      P_SW1
      000000CEH   SFRSYM    DATA     BYTE      SPCTL
      000000F8H   SFRSYM    DATA     BYTE      P7
      000000E8H   SFRSYM    DATA     BYTE      P6
      000000C8H   SFRSYM    DATA     BYTE      P5
      000000C0H   SFRSYM    DATA     BYTE      P4
      000000B0H   SFRSYM    DATA     BYTE      P3
      000000A0H   SFRSYM    DATA     BYTE      P2
L251 LINKER/LOCATER V4.66.93.0                                                        07/20/2023  20:58:36  PAGE 30


      00000090H   SFRSYM    DATA     BYTE      P1
      00000080H   SFRSYM    DATA     BYTE      P0

      00FF150DH   BLOCK     CODE     ---       LVL=0
      00FF150DH   LINE      CODE     ---       #9
      00FF150DH   LINE      CODE     ---       #11
      00FF151AH   LINE      CODE     ---       #13
      00FF1522H   LINE      CODE     ---       #14
      00FF152BH   LINE      CODE     ---       #16
      00FF1533H   LINE      CODE     ---       #17
      00FF1540H   LINE      CODE     ---       #18
      00FF1547H   LINE      CODE     ---       #19
      00FF154CH   LINE      CODE     ---       #21
      00FF1555H   LINE      CODE     ---       #22
      00FF155EH   LINE      CODE     ---       #24
      00FF1567H   LINE      CODE     ---       #25
      00FF1570H   LINE      CODE     ---       #27
      00FF1579H   LINE      CODE     ---       #28
      00FF1582H   LINE      CODE     ---       #30
      00FF158BH   LINE      CODE     ---       #31
      00FF1594H   LINE      CODE     ---       #33
      00FF159DH   LINE      CODE     ---       #34
      ---         BLOCKEND  ---      ---       LVL=0

      00FF1B8EH   BLOCK     CODE     ---       LVL=0
      00FF1B8EH   LINE      CODE     ---       #36
      00FF1B8EH   LINE      CODE     ---       #54
      00FF1B9DH   LINE      CODE     ---       #55
      00FF1BA4H   LINE      CODE     ---       #57
      00FF1BAFH   LINE      CODE     ---       #58
      00FF1BB6H   LINE      CODE     ---       #63
      ---         BLOCKEND  ---      ---       LVL=0

      ---         MODULE    ---      ---       GPIO
      00FF19DBH   PUBLIC    CODE     ---       GPIO_init
      00000094H   SFRSYM    DATA     BYTE      P0M0
      000000D0H   SFRSYM    DATA     BYTE      PSW
      000000BAH.7 SFRSYM    DATA     BIT       EAXFR
      0000009DH   SFRSYM    DATA     BYTE      IRCBAND
      00000097H   SFRSYM    DATA     BYTE      AUXR2
      000000EAH   SFRSYM    DATA     BYTE      CKCON
      000000EFH   SFRSYM    DATA     BYTE      AUXINTIF
      000000FDH   SFRSYM    DATA     BYTE      S4CON
      000000ACH   SFRSYM    DATA     BYTE      S3CON
      0000009AH   SFRSYM    DATA     BYTE      S2CON
      000000B7H   SFRSYM    DATA     BYTE      IPH
      000000CDH   SFRSYM    DATA     BYTE      SPSTAT
      000000DDH   SFRSYM    DATA     BYTE      T4T3M
      000000C1H   SFRSYM    DATA     BYTE      WDT_CONTR
      000000E9H   SFRSYM    DATA     BYTE      WTST
      000000DFH   SFRSYM    DATA     BYTE      IP3
      000000F4H   SFRSYM    DATA     BYTE      USBCON
      000000B5H   SFRSYM    DATA     BYTE      IP2
      000000FFH   SFRSYM    DATA     BYTE      RSTCFG
      000000C7H   SFRSYM    DATA     BYTE      IAP_CONTR
      000000F9H   SFRSYM    DATA     BYTE      LINICR
      0000008EH   SFRSYM    DATA     BYTE      AUXR
      000000AFH   SFRSYM    DATA     BYTE      IE2
      00000088H   SFRSYM    DATA     BYTE      TCON
      00000089H   SFRSYM    DATA     BYTE      TMOD
      00000098H   SFRSYM    DATA     BYTE      SCON
      000000F1H   SFRSYM    DATA     BYTE      CANICR
      00000087H   SFRSYM    DATA     BYTE      PCON
      000000BCH   SFRSYM    DATA     BYTE      ADC_CONTR
      000000E7H   SFRSYM    DATA     BYTE      CMPCR2
L251 LINKER/LOCATER V4.66.93.0                                                        07/20/2023  20:58:36  PAGE 31


      000000E6H   SFRSYM    DATA     BYTE      CMPCR1
      000000DEH   SFRSYM    DATA     BYTE      ADCCFG
      000000B8H   SFRSYM    DATA     BYTE      IP
      0000008FH   SFRSYM    DATA     BYTE      INTCLKO
      000000EEH   SFRSYM    DATA     BYTE      IP3H
      000000B6H   SFRSYM    DATA     BYTE      IP2H
      000000A8H   SFRSYM    DATA     BYTE      IE
      000000BBH   SFRSYM    DATA     BYTE      P_SW3
      000000BAH   SFRSYM    DATA     BYTE      P_SW2
      000000A2H   SFRSYM    DATA     BYTE      P_SW1
      000000CEH   SFRSYM    DATA     BYTE      SPCTL
      000000F8H   SFRSYM    DATA     BYTE      P7
      000000E1H   SFRSYM    DATA     BYTE      P7M1
      000000E8H   SFRSYM    DATA     BYTE      P6
      000000C8H   SFRSYM    DATA     BYTE      P5
      000000CBH   SFRSYM    DATA     BYTE      P6M1
      000000E2H   SFRSYM    DATA     BYTE      P7M0
      000000C0H   SFRSYM    DATA     BYTE      P4
      000000C9H   SFRSYM    DATA     BYTE      P5M1
      000000CCH   SFRSYM    DATA     BYTE      P6M0
      000000B0H   SFRSYM    DATA     BYTE      P3
      000000B3H   SFRSYM    DATA     BYTE      P4M1
      000000CAH   SFRSYM    DATA     BYTE      P5M0
      000000A0H   SFRSYM    DATA     BYTE      P2
      000000B1H   SFRSYM    DATA     BYTE      P3M1
      000000B4H   SFRSYM    DATA     BYTE      P4M0
      00000090H   SFRSYM    DATA     BYTE      P1
      00000095H   SFRSYM    DATA     BYTE      P2M1
      000000B2H   SFRSYM    DATA     BYTE      P3M0
      00000080H   SFRSYM    DATA     BYTE      P0
      00000091H   SFRSYM    DATA     BYTE      P1M1
      00000096H   SFRSYM    DATA     BYTE      P2M0
      00000092H   SFRSYM    DATA     BYTE      P1M0
      00000093H   SFRSYM    DATA     BYTE      P0M1

      00FF19DBH   BLOCK     CODE     ---       LVL=0
      00FF19DBH   LINE      CODE     ---       #3
      00FF19DBH   LINE      CODE     ---       #5
      00FF19DEH   LINE      CODE     ---       #6
      00FF19E1H   LINE      CODE     ---       #7
      00FF19E4H   LINE      CODE     ---       #9
      00FF19EAH   LINE      CODE     ---       #10
      00FF19F0H   LINE      CODE     ---       #11
      00FF19F6H   LINE      CODE     ---       #12
      00FF19FCH   LINE      CODE     ---       #13
      00FF1A02H   LINE      CODE     ---       #14
      00FF1A08H   LINE      CODE     ---       #15
      00FF1A0EH   LINE      CODE     ---       #16
      00FF1A14H   LINE      CODE     ---       #17
      ---         BLOCKEND  ---      ---       LVL=0

      ---         MODULE    ---      ---       motor
      000000D0H   SFRSYM    DATA     BYTE      PSW
      0000009DH   SFRSYM    DATA     BYTE      IRCBAND
      00000097H   SFRSYM    DATA     BYTE      AUXR2
      000000EFH   SFRSYM    DATA     BYTE      AUXINTIF
      000000FDH   SFRSYM    DATA     BYTE      S4CON
      000000ACH   SFRSYM    DATA     BYTE      S3CON
      0000009AH   SFRSYM    DATA     BYTE      S2CON
      000000B7H   SFRSYM    DATA     BYTE      IPH
      000000CDH   SFRSYM    DATA     BYTE      SPSTAT
      000000DDH   SFRSYM    DATA     BYTE      T4T3M
      000000C1H   SFRSYM    DATA     BYTE      WDT_CONTR
      000000DFH   SFRSYM    DATA     BYTE      IP3
      000000F4H   SFRSYM    DATA     BYTE      USBCON
L251 LINKER/LOCATER V4.66.93.0                                                        07/20/2023  20:58:36  PAGE 32


      000000B5H   SFRSYM    DATA     BYTE      IP2
      000000FFH   SFRSYM    DATA     BYTE      RSTCFG
      000000C7H   SFRSYM    DATA     BYTE      IAP_CONTR
      000000F9H   SFRSYM    DATA     BYTE      LINICR
      0000008EH   SFRSYM    DATA     BYTE      AUXR
      000000AFH   SFRSYM    DATA     BYTE      IE2
      00000088H   SFRSYM    DATA     BYTE      TCON
      00000089H   SFRSYM    DATA     BYTE      TMOD
      00000098H   SFRSYM    DATA     BYTE      SCON
      000000F1H   SFRSYM    DATA     BYTE      CANICR
      00000087H   SFRSYM    DATA     BYTE      PCON
      000000BCH   SFRSYM    DATA     BYTE      ADC_CONTR
      000000E7H   SFRSYM    DATA     BYTE      CMPCR2
      000000E6H   SFRSYM    DATA     BYTE      CMPCR1
      000000DEH   SFRSYM    DATA     BYTE      ADCCFG
      000000B8H   SFRSYM    DATA     BYTE      IP
      0000008FH   SFRSYM    DATA     BYTE      INTCLKO
      000000EEH   SFRSYM    DATA     BYTE      IP3H
      000000B6H   SFRSYM    DATA     BYTE      IP2H
      000000A8H   SFRSYM    DATA     BYTE      IE
      000000BBH   SFRSYM    DATA     BYTE      P_SW3
      000000BAH   SFRSYM    DATA     BYTE      P_SW2
      000000A2H   SFRSYM    DATA     BYTE      P_SW1
      000000CEH   SFRSYM    DATA     BYTE      SPCTL
      000000F8H   SFRSYM    DATA     BYTE      P7
      000000E8H   SFRSYM    DATA     BYTE      P6
      000000C8H   SFRSYM    DATA     BYTE      P5
      000000C0H   SFRSYM    DATA     BYTE      P4
      000000B0H   SFRSYM    DATA     BYTE      P3
      000000A0H   SFRSYM    DATA     BYTE      P2
      00000090H   SFRSYM    DATA     BYTE      P1
      00000080H   SFRSYM    DATA     BYTE      P0

      ---         MODULE    ---      ---       ADC
      00FF1C03H   PUBLIC    CODE     ---       ADC_Readchannel_1
      00FF1C24H   PUBLIC    CODE     ---       ADC_Readchannel_2
      00FF1C63H   PUBLIC    CODE     ---       ADC_Readchannel_3
      00FF1BDDH   PUBLIC    CODE     ---       ADC_Read
      00FF1CDFH   PUBLIC    CODE     ---       ADC_Init
      0000009CH   PUBLIC    EDATA    BYTE      ?ADC_Read?BYTE
      000000D0H   SFRSYM    DATA     BYTE      PSW
      0000009DH   SFRSYM    DATA     BYTE      IRCBAND
      00000097H   SFRSYM    DATA     BYTE      AUXR2
      000000EFH   SFRSYM    DATA     BYTE      AUXINTIF
      000000FDH   SFRSYM    DATA     BYTE      S4CON
      000000ACH   SFRSYM    DATA     BYTE      S3CON
      0000009AH   SFRSYM    DATA     BYTE      S2CON
      000000B7H   SFRSYM    DATA     BYTE      IPH
      000000CDH   SFRSYM    DATA     BYTE      SPSTAT
      000000BEH   SFRSYM    DATA     BYTE      ADC_RESL
      000000DDH   SFRSYM    DATA     BYTE      T4T3M
      000000C1H   SFRSYM    DATA     BYTE      WDT_CONTR
      000000DFH   SFRSYM    DATA     BYTE      IP3
      000000F4H   SFRSYM    DATA     BYTE      USBCON
      000000B5H   SFRSYM    DATA     BYTE      IP2
      000000FFH   SFRSYM    DATA     BYTE      RSTCFG
      000000BCH.5 SFRSYM    DATA     BIT       ADC_FLAG
      000000C7H   SFRSYM    DATA     BYTE      IAP_CONTR
      000000F9H   SFRSYM    DATA     BYTE      LINICR
      0000008EH   SFRSYM    DATA     BYTE      AUXR
      000000AFH   SFRSYM    DATA     BYTE      IE2
      000000BCH.6 SFRSYM    DATA     BIT       ADC_START
      000000BCH.7 SFRSYM    DATA     BIT       ADC_POWER
      00000088H   SFRSYM    DATA     BYTE      TCON
      00000089H   SFRSYM    DATA     BYTE      TMOD
L251 LINKER/LOCATER V4.66.93.0                                                        07/20/2023  20:58:36  PAGE 33


      00000098H   SFRSYM    DATA     BYTE      SCON
      000000F1H   SFRSYM    DATA     BYTE      CANICR
      00000087H   SFRSYM    DATA     BYTE      PCON
      000000BCH   SFRSYM    DATA     BYTE      ADC_CONTR
      000000E7H   SFRSYM    DATA     BYTE      CMPCR2
      000000E6H   SFRSYM    DATA     BYTE      CMPCR1
      000000DEH   SFRSYM    DATA     BYTE      ADCCFG
      000000B8H   SFRSYM    DATA     BYTE      IP
      0000008FH   SFRSYM    DATA     BYTE      INTCLKO
      000000EEH   SFRSYM    DATA     BYTE      IP3H
      000000B6H   SFRSYM    DATA     BYTE      IP2H
      000000BDH   SFRSYM    DATA     BYTE      ADC_RES
      000000A8H   SFRSYM    DATA     BYTE      IE
      000000BBH   SFRSYM    DATA     BYTE      P_SW3
      000000BAH   SFRSYM    DATA     BYTE      P_SW2
      000000A2H   SFRSYM    DATA     BYTE      P_SW1
      000000CEH   SFRSYM    DATA     BYTE      SPCTL
      000000F8H   SFRSYM    DATA     BYTE      P7
      000000E8H   SFRSYM    DATA     BYTE      P6
      000000C8H   SFRSYM    DATA     BYTE      P5
      000000C0H   SFRSYM    DATA     BYTE      P4
      000000B0H   SFRSYM    DATA     BYTE      P3
      000000A0H   SFRSYM    DATA     BYTE      P2
      00000090H   SFRSYM    DATA     BYTE      P1
      00000080H   SFRSYM    DATA     BYTE      P0

      00FF1CDFH   BLOCK     CODE     ---       LVL=0
      00FF1CDFH   LINE      CODE     ---       #3
      00FF1CDFH   LINE      CODE     ---       #5
      00FF1CECH   LINE      CODE     ---       #6
      00FF1CEFH   LINE      CODE     ---       #7
      00FF1CF2H   LINE      CODE     ---       #8
      00FF1CF5H   LINE      CODE     ---       #9
      ---         BLOCKEND  ---      ---       LVL=0

      00FF1BDDH   BLOCK     CODE     ---       LVL=0
      REG=7       REGSYM    ---      ---       channel1
      00FF1BDFH   BLOCK     CODE     NEAR LAB  LVL=1
      WR6         REGSYM    ---      WORD      value
      ---         BLOCKEND  ---      ---       LVL=1
      00FF1BDDH   LINE      CODE     ---       #11
      00FF1BDFH   LINE      CODE     ---       #12
      00FF1BDFH   LINE      CODE     ---       #13
      00FF1BDFH   LINE      CODE     ---       #14
      00FF1BDFH   LINE      CODE     ---       #16
      00FF1BE2H   LINE      CODE     ---       #17
      00FF1BE3H   LINE      CODE     ---       #18
      00FF1BE4H   LINE      CODE     ---       #20
      00FF1BE8H   LINE      CODE     ---       #21
      00FF1BEBH   LINE      CODE     ---       #23
      00FF1BF7H   LINE      CODE     ---       #25
      00FF1BF7H   LINE      CODE     ---       #26
      00FF1BF7H   LINE      CODE     ---       #28
      00FF1BF7H   LINE      CODE     ---       #30
      00FF1BFFH   LINE      CODE     ---       #32
      00FF1C02H   LINE      CODE     ---       #34
      00FF1C02H   LINE      CODE     ---       #35
      00FF1C02H   LINE      CODE     ---       #37
      00FF1C02H   LINE      CODE     ---       #41
      00FF1C02H   LINE      CODE     ---       #43
      00FF1C02H   LINE      CODE     ---       #47
      00FF1C02H   LINE      CODE     ---       #48
      00FF1C02H   LINE      CODE     ---       #49
      ---         BLOCKEND  ---      ---       LVL=0

L251 LINKER/LOCATER V4.66.93.0                                                        07/20/2023  20:58:36  PAGE 34


      00FF1C03H   BLOCK     CODE     ---       LVL=0
      WR6         REGSYM    ---      WORD      value
      00FF1C03H   LINE      CODE     ---       #51
      00FF1C03H   LINE      CODE     ---       #52
      00FF1C03H   LINE      CODE     ---       #53
      00FF1C03H   LINE      CODE     ---       #55
      00FF1C0BH   LINE      CODE     ---       #58
      00FF1C0EH   LINE      CODE     ---       #59
      00FF1C0FH   LINE      CODE     ---       #60
      00FF1C10H   LINE      CODE     ---       #62
      00FF1C14H   LINE      CODE     ---       #63
      00FF1C17H   LINE      CODE     ---       #65
      00FF1C23H   LINE      CODE     ---       #66
      00FF1C23H   LINE      CODE     ---       #67
      ---         BLOCKEND  ---      ---       LVL=0

      00FF1C24H   BLOCK     CODE     ---       LVL=0
      WR6         REGSYM    ---      WORD      value
      00FF1C24H   LINE      CODE     ---       #69
      00FF1C24H   LINE      CODE     ---       #70
      00FF1C24H   LINE      CODE     ---       #71
      00FF1C24H   LINE      CODE     ---       #73
      00FF1C2CH   LINE      CODE     ---       #75
      00FF1C2FH   LINE      CODE     ---       #76
      00FF1C30H   LINE      CODE     ---       #77
      00FF1C31H   LINE      CODE     ---       #79
      00FF1C35H   LINE      CODE     ---       #80
      00FF1C38H   LINE      CODE     ---       #82
      00FF1C44H   LINE      CODE     ---       #83
      00FF1C44H   LINE      CODE     ---       #84
      ---         BLOCKEND  ---      ---       LVL=0

      00FF1C63H   BLOCK     CODE     ---       LVL=0
      WR6         REGSYM    ---      WORD      value
      00FF1C63H   LINE      CODE     ---       #86
      00FF1C63H   LINE      CODE     ---       #87
      00FF1C63H   LINE      CODE     ---       #88
      00FF1C63H   LINE      CODE     ---       #90
      00FF1C66H   LINE      CODE     ---       #92
      00FF1C69H   LINE      CODE     ---       #93
      00FF1C6AH   LINE      CODE     ---       #94
      00FF1C6BH   LINE      CODE     ---       #96
      00FF1C6FH   LINE      CODE     ---       #97
      00FF1C72H   LINE      CODE     ---       #99
      00FF1C7EH   LINE      CODE     ---       #100
      00FF1C7EH   LINE      CODE     ---       #101
      ---         BLOCKEND  ---      ---       LVL=0

      ---         MODULE    ---      ---       LineFollower
      00FF1690H   PUBLIC    CODE     ---       ReadLine
      000000D0H   SFRSYM    DATA     BYTE      PSW
      0000009DH   SFRSYM    DATA     BYTE      IRCBAND
      00000097H   SFRSYM    DATA     BYTE      AUXR2
      000000EFH   SFRSYM    DATA     BYTE      AUXINTIF
      000000FDH   SFRSYM    DATA     BYTE      S4CON
      000000ACH   SFRSYM    DATA     BYTE      S3CON
      0000009AH   SFRSYM    DATA     BYTE      S2CON
      000000B7H   SFRSYM    DATA     BYTE      IPH
      000000CDH   SFRSYM    DATA     BYTE      SPSTAT
      000000DDH   SFRSYM    DATA     BYTE      T4T3M
      000000C1H   SFRSYM    DATA     BYTE      WDT_CONTR
      000000DFH   SFRSYM    DATA     BYTE      IP3
      000000F4H   SFRSYM    DATA     BYTE      USBCON
      000000B5H   SFRSYM    DATA     BYTE      IP2
      000000FFH   SFRSYM    DATA     BYTE      RSTCFG
L251 LINKER/LOCATER V4.66.93.0                                                        07/20/2023  20:58:36  PAGE 35


      000000C7H   SFRSYM    DATA     BYTE      IAP_CONTR
      000000F9H   SFRSYM    DATA     BYTE      LINICR
      0000008EH   SFRSYM    DATA     BYTE      AUXR
      000000AFH   SFRSYM    DATA     BYTE      IE2
      00000088H   SFRSYM    DATA     BYTE      TCON
      00000089H   SFRSYM    DATA     BYTE      TMOD
      00000098H   SFRSYM    DATA     BYTE      SCON
      000000F1H   SFRSYM    DATA     BYTE      CANICR
      00000087H   SFRSYM    DATA     BYTE      PCON
      000000BCH   SFRSYM    DATA     BYTE      ADC_CONTR
      000000E7H   SFRSYM    DATA     BYTE      CMPCR2
      000000E6H   SFRSYM    DATA     BYTE      CMPCR1
      000000DEH   SFRSYM    DATA     BYTE      ADCCFG
      000000B8H   SFRSYM    DATA     BYTE      IP
      0000008FH   SFRSYM    DATA     BYTE      INTCLKO
      000000EEH   SFRSYM    DATA     BYTE      IP3H
      000000B6H   SFRSYM    DATA     BYTE      IP2H
      000000A8H   SFRSYM    DATA     BYTE      IE
      000000BBH   SFRSYM    DATA     BYTE      P_SW3
      000000BAH   SFRSYM    DATA     BYTE      P_SW2
      000000A2H   SFRSYM    DATA     BYTE      P_SW1
      000000CEH   SFRSYM    DATA     BYTE      SPCTL
      000000F8H   SFRSYM    DATA     BYTE      P7
      000000E8H   SFRSYM    DATA     BYTE      P6
      000000C8H   SFRSYM    DATA     BYTE      P5
      000000C0H   SFRSYM    DATA     BYTE      P4
      000000B0H   SFRSYM    DATA     BYTE      P3
      000000A0H   SFRSYM    DATA     BYTE      P2
      00000090H   SFRSYM    DATA     BYTE      P1
      00000080H   SFRSYM    DATA     BYTE      P0

      00FF1690H   BLOCK     CODE     ---       LVL=0
      00FF1692H   BLOCK     CODE     NEAR LAB  LVL=1
      WR12        REGSYM    ---      WORD      adc1
      00000021H   SYMBOL    EDATA    WORD      adc2
      WR2         REGSYM    ---      WORD      adc3
      WR14        REGSYM    ---      INT       inaccuracy
      ---         BLOCKEND  ---      ---       LVL=1
      00FF1690H   LINE      CODE     ---       #3
      00FF1692H   LINE      CODE     ---       #4
      00FF1692H   LINE      CODE     ---       #8
      00FF1697H   LINE      CODE     ---       #9
      00FF169EH   LINE      CODE     ---       #10
      00FF16A3H   LINE      CODE     ---       #12
      00FF16B9H   LINE      CODE     ---       #13
      00FF16BFH   LINE      CODE     ---       #16
      00FF16D5H   LINE      CODE     ---       #17
      00FF16DDH   LINE      CODE     ---       #18
      00FF16E3H   LINE      CODE     ---       #19
      00FF16F3H   LINE      CODE     ---       #20
      00FF16F9H   LINE      CODE     ---       #21
      00FF1701H   LINE      CODE     ---       #22
      00FF1701H   LINE      CODE     ---       #24
      00FF1703H   LINE      CODE     ---       #25
      ---         BLOCKEND  ---      ---       LVL=0

      ---         MODULE    ---      ---       ?C?FPMUL
      00FF0026H   PUBLIC    CODE     ---       ?C?FPMUL

      ---         MODULE    ---      ---       ?C?FCAST
      00FF00D0H   PUBLIC    CODE     NEAR LAB  ?C?FCASTC
      00FF00CBH   PUBLIC    CODE     NEAR LAB  ?C?FCASTI
      00FF00C6H   PUBLIC    CODE     NEAR LAB  ?C?FCASTL

      ---         MODULE    ---      ---       ?C?CASTF
L251 LINKER/LOCATER V4.66.93.0                                                        07/20/2023  20:58:36  PAGE 36


      00FF0103H   PUBLIC    CODE     NEAR LAB  ?C?CASTF

      ---         MODULE    ---      ---       SPRINTF
      00000049H   PUBLIC    EDATA    ---       ?SPRINTF?BYTE
      00FF0140H   PUBLIC    CODE     NEAR LAB  SPRINTF

      ---         MODULE    ---      ---       ?C?FPGETOPN
      00FF0160H   PUBLIC    CODE     ---       ?C?FPGETOPN2
      00FF019DH   PUBLIC    CODE     ---       ?C?FPNANRESULT
      00FF01A5H   PUBLIC    CODE     ---       ?C?FPOVERFLOW
      00FF0179H   PUBLIC    CODE     ---       ?C?FPRESULT
      00FF018FH   PUBLIC    CODE     ---       ?C?FPRESULT2
      00FF01A2H   PUBLIC    CODE     ---       ?C?FPUNDERFLOW

      ---         MODULE    ---      ---       ?C?PRNFMT
      00FF01DEH   PUBLIC    CODE     ---       ?C?PRNFMT

      ---         MODULE    ---      ---       ?C?FPCONVERT
      00FF05FBH   PUBLIC    CODE     ---       ?C?FPCONVERT
      00FF06B3H   PUBLIC    CODE     ---       ?C?FPROUND

      ---         MODULE    ---      ---       ?C?FPDIV
      00FF06F6H   PUBLIC    CODE     ---       ?C?FPDIV

      ---         MODULE    ---      ---       ?C?FTNPWR
      00FF07A7H   PUBLIC    CODE     ---       ?C?FTNPWR

      ---         MODULE    ---      ---       ?C_START
      00FF0000H   PUBLIC    CODE     ---       ?C?STARTUP
      00FF0000H   PUBLIC    CODE     ---       ?C_STARTUP

      ---         MODULE    ---      ---       ?C?INITEDATA
      00FF1923H   PUBLIC    CODE     ---       ?C?INITEDATA

      ---         MODULE    ---      ---       ?C?LIMUL
      00FF07DEH   PUBLIC    CODE     ---       ?C?LIMUL

      ---         MODULE    ---      ---       ?C?ULDIV
      00FF07E9H   PUBLIC    CODE     NEAR LAB  ?C?ULDIV
      00FF07E7H   PUBLIC    CODE     NEAR LAB  ?C?ULIDIV

      ---         MODULE    ---      ---       ?C?INITEDATA_END
      00FF1EC1H   PUBLIC    HCONST   WORD      ?C?INITEDATA_END



*** WARNING L57: UNCALLED FUNCTION, IGNORED FOR OVERLAY PROCESS
    NAME:    OLED_Display_string_5x7/oled

*** WARNING L57: UNCALLED FUNCTION, IGNORED FOR OVERLAY PROCESS
    NAME:    OLED_DisPlay_Off/oled

*** WARNING L57: UNCALLED FUNCTION, IGNORED FOR OVERLAY PROCESS
    NAME:    OLED_Display_128x64/oled

*** WARNING L57: UNCALLED FUNCTION, IGNORED FOR OVERLAY PROCESS
    NAME:    OLED_DisPlay_On/oled

*** WARNING L57: UNCALLED FUNCTION, IGNORED FOR OVERLAY PROCESS
    NAME:    Meun_2_control/Meun

*** WARNING L57: UNCALLED FUNCTION, IGNORED FOR OVERLAY PROCESS
    NAME:    Meun_2_angle/Meun

*** WARNING L57: UNCALLED FUNCTION, IGNORED FOR OVERLAY PROCESS
L251 LINKER/LOCATER V4.66.93.0                                                        07/20/2023  20:58:36  PAGE 37


    NAME:    Memu/Meun

*** WARNING L57: UNCALLED FUNCTION, IGNORED FOR OVERLAY PROCESS
    NAME:    Meun_2_speed/Meun

*** WARNING L57: UNCALLED FUNCTION, IGNORED FOR OVERLAY PROCESS
    NAME:    Meun_2_Pitching/Meun

*** WARNING L57: UNCALLED FUNCTION, IGNORED FOR OVERLAY PROCESS
    NAME:    rotary_encoder/Encoders

*** WARNING L57: UNCALLED FUNCTION, IGNORED FOR OVERLAY PROCESS
    NAME:    Cancel_determine/Encoders

*** WARNING L57: UNCALLED FUNCTION, IGNORED FOR OVERLAY PROCESS
    NAME:    delay/timer

*** WARNING L57: UNCALLED FUNCTION, IGNORED FOR OVERLAY PROCESS
    NAME:    Uart_String/Uart

*** WARNING L57: UNCALLED FUNCTION, IGNORED FOR OVERLAY PROCESS
    NAME:    Hall_element/iic

*** WARNING L57: UNCALLED FUNCTION, IGNORED FOR OVERLAY PROCESS
    NAME:    IIC_SendAck/iic

*** WARNING L57: UNCALLED FUNCTION, IGNORED FOR OVERLAY PROCESS
    NAME:    ADC_Read/ADC

Program Size: data=8.7 edata+hdata=420 xdata=0 const=324 code=7589
L251 RUN COMPLETE.  16 WARNING(S),  0 ERROR(S)
