L251 LINKER/LOCATER V4.66.93.0                                                          08/04/2023  19:40:36  PAGE 1


L251 LINKER/LOCATER V4.66.93.0, INVOKED BY:
D:\SOFTWARE\WORKSOFTWARE\KEIL5_C251\C251\BIN\L251.EXE main.obj, oled.obj, key.obj, timer.obj, Uart.obj, pwm_init.obj, GP
>> IO.obj, motor.obj, LineFollower.obj, MPU6050.obj, Wave.obj, syn6288.obj TO LED CASE CLASSES (EDATA (0X0-0XFFF), HDATA
>>  (0X0-0XFFF))


CPU MODE:     251 SOURCE MODE
INTR FRAME:   2 BYTES SAVED ON INTERRUPT
MEMORY MODEL: XSMALL WITH FLOATING POINT ARITHMETIC


INPUT MODULES INCLUDED:
  main.obj (main)
         COMMENT TYPE 0: C251 V5.60.0
  oled.obj (oled)
         COMMENT TYPE 0: C251 V5.60.0
  key.obj (key)
         COMMENT TYPE 0: C251 V5.60.0
  timer.obj (timer)
         COMMENT TYPE 0: C251 V5.60.0
  Uart.obj (Uart)
         COMMENT TYPE 0: C251 V5.60.0
  pwm_init.obj (pwm_init)
         COMMENT TYPE 0: C251 V5.60.0
  GPIO.obj (GPIO)
         COMMENT TYPE 0: C251 V5.60.0
  motor.obj (motor)
         COMMENT TYPE 0: C251 V5.60.0
  LineFollower.obj (LineFollower)
         COMMENT TYPE 0: C251 V5.60.0
  MPU6050.obj (MPU6050)
         COMMENT TYPE 0: C251 V5.60.0
  Wave.obj (Wave)
         COMMENT TYPE 0: C251 V5.60.0
  syn6288.obj (syn6288)
         COMMENT TYPE 0: C251 V5.60.0
  D:\SOFTWARE\WORKSOFTWARE\KEIL5_C251\C251\LIB\C2SFPXS.LIB (?C?FPMUL)
         COMMENT TYPE 0: A251 V4.69.6.0
  D:\SOFTWARE\WORKSOFTWARE\KEIL5_C251\C251\LIB\C2SFPXS.LIB (?C?FPDIV)
         COMMENT TYPE 0: A251 V4.69.6.0
  D:\SOFTWARE\WORKSOFTWARE\KEIL5_C251\C251\LIB\C2SFPXS.LIB (?C?FCAST)
         COMMENT TYPE 0: A251 V4.69.6.0
  D:\SOFTWARE\WORKSOFTWARE\KEIL5_C251\C251\LIB\C2SFPXS.LIB (?C?CASTF)
         COMMENT TYPE 0: A251 V4.69.6.0
  D:\SOFTWARE\WORKSOFTWARE\KEIL5_C251\C251\LIB\C2SFPXS.LIB (SPRINTF)
         COMMENT TYPE 0: A251 V4.69.6.0
  D:\SOFTWARE\WORKSOFTWARE\KEIL5_C251\C251\LIB\C2SFPXS.LIB (?C?FPGETOPN)
         COMMENT TYPE 0: A251 V4.69.6.0
  D:\SOFTWARE\WORKSOFTWARE\KEIL5_C251\C251\LIB\C2SFPXS.LIB (?C?PRNFMT)
         COMMENT TYPE 0: A251 V4.69.6.0
  D:\SOFTWARE\WORKSOFTWARE\KEIL5_C251\C251\LIB\C2SFPXS.LIB (?C?FPCONVERT)
         COMMENT TYPE 0: A251 V4.69.6.0
  D:\SOFTWARE\WORKSOFTWARE\KEIL5_C251\C251\LIB\C2SFPXS.LIB (?C?FTNPWR)
         COMMENT TYPE 0: A251 V4.69.6.0
  D:\SOFTWARE\WORKSOFTWARE\KEIL5_C251\C251\LIB\C2SXS.LIB (?C_START)
         COMMENT TYPE 0: A251 V4.69.6.0
  D:\SOFTWARE\WORKSOFTWARE\KEIL5_C251\C251\LIB\C2SXS.LIB (?C?INITEDATA)
         COMMENT TYPE 0: A251 V4.69.6.0
  D:\SOFTWARE\WORKSOFTWARE\KEIL5_C251\C251\LIB\C2SXS.LIB (?C?LIMUL)
         COMMENT TYPE 0: A251 V4.69.6.0
  D:\SOFTWARE\WORKSOFTWARE\KEIL5_C251\C251\LIB\C2SXS.LIB (?C?ULDIV)
         COMMENT TYPE 0: A251 V4.69.6.0
  D:\SOFTWARE\WORKSOFTWARE\KEIL5_C251\C251\LIB\C2SXS.LIB (STRLEN)
         COMMENT TYPE 0: C251 V5.58.7
  D:\SOFTWARE\WORKSOFTWARE\KEIL5_C251\C251\LIB\C2SXS.LIB (memcpy)
         COMMENT TYPE 0: C251 V5.58.7
L251 LINKER/LOCATER V4.66.93.0                                                        08/04/2023  19:40:36  PAGE 2


  D:\SOFTWARE\WORKSOFTWARE\KEIL5_C251\C251\LIB\C2SXS.LIB (?C?INITEDATA_END)
         COMMENT TYPE 0: A251 V4.69.6.0


ACTIVE MEMORY CLASSES OF MODULE:  LED (main)

BASE        START       END         USED      MEMORY CLASS
==========================================================
000000H     000000H     000FFFH     00029AH   EDATA
000000H     000000H     000FFFH               HDATA
000000H     FF0000H     FFFFFFH     00018FH   HCONST
FF0000H     FF0000H     FFFFFFH     001E4EH   CODE
000020H.0   000020H.0   00002FH.7   000000H.1 BIT
FF0000H     FF0000H     FFFFFFH     000004H   CONST
000000H     000000H     00007FH     000008H   DATA


MEMORY MAP OF MODULE:  LED (main)


START     STOP      LENGTH    ALIGN  RELOC    MEMORY CLASS   SEGMENT NAME
=========================================================================
000000H   000007H   000008H   ---    AT..     DATA           "REG BANK 0"
000008H   00001DH   000016H   BYTE   UNIT     EDATA          ?ED?PWM_INIT
00001EH   00001FH   000002H   BYTE   UNIT     EDATA          ?ED?OLED_DISPLAY_128X64?OLED
000020H.0 000020H.0 000000H.1 BIT    UNIT     BIT            ?BI?MOTER_WHEEL?LINEFOLLOWER
000020H.1 000020H   000000H.7 ---    ---      **GAP**
000021H   0000D4H   0000B4H   BYTE   UNIT     EDATA          ?ED?MAIN
0000D5H   00010AH   000036H   BYTE   UNIT     EDATA          ?ED?OLED_16X16?OLED
00010BH   00013FH   000035H   BYTE   UNIT     EDATA          ?ED?SYN_FRAMEINFO?SYN6288
000140H   000167H   000028H   BYTE   UNIT     EDATA          _EDATA_GROUP_
000168H   000186H   00001FH   BYTE   UNIT     EDATA          ?ED?SYN6288
000187H   00018EH   000008H   BYTE   UNIT     EDATA          ?ED?OLED_SHOWNUM?OLED
00018FH   000193H   000005H   BYTE   UNIT     EDATA          ?ED?WAVE
000194H   000197H   000004H   BYTE   UNIT     EDATA          ?ED?OLED
000198H   00019BH   000004H   BYTE   UNIT     EDATA          ?ED?OLED_DISPLAY_16X16?OLED
00019CH   00019FH   000004H   BYTE   UNIT     EDATA          ?ED?OLED_DISPLAY_8X16?OLED
0001A0H   0001A1H   000002H   BYTE   UNIT     EDATA          ?ED?UART2_SENDSTRING?UART
0001A2H   0001A2H   000001H   BYTE   UNIT     EDATA          ?ED?LINEFOLLOWER
0001A3H   0002A2H   000100H   BYTE   UNIT     EDATA          ?STACK
0002A3H   FEFFFFH   FEFD5DH   ---    ---      **GAP**
FF0000H   FF0002H   000003H   ---    OFFS..   CODE           ?CO?start251?4
FF0003H   FF0008H   000006H   BYTE   INSEG    CODE           ?PR?OBSTACLE_AVOIDANCE?LINEFOLLOWER
FF0009H   FF000AH   000002H   ---    ---      **GAP**
FF000BH   FF000DH   000003H   ---    OFFS..   CODE           ?PR?IV?1
FF000EH   FF001AH   00000DH   BYTE   INSEG    CODE           ?PR?DELAY10US?WAVE
FF001BH   FF001DH   000003H   ---    OFFS..   CODE           ?PR?IV?3
FF001EH   FF0022H   000005H   BYTE   INSEG    CODE           ?PR?MOTORL_FORWARD?MOTOR
FF0023H   FF0025H   000003H   ---    OFFS..   CODE           ?PR?IV?4
FF0026H   FF0041H   00001CH   BYTE   INSEG    CODE           ?PR?SINGLE_WRITEI2C?MPU6050
FF0042H   FF0042H   000001H   ---    ---      **GAP**
FF0043H   FF0045H   000003H   ---    OFFS..   CODE           ?PR?IV?8
FF0046H   FF008BH   000046H   BYTE   INSEG    CODE           ?PR?OLED_DISPLAY_128X64?OLED
FF008CH   FF009AH   00000FH   BYTE   INSEG    CODE           ?PR?I2C_STOP?MPU6050
FF009BH   FF009DH   000003H   ---    OFFS..   CODE           ?PR?IV?19
FF009EH   FF08B1H   000814H   BYTE   UNIT     CODE           ?C?LIB_CODE
FF08B2H   FF0ADAH   000229H   BYTE   INSEG    CODE           ?PR?OLED_16X16?OLED
FF0ADBH   FF0C6CH   000192H   BYTE   INSEG    CODE           ?PR?PWM_CONFIG?PWM_INIT
FF0C6DH   FF0DA9H   00013DH   BYTE   INSEG    CODE           ?PR?OLED_SHOWNUM?OLED
FF0DAAH   FF0EB4H   00010BH   BYTE   INSEG    CODE           ?PR?MPU6050_READ?MAIN
FF0EB5H   FF0F92H   0000DEH   BYTE   INSEG    CODE           ?PR?MOTOR_CONTROL?MAIN
FF0F93H   FF106CH   0000DAH   BYTE   INSEG    CODE           ?PR?READLINE?LINEFOLLOWER
FF106DH   FF1134H   0000C8H   BYTE   INSEG    CODE           ?PR?KEY_PROC?MAIN
FF1135H   FF11F7H   0000C3H   BYTE   INSEG    CODE           ?PR?OLED_INIT?OLED
FF11F8H   FF12A0H   0000A9H   BYTE   INSEG    CODE           ?PR?OLED_DISPLAY_STRING_5X7?OLED
L251 LINKER/LOCATER V4.66.93.0                                                        08/04/2023  19:40:36  PAGE 3


FF12A1H   FF1346H   0000A6H   BYTE   INSEG    CODE           ?PR?SYN_FRAMEINFO?SYN6288
FF1347H   FF13D7H   000091H   BYTE   INSEG    CODE           ?PR?XIANFU_PWM?PWM_INIT
FF13D8H   FF145EH   000087H   BYTE   INSEG    CODE           ?PR?DISP_REFRESH?MAIN
FF145FH   FF14D5H   000077H   BYTE   INSEG    CODE           ?PR?TIMER1?MAIN
FF14D6H   FF1546H   000071H   BYTE   INSEG    CODE           ?PR?SET_FBPWM?PWM_INIT
FF1547H   FF15B7H   000071H   BYTE   INSEG    CODE           ?PR?SET_LRPWM?PWM_INIT
FF15B8H   FF1625H   00006EH   BYTE   INSEG    CODE           ?PR?READ_MPU6050?MPU6050
FF1626H   FF168FH   00006AH   BYTE   INSEG    CODE           ?PR?WAVE_ULTRASONIC?WAVE
FF1690H   FF16EEH   00005FH   BYTE   INSEG    CODE           ?PR?UPDATE_DUTY?PWM_INIT
FF16EFH   FF1749H   00005BH   BYTE   INSEG    CODE           ?PR?OLED_GET_DATA_FROM_ROM?OLED
FF174AH   FF17A3H   00005AH   BYTE   INSEG    CODE           ?PR?MAIN?MAIN
FF17A4H   FF17F9H   000056H   BYTE   INSEG    CODE           ?PR?OLED_DISPLAY_16X16?OLED
FF17FAH   FF184FH   000056H   BYTE   INSEG    CODE           ?PR?OLED_DISPLAY_8X16?OLED
FF1850H   FF1862H   000013H   BYTE   UNIT     CODE           ?C_C51STARTUP
FF1863H   FF188BH   000029H   BYTE   UNIT     CODE           ?C_C51STARTUP?2
FF188CH   FF188EH   000003H   BYTE   UNIT     CODE           ?C_C51STARTUP?3
FF188FH   FF18C8H   00003AH   BYTE   INSEG    CODE           ?PR?GPIO_INIT?GPIO
FF18C9H   FF1900H   000038H   BYTE   INSEG    CODE           ?PR?TIMER3_ISR?MAIN
FF1901H   FF1937H   000037H   BYTE   INSEG    CODE           ?PR?OLED_CLEAR_0_2?OLED
FF1938H   FF196EH   000037H   BYTE   INSEG    CODE           ?PR?OLED_CLEAR?OLED
FF196FH   FF19A1H   000033H   BYTE   INSEG    CODE           ?PR?INITMPU6050?MPU6050
FF19A2H   FF19D0H   00002FH   BYTE   INSEG    CODE           ?PR?KEY_RVALUE?KEY
FF19D1H   FF19FCH   00002CH   BYTE   INSEG    CODE           ?PR?OLED_DISPLAYTURN?OLED
FF19FDH   FF1A28H   00002CH   BYTE   INSEG    CODE           ?PR?OLED_DISPLAY_5X7?OLED
FF1A29H   FF1A53H   00002BH   BYTE   INSEG    CODE           ?PR?OLED_WR_BYTE?OLED
FF1A54H   FF1A7EH   00002BH   BYTE   INSEG    CODE           ?PR?OLED_ADDRESS?OLED
FF1A7FH   FF1AA8H   00002AH   BYTE   INSEG    CODE           ?PR?T_S_B_1_READLINE?LINEFOLLOWER
FF1AA9H   FF1AD2H   00002AH   BYTE   INSEG    CODE           ?PR?T_S_B_2_READLINE?LINEFOLLOWER
FF1AD3H   FF1AFBH   000029H   BYTE   INSEG    CODE           ?PR?UART2_SENDSTRING?UART
FF1AFCH   FF1B21H   000026H   BYTE   INSEG    CODE           ?PR?I2C_RECVBYTE?MPU6050
FF1B22H   FF1B46H   000025H   BYTE   INSEG    CODE           ?PR?MEMCPY?_?MEMCPY
FF1B47H   FF1B69H   000023H   BYTE   INSEG    CODE           ?PR?I2C_SENDBYTE?MPU6050
FF1B6AH   FF1B8AH   000021H   BYTE   INSEG    CODE           ?PR?DELAY50MS?MPU6050
FF1B8BH   FF1BAAH   000020H   BYTE   INSEG    CODE           ?PR?MOTOR_FRCONTROL?MOTOR
FF1BABH   FF1BC8H   00001EH   BYTE   INSEG    CODE           ?PR?OLED_COLORTURN?OLED
FF1BC9H   FF1BE3H   00001BH   BYTE   INSEG    CODE           ?PR?SEND_COMMAND_TO_ROM?OLED
FF1BE4H   FF1BFDH   00001AH   BYTE   INSEG    CODE           ?PR?I2C_START?MPU6050
FF1BFEH   FF1C14H   000017H   BYTE   INSEG    CODE           ?PR?GET_DATA_FROM_ROM?OLED
FF1C15H   FF1C2BH   000017H   BYTE   INSEG    CODE           ?PR?DELAY_MS?OLED
FF1C2CH   FF1C42H   000017H   BYTE   INSEG    CODE           ?PR?UART1_INIT?UART
FF1C43H   FF1C58H   000016H   BYTE   INSEG    CODE           ?PR?UART1_STRING?UART
FF1C59H   FF1C6EH   000016H   BYTE   INSEG    CODE           ?PR?UART2_STRING?UART
FF1C6FH   FF1C84H   000016H   BYTE   INSEG    CODE           ?PR?UART3_STRING?UART
FF1C85H   FF1C9AH   000016H   BYTE   INSEG    CODE           ?PR?UART3_INIT?UART
FF1C9BH   FF1CB0H   000016H   BYTE   INSEG    CODE           ?PR?I2C_RECVACK?MPU6050
FF1CB1H   FF1CC5H   000015H   BYTE   INSEG    CODE           ?PR?OLED_DISPLAY_OFF?OLED
FF1CC6H   FF1CDAH   000015H   BYTE   INSEG    CODE           ?PR?OLED_DISPLAY_ON?OLED
FF1CDBH   FF1CEFH   000015H   BYTE   INSEG    CODE           ?PR?TIMER1_INIT?TIMER
FF1CF0H   FF1D04H   000015H   BYTE   INSEG    CODE           ?PR?UPDATE_8?PWM_INIT
FF1D05H   FF1D19H   000015H   BYTE   INSEG    CODE           ?PR?UPDATE_5?PWM_INIT
FF1D1AH   FF1D2EH   000015H   BYTE   INSEG    CODE           ?PR?UPDATE_6?PWM_INIT
FF1D2FH   FF1D43H   000015H   BYTE   INSEG    CODE           ?PR?UPDATE_7?PWM_INIT
FF1D44H   FF1D58H   000015H   BYTE   INSEG    CODE           ?PR?READLINE_PROC?LINEFOLLOWER
FF1D59H   FF1D6BH   000013H   BYTE   INSEG    CODE           ?PR?TIMER0?MAIN
FF1D6CH   FF1D7EH   000013H   BYTE   INSEG    CODE           ?PR?UART2_INIT?UART
FF1D7FH   FF1D91H   000013H   BYTE   INSEG    CODE           ?PR?TIMER0INIT?WAVE
FF1D92H   FF1DA2H   000011H   BYTE   INSEG    CODE           ?PR?MYABS?PWM_INIT
FF1DA3H   FF1DB3H   000011H   BYTE   INSEG    CODE           ?PR?MOTER_WHEEL?LINEFOLLOWER
FF1DB4H   FF1DC4H   000011H   BYTE   INSEG    CODE           ?PR?YS_SYN_SET?SYN6288
FF1DC5H   FF1DD4H   000010H   BYTE   INSEG    CODE           ?PR?TIMER3_INIT?TIMER
FF1DD5H   FF1DE2H   00000EH   BYTE   INSEG    CODE           ?PR?STRLEN?_?STRLEN
FF1DE3H   FF1DEFH   00000DH   BYTE   INSEG    CODE           ?PR?DELAY?SYN6288
FF1DF0H   FF1DFBH   00000CH   BYTE   INSEG    CODE           ?PR?UART2_ISR?UART
FF1DFCH   FF1E06H   00000BH   BYTE   INSEG    CODE           ?PR?UART2_SENDBYTE?UART
FF1E07H   FF1E11H   00000BH   BYTE   INSEG    CODE           ?PR?UART3_SENDBYTE?UART
L251 LINKER/LOCATER V4.66.93.0                                                        08/04/2023  19:40:36  PAGE 4


FF1E12H   FF1E1CH   00000BH   BYTE   INSEG    CODE           ?PR?DELAY2US?MPU6050
FF1E1DH   FF1E26H   00000AH   BYTE   INSEG    CODE           ?PR?UART1_ISR?UART
FF1E27H   FF1E2FH   000009H   BYTE   INSEG    CODE           ?PR?KEY_INIT?KEY
FF1E30H   FF1E38H   000009H   BYTE   INSEG    CODE           ?PR?UART1_SENDBYTE?UART
FF1E39H   FF1E41H   000009H   BYTE   INSEG    CODE           ?PR?MOTOR_INIT?MOTOR
FF1E42H   FF1E46H   000005H   BYTE   INSEG    CODE           ?PR?MOTORR_FORWARD?MOTOR
FF1E47H   FF1E4BH   000005H   BYTE   INSEG    CODE           ?PR?MOTORL_REVERSE?MOTOR
FF1E4CH   FF1E50H   000005H   BYTE   INSEG    CODE           ?PR?MOTORR_REVERSE?MOTOR
FF1E51H   FF1E54H   000004H   BYTE   UNIT     CONST          ?CO?PRINTF
FF1E55H   FF1F9DH   000149H   BYTE   UNIT     HCONST         ?C_INITEDATA
FF1F9EH   FF1FCDH   000030H   BYTE   UNIT     HCONST         ?HC?MAIN
FF1FCEH   FF1FE3H   000016H   BYTE   UNIT     HCONST         ?HC?OLED



OVERLAY MAP OF MODULE:   LED (main)


FUNCTION/MODULE                      EDATA_GROUP
--> CALLED FUNCTION/MODULE           START  STOP
================================================
Timer0/main                          ----- -----

*** NEW ROOT ***********************

Timer3_Isr/main                      ----- -----

*** NEW ROOT ***********************

timer1/main                          ----- -----

*** NEW ROOT ***********************

Uart1_Isr/Uart                       ----- -----

*** NEW ROOT ***********************

Uart2_Isr/Uart                       ----- -----

*** NEW ROOT ***********************

?C_C51STARTUP                        ----- -----

*** NEW ROOT ***********************

?C_C51STARTUP?3                      ----- -----
  +--> main/main

main/main                            ----- -----
  +--> GPIO_init/GPIO
  +--> OLED_Init/oled
  +--> OLED_ColorTurn/oled
  +--> OLED_DisplayTurn/oled
  +--> OLED_Clear/oled
  +--> Timer0Init/Wave
  +--> Timer1_Init/timer
  +--> Timer3_Init/timer
  +--> Uart1_Init/Uart
  +--> InitMPU6050/MPU6050
  +--> Motor_Init/motor
  +--> Disp_refresh/main
  +--> MPU6050_Read/main
  +--> Motor_control/main
  +--> Key_Proc/main

L251 LINKER/LOCATER V4.66.93.0                                                        08/04/2023  19:40:36  PAGE 5


GPIO_init/GPIO                       ----- -----

OLED_Init/oled                       ----- -----
  +--> delay_ms/oled
  +--> OLED_WR_Byte/oled
  +--> OLED_Clear/oled

delay_ms/oled                        ----- -----

OLED_WR_Byte/oled                    ----- -----

OLED_Clear/oled                      ----- -----
  +--> OLED_WR_Byte/oled

OLED_ColorTurn/oled                  ----- -----
  +--> OLED_WR_Byte/oled

OLED_DisplayTurn/oled                ----- -----
  +--> OLED_WR_Byte/oled

Timer0Init/Wave                      ----- -----

Timer1_Init/timer                    ----- -----

Timer3_Init/timer                    ----- -----

Uart1_Init/Uart                      ----- -----

InitMPU6050/MPU6050                  ----- -----
  +--> Delay2us/MPU6050
  +--> Single_WriteI2C/MPU6050
  +--> Delay50ms/MPU6050

Delay2us/MPU6050                     ----- -----

Single_WriteI2C/MPU6050              ----- -----
  +--> I2C_Start/MPU6050
  +--> I2C_SendByte/MPU6050
  +--> I2C_Stop/MPU6050

I2C_Start/MPU6050                    ----- -----
  +--> Delay2us/MPU6050

I2C_SendByte/MPU6050                 ----- -----
  +--> Delay2us/MPU6050
  +--> I2C_RecvACK/MPU6050

I2C_RecvACK/MPU6050                  ----- -----
  +--> Delay2us/MPU6050

I2C_Stop/MPU6050                     ----- -----
  +--> Delay2us/MPU6050

Delay50ms/MPU6050                    ----- -----

Motor_Init/motor                     ----- -----
  +--> PWM_Config/pwm_init
  +--> MotorL_Forward/motor
  +--> MotorR_Forward/motor

PWM_Config/pwm_init                  ----- -----

MotorL_Forward/motor                 ----- -----

MotorR_Forward/motor                 ----- -----
L251 LINKER/LOCATER V4.66.93.0                                                        08/04/2023  19:40:36  PAGE 6



Disp_refresh/main                    ----- -----
  +--> SPRINTF/SPRINTF
  +--> OLED_Display_string_5x7/oled

SPRINTF/SPRINTF                      0140H 0167H
  +--> OUT/SPRINTF

OUT/SPRINTF                          ----- -----
  +--> PUTCH/SPRINTF

PUTCH/SPRINTF                        ----- -----

OLED_Display_string_5x7/oled         0140H 014DH
  +--> OLED_get_data_from_ROM/oled
  +--> OLED_Display_5x7/oled

OLED_get_data_from_ROM/oled          014EH 0152H
  +--> Send_Command_to_ROM/oled
  +--> Get_data_from_ROM/oled

Send_Command_to_ROM/oled             ----- -----

Get_data_from_ROM/oled               ----- -----

OLED_Display_5x7/oled                014EH 014EH
  +--> OLED_address/oled
  +--> OLED_WR_Byte/oled

OLED_address/oled                    ----- -----
  +--> OLED_WR_Byte/oled

MPU6050_Read/main                    ----- -----
  +--> Read_MPU6050/MPU6050

Read_MPU6050/MPU6050                 0140H 0140H
  +--> I2C_Start/MPU6050
  +--> I2C_SendByte/MPU6050
  +--> I2C_RecvByte/MPU6050
  +--> Delay2us/MPU6050
  +--> I2C_Stop/MPU6050

I2C_RecvByte/MPU6050                 ----- -----
  +--> Delay2us/MPU6050

Motor_control/main                   ----- -----
  +--> ReadLine/LineFollower
  +--> Update_duty/pwm_init

ReadLine/LineFollower                ----- -----

Update_duty/pwm_init                 ----- -----
  +--> MotorR_Reverse/motor
  +--> MotorR_Forward/motor
  +--> MotorL_Reverse/motor
  +--> MotorL_Forward/motor

MotorR_Reverse/motor                 ----- -----

MotorL_Reverse/motor                 ----- -----

Key_Proc/main                        ----- -----
  +--> Key_Rvalue/key
  +--> Update_5/pwm_init
  +--> Update_6/pwm_init
L251 LINKER/LOCATER V4.66.93.0                                                        08/04/2023  19:40:36  PAGE 7


  +--> Update_7/pwm_init
  +--> Update_8/pwm_init

Key_Rvalue/key                       ----- -----

Update_5/pwm_init                    ----- -----

Update_6/pwm_init                    ----- -----

Update_7/pwm_init                    ----- -----

Update_8/pwm_init                    ----- -----

*** NEW ROOT ***********************

?C_C51STARTUP?2                      ----- -----



PUBLIC SYMBOLS OF MODULE:  LED (main)


      VALUE       CLASS    TYPE      PUBLIC SYMBOL NAME
      =================================================
      00FF01FCH   CODE     NEAR LAB  ?C?CASTF
      000000FFH   NUMBER   ---       ?C?CODESEG
      00FF01C9H   CODE     NEAR LAB  ?C?FCASTC
      00FF01C4H   CODE     NEAR LAB  ?C?FCASTI
      00FF01BFH   CODE     NEAR LAB  ?C?FCASTL
      00FF06F4H   CODE     ---       ?C?FPCONVERT
      00FF013EH   CODE     ---       ?C?FPDIV
      00FF0259H   CODE     ---       ?C?FPGETOPN2
      00FF009EH   CODE     ---       ?C?FPMUL
      00FF0296H   CODE     ---       ?C?FPNANRESULT
      00FF029EH   CODE     ---       ?C?FPOVERFLOW
      00FF0272H   CODE     ---       ?C?FPRESULT
      00FF0288H   CODE     ---       ?C?FPRESULT2
      00FF07ACH   CODE     ---       ?C?FPROUND
      00FF029BH   CODE     ---       ?C?FPUNDERFLOW
      00FF081FH   CODE     ---       ?C?FTNPWR
      00FF1863H   CODE     ---       ?C?INITEDATA
      00FF1F9CH   HCONST   WORD      ?C?INITEDATA_END
      00FF0856H   CODE     ---       ?C?LIMUL
      00FF02D7H   CODE     ---       ?C?PRNFMT
      00FF0000H   CODE     ---       ?C?STARTUP
      00FF0861H   CODE     NEAR LAB  ?C?ULDIV
      00FF085FH   CODE     NEAR LAB  ?C?ULIDIV
      00000001H   NUMBER   ---       ?C?XDATASEG
      00FF0000H   CODE     ---       ?C_STARTUP
      00000168H   EDATA    ---       ?sprintf?BYTE
      00000081H   EDATA    FLOAT     a_x
      00000085H   EDATA    FLOAT     a_y
      00000089H   EDATA    FLOAT     a_z
*SFR* 000000BCH   DATA     BYTE      ADC_CONTR
*SFR* 000000DEH   DATA     BYTE      ADCCFG
*SFR* 000000C0H.3 DATA     BIT       AIN1
*SFR* 000000C0H.4 DATA     BIT       AIN2
      0000004DH   EDATA    FLOAT     Angle_ax
      00000053H   EDATA    FLOAT     Angle_ay
      00000057H   EDATA    FLOAT     Angle_az
      0000005FH   EDATA    FLOAT     Angle_gx
      00000063H   EDATA    FLOAT     Angle_gy
      0000007BH   EDATA    FLOAT     Angle_gz
*SFR* 000000EFH   DATA     BYTE      AUXINTIF
*SFR* 0000008EH   DATA     BYTE      AUXR
L251 LINKER/LOCATER V4.66.93.0                                                        08/04/2023  19:40:36  PAGE 8


*SFR* 00000097H   DATA     BYTE      AUXR2
      0000001CH   EDATA    INT       Backward_moto2
*SFR* 000000A0H.3 DATA     BIT       BIN1
*SFR* 000000A0H.4 DATA     BIT       BIN2
*SFR* 000000F1H   DATA     BYTE      CANICR
*SFR* 000000F8H.3 DATA     BIT       CIN1
*SFR* 000000F8H.2 DATA     BIT       CIN2
*SFR* 000000EAH   DATA     BYTE      CKCON
*SFR* 000000E6H   DATA     BYTE      CMPCR1
*SFR* 000000E7H   DATA     BYTE      CMPCR2
      000001A2H   EDATA    BYTE      count
*SFR* 000000D0H.7 DATA     BIT       CY
      00FF1DE3H   CODE     ---       delay
      00FF000EH   CODE     ---       Delay10us
      00FF1E12H   CODE     ---       Delay2us
      00FF1B6AH   CODE     ---       Delay50ms
      00FF1C15H   CODE     ---       delay_ms
*SFR* 000000A0H.7 DATA     BIT       det_C
*SFR* 000000F8H.5 DATA     BIT       det_CL
*SFR* 000000A0H.6 DATA     BIT       det_CR
*SFR* 000000F8H.6 DATA     BIT       det_L
*SFR* 000000A0H.5 DATA     BIT       det_R
*SFR* 000000F8H.1 DATA     BIT       DIN1
*SFR* 000000F8H.0 DATA     BIT       DIN2
      00000051H   EDATA    WORD      disp_delay
      00FF13D8H   CODE     ---       Disp_refresh
      00000008H   EDATA    INT       dutyL
      0000000AH   EDATA    INT       dutyR
*SFR* 000000A8H.7 DATA     BIT       EA
*SFR* 000000BAH.7 DATA     BIT       EAXFR
      000000D3H   EDATA    INT       err_kd
      00000021H   EDATA    INT       err_ki
      00000024H   EDATA    INT       err_kp
*SFR* 000000A8H.4 DATA     BIT       ES
*SFR* 000000AFH.0 DATA     BIT       ES2
*SFR* 000000AFH.3 DATA     BIT       ES3
*SFR* 000000A8H.1 DATA     BIT       ET0
*SFR* 000000A8H.3 DATA     BIT       ET1
      00000043H   EDATA    BYTE      flag
      0000005DH   EDATA    BYTE      flag_count
      00000194H   EDATA    DWORD     fontaddr
      00000014H   EDATA    INT       Forwar_dmoto1
      00000095H   EDATA    INT       g_x
      00000097H   EDATA    INT       g_y
      00000099H   EDATA    INT       g_z
      00FF1BFEH   CODE     ---       Get_data_from_ROM
      00FF188FH   CODE     ---       GPIO_init
      00FF1C9BH   CODE     ---       I2C_RecvACK
      00FF1AFCH   CODE     ---       I2C_RecvByte
      00FF1B47H   CODE     ---       I2C_SendByte
      00FF1BE4H   CODE     ---       I2C_Start
      00FF008CH   CODE     ---       I2C_Stop
*SFR* 000000C7H   DATA     BYTE      IAP_CONTR
*SFR* 000000A8H   DATA     BYTE      IE
*SFR* 000000AFH   DATA     BYTE      IE2
      00FF196FH   CODE     ---       InitMPU6050
*SFR* 0000008FH   DATA     BYTE      INTCLKO
*SFR* 000000B8H   DATA     BYTE      IP
*SFR* 000000B5H   DATA     BYTE      IP2
*SFR* 000000B6H   DATA     BYTE      IP2H
*SFR* 000000DFH   DATA     BYTE      IP3
*SFR* 000000EEH   DATA     BYTE      IP3H
*SFR* 000000B7H   DATA     BYTE      IPH
*SFR* 0000009DH   DATA     BYTE      IRCBAND
      00000091H   EDATA    WORD      key_delay
L251 LINKER/LOCATER V4.66.93.0                                                        08/04/2023  19:40:36  PAGE 9


      0000009BH   EDATA    BYTE      key_Down
      00FF1E27H   CODE     ---       Key_Init
      000000BCH   EDATA    BYTE      key_old
      00FF106DH   CODE     ---       Key_Proc
      00FF19A2H   CODE     ---       Key_Rvalue
      00000026H   EDATA    BYTE      key_up
      0000009CH   EDATA    BYTE      key_value
      00000045H   EDATA    FLOAT     Last_Angle_gx
      00000049H   EDATA    FLOAT     Last_Angle_gy
      0000001AH   EDATA    INT       Left_moto1
      0000007FH   EDATA    CHAR      line_inaccuracy
*SFR* 000000F9H   DATA     BYTE      LINICR
      00FF174AH   CODE     ---       main
      00FF1B22H   CODE     ---       memcpy?_
      00FF1DA3H   CODE     ---       moter_wheel
*SFR* 00000080H.1 DATA     BIT       MOTOR_AIN1
*SFR* 00000080H.2 DATA     BIT       MOTOR_AIN2
*SFR* 00000080H.3 DATA     BIT       MOTOR_BIN1
*SFR* 00000080H.4 DATA     BIT       MOTOR_BIN2
      00FF0EB5H   CODE     ---       Motor_control
      0000005BH   EDATA    WORD      motor_delay
      00FF1B8BH   CODE     ---       Motor_FRcontrol
      00FF1E39H   CODE     ---       Motor_Init
      00000023H   EDATA    BYTE      motor_sw
      00FF001EH   CODE     ---       MotorL_Forward
      00FF1E47H   CODE     ---       MotorL_Reverse
      00FF1E42H   CODE     ---       MotorR_Forward
      00FF1E4CH   CODE     ---       MotorR_Reverse
      00000040H   EDATA    WORD      mpu6050_delay
      00FF0DAAH   CODE     ---       MPU6050_Read
      00FF1D92H   CODE     ---       myabs
      00FF0003H   CODE     ---       obstacle_avoidance
      0000009DH   EDATA    CHAR      old_line_inaccuracy
      00000044H   EDATA    CHAR      old_position
      00FF08B2H   CODE     ---       OLED_16x16
      00FF1A54H   CODE     ---       OLED_address
      00FF1938H   CODE     ---       OLED_Clear
      00FF1901H   CODE     ---       OLED_Clear_0_2
      00FF1BABH   CODE     ---       OLED_ColorTurn
*SFR* 000000C0H.6 DATA     BIT       OLED_CS
*SFR* 000000C8H.0 DATA     BIT       OLED_DC
      00FF0046H   CODE     ---       OLED_Display_128x64
      00FF17A4H   CODE     ---       OLED_Display_16x16
      00FF19FDH   CODE     ---       OLED_Display_5x7
      00FF17FAH   CODE     ---       OLED_Display_8x16
      00FF1CB1H   CODE     ---       OLED_DisPlay_Off
      00FF1CC6H   CODE     ---       OLED_DisPlay_On
      00FF11F8H   CODE     ---       OLED_Display_string_5x7
      00FF19D1H   CODE     ---       OLED_DisplayTurn
      00FF16EFH   CODE     ---       OLED_get_data_from_ROM
      00FF1135H   CODE     ---       OLED_Init
*SFR* 000000C0H.5 DATA     BIT       OLED_READ_FS0
*SFR* 000000F8H.7 DATA     BIT       OLED_ROM_CS
*SFR* 000000C8H.3 DATA     BIT       OLED_SCL
*SFR* 000000C8H.2 DATA     BIT       OLED_SDA
      00FF0C6DH   CODE     ---       OLED_ShowNum
      00000027H   EDATA    ---       oled_showtext
      00FF1A29H   CODE     ---       OLED_WR_Byte
*SFR* 00000080H   DATA     BYTE      P0
*SFR* 00000094H   DATA     BYTE      P0M0
*SFR* 00000093H   DATA     BYTE      P0M1
*SFR* 00000090H   DATA     BYTE      P1
*SFR* 00000092H   DATA     BYTE      P1M0
*SFR* 00000091H   DATA     BYTE      P1M1
*SFR* 000000A0H   DATA     BYTE      P2
L251 LINKER/LOCATER V4.66.93.0                                                        08/04/2023  19:40:36  PAGE 10


*SFR* 00000096H   DATA     BYTE      P2M0
*SFR* 00000095H   DATA     BYTE      P2M1
*SFR* 000000B0H   DATA     BYTE      P3
*SFR* 000000B2H   DATA     BYTE      P3M0
*SFR* 000000B1H   DATA     BYTE      P3M1
*SFR* 000000C0H   DATA     BYTE      P4
*SFR* 000000C0H.1 DATA     BIT       P41
*SFR* 000000C0H.2 DATA     BIT       P42
*SFR* 000000B4H   DATA     BYTE      P4M0
*SFR* 000000B3H   DATA     BYTE      P4M1
*SFR* 000000C8H   DATA     BYTE      P5
*SFR* 000000FFH.4 DATA     BIT       P54RST
*SFR* 000000CAH   DATA     BYTE      P5M0
*SFR* 000000C9H   DATA     BYTE      P5M1
*SFR* 000000E8H   DATA     BYTE      P6
*SFR* 000000CCH   DATA     BYTE      P6M0
*SFR* 000000CBH   DATA     BYTE      P6M1
*SFR* 000000F8H   DATA     BYTE      P7
*SFR* 000000F8H.0 DATA     BIT       P70
*SFR* 000000F8H.3 DATA     BIT       P73
*SFR* 000000E2H   DATA     BYTE      P7M0
*SFR* 000000E1H   DATA     BYTE      P7M1
*SFR* 000000A2H   DATA     BYTE      P_SW1
*SFR* 000000BAH   DATA     BYTE      P_SW2
*SFR* 000000BBH   DATA     BYTE      P_SW3
*SFR* 00000087H   DATA     BYTE      PCON
      0000009EH   EDATA    ---       positionPID
*SFR* 000000D0H   DATA     BYTE      PSW
      00FF0ADBH   CODE     ---       PWM_Config
      00000018H   EDATA    WORD      PWMB_CCA
      0000000CH   EDATA    WORD      PWMB_CCR5
      0000000EH   EDATA    WORD      PWMB_CCR6
      00000010H   EDATA    WORD      PWMB_CCR7
      00000012H   EDATA    WORD      PWMB_CCR8
      00FF15B8H   CODE     ---       Read_MPU6050
      00FF0F93H   CODE     ---       ReadLine
      00FF1D44H   CODE     ---       ReadLine_proc
*SFR* 00000098H.0 DATA     BIT       RI
      00000016H   EDATA    INT       Right_moto2
*SFR* 000000FFH   DATA     BYTE      RSTCFG
*SFR* 00000090H.1 DATA     BIT       Rx
*SFR* 000000A2H.6 DATA     BIT       S1_S0
*SFR* 000000A2H.7 DATA     BIT       S1_S1
*SFR* 0000009BH   DATA     BYTE      S2BUF
*SFR* 0000009AH   DATA     BYTE      S2CON
*SFR* 0000009AH.0 DATA     BIT       S2RI
*SFR* 0000009AH.1 DATA     BIT       S2TI
*SFR* 000000ACH   DATA     BYTE      S3CON
*SFR* 000000FDH   DATA     BYTE      S4CON
*SFR* 00000099H   DATA     BYTE      SBUF
*SFR* 000000B0H.6 DATA     BIT       SCL
*SFR* 00000098H   DATA     BYTE      SCON
*SFR* 000000B0H.7 DATA     BIT       SDA
      00FF1BC9H   CODE     ---       Send_Command_to_ROM
      00FF14D6H   CODE     ---       Set_FBPwm
      00FF1547H   CODE     ---       Set_LRPwm
      00FF0026H   CODE     ---       Single_WriteI2C
*SFR* 000000CEH   DATA     BYTE      SPCTL
      00FF0239H   CODE     NEAR LAB  sprintf
*SFR* 000000CDH   DATA     BYTE      SPSTAT
      00FF1DD5H   CODE     ---       strlen?_
      0000017DH   EDATA    ---       SYN_ChackCom
      00000168H   EDATA    ---       SYN_Change
      00FF12A1H   CODE     ---       SYN_FrameInfo
      00000173H   EDATA    ---       SYN_PowerDownCom
L251 LINKER/LOCATER V4.66.93.0                                                        08/04/2023  19:40:36  PAGE 11


      00000178H   EDATA    ---       SYN_RecoverCom
      0000016EH   EDATA    ---       SYN_StopCom
      00000182H   EDATA    ---       SYN_SuspendCom
      000000BDH   EDATA    WORD      sys_led
*SFR* 000000D6H   DATA     BYTE      T2H
*SFR* 000000D7H   DATA     BYTE      T2L
*SFR* 000000D4H   DATA     BYTE      T3H
*SFR* 000000D5H   DATA     BYTE      T3L
*SFR* 000000DDH   DATA     BYTE      T4T3M
      0000005EH   EDATA    BYTE      T_S_B
      00FF1A7FH   CODE     ---       T_S_B_1_ReadLine
      00FF1AA9H   CODE     ---       T_S_B_2_ReadLine
*SFR* 00000088H   DATA     BYTE      TCON
*SFR* 00000088H.5 DATA     BIT       TF0
*SFR* 00000088H.7 DATA     BIT       TF1
      0000018FH   EDATA    DWORD     TF_Count
*SFR* 0000008CH   DATA     BYTE      TH0
*SFR* 0000008DH   DATA     BYTE      TH1
*SFR* 00000098H.1 DATA     BIT       TI
      00FF1D59H   CODE     ---       Timer0
      00FF1D7FH   CODE     ---       Timer0Init
      00FF145FH   CODE     ---       timer1
      00FF1CDBH   CODE     ---       Timer1_Init
      00FF1DC5H   CODE     ---       Timer3_Init
      00FF18C9H   CODE     ---       Timer3_Isr
*SFR* 0000008AH   DATA     BYTE      TL0
*SFR* 0000008BH   DATA     BYTE      TL1
*SFR* 00000089H   DATA     BYTE      TMOD
      000000ACH   EDATA    ---       tp
*SFR* 00000088H.4 DATA     BIT       TR0
*SFR* 00000088H.6 DATA     BIT       TR1
      00000080H   EDATA    BYTE      Tracking_value
*SFR* 00000090H.0 DATA     BIT       Tx
      00000067H   EDATA    ---       txbuf
      00FF1C2CH   CODE     ---       Uart1_Init
      00FF1E1DH   CODE     ---       Uart1_Isr
      00FF1E30H   CODE     ---       Uart1_sendbyte
      00FF1C43H   CODE     ---       Uart1_String
      00FF1D6CH   CODE     ---       Uart2_Init
      00FF1DF0H   CODE     ---       Uart2_Isr
      00FF1DFCH   CODE     ---       Uart2_sendbyte
      00FF1AD3H   CODE     ---       UART2_SendString
      00FF1C59H   CODE     ---       Uart2_String
      00FF1C85H   CODE     ---       Uart3_Init
      00FF1E07H   CODE     ---       Uart3_sendbyte
      00FF1C6FH   CODE     ---       Uart3_String
      00FF1D05H   CODE     ---       Update_5
      00FF1D1AH   CODE     ---       Update_6
      00FF1D2FH   CODE     ---       Update_7
      00FF1CF0H   CODE     ---       Update_8
      00FF1690H   CODE     ---       Update_duty
*SFR* 000000F4H   DATA     BYTE      USBCON
      00000042H   EDATA    BYTE      Wave
      000000BFH   EDATA    ---       Wave_Buff
      00000193H   EDATA    BYTE      Wave_flag
      00FF1626H   CODE     ---       Wave_ultrasonic
*SFR* 000000C1H   DATA     BYTE      WDT_CONTR
*SFR* 000000E9H   DATA     BYTE      WTST
      0000008DH   EDATA    INT       X_Result
      00FF1347H   CODE     ---       Xianfu_Pwm
      0000008FH   EDATA    INT       Y_Result
      00FF1DB4H   CODE     ---       YS_SYN_Set
      00000093H   EDATA    INT       Z_Result


L251 LINKER/LOCATER V4.66.93.0                                                        08/04/2023  19:40:36  PAGE 12



SYMBOL TABLE OF MODULE:  LED (main)

      VALUE       REP       CLASS    TYPE      SYMBOL NAME
      ====================================================
      ---         MODULE    ---      ---       main
      00FF0DAAH   PUBLIC    CODE     ---       MPU6050_Read
      00FF106DH   PUBLIC    CODE     ---       Key_Proc
      00FF174AH   PUBLIC    CODE     ---       main
      00FF1D59H   PUBLIC    CODE     ---       Timer0
      00FF18C9H   PUBLIC    CODE     ---       Timer3_Isr
      00FF145FH   PUBLIC    CODE     ---       timer1
      00FF13D8H   PUBLIC    CODE     ---       Disp_refresh
      00FF0EB5H   PUBLIC    CODE     ---       Motor_control
      00000021H   PUBLIC    EDATA    INT       err_ki
      00000023H   PUBLIC    EDATA    BYTE      motor_sw
      00000024H   PUBLIC    EDATA    INT       err_kp
      00000026H   PUBLIC    EDATA    BYTE      key_up
      00000027H   PUBLIC    EDATA    ---       oled_showtext
      00000040H   PUBLIC    EDATA    WORD      mpu6050_delay
      00000042H   PUBLIC    EDATA    BYTE      Wave
      00000043H   PUBLIC    EDATA    BYTE      flag
      00000044H   PUBLIC    EDATA    CHAR      old_position
      00000045H   PUBLIC    EDATA    FLOAT     Last_Angle_gx
      00000049H   PUBLIC    EDATA    FLOAT     Last_Angle_gy
      0000004DH   PUBLIC    EDATA    FLOAT     Angle_ax
      00000051H   PUBLIC    EDATA    WORD      disp_delay
      00000053H   PUBLIC    EDATA    FLOAT     Angle_ay
      00000057H   PUBLIC    EDATA    FLOAT     Angle_az
      0000005BH   PUBLIC    EDATA    WORD      motor_delay
      0000005DH   PUBLIC    EDATA    BYTE      flag_count
      0000005EH   PUBLIC    EDATA    BYTE      T_S_B
      0000005FH   PUBLIC    EDATA    FLOAT     Angle_gx
      00000063H   PUBLIC    EDATA    FLOAT     Angle_gy
      00000067H   PUBLIC    EDATA    ---       txbuf
      0000007BH   PUBLIC    EDATA    FLOAT     Angle_gz
      0000007FH   PUBLIC    EDATA    CHAR      line_inaccuracy
      00000080H   PUBLIC    EDATA    BYTE      Tracking_value
      00000081H   PUBLIC    EDATA    FLOAT     a_x
      00000085H   PUBLIC    EDATA    FLOAT     a_y
      00000089H   PUBLIC    EDATA    FLOAT     a_z
      0000008DH   PUBLIC    EDATA    INT       X_Result
      0000008FH   PUBLIC    EDATA    INT       Y_Result
      00000091H   PUBLIC    EDATA    WORD      key_delay
      00000093H   PUBLIC    EDATA    INT       Z_Result
      00000095H   PUBLIC    EDATA    INT       g_x
      00000097H   PUBLIC    EDATA    INT       g_y
      00000099H   PUBLIC    EDATA    INT       g_z
      0000009BH   PUBLIC    EDATA    BYTE      key_Down
      0000009CH   PUBLIC    EDATA    BYTE      key_value
      0000009DH   PUBLIC    EDATA    CHAR      old_line_inaccuracy
      0000009EH   PUBLIC    EDATA    ---       positionPID
      000000ACH   PUBLIC    EDATA    ---       tp
      000000BCH   PUBLIC    EDATA    BYTE      key_old
      000000BDH   PUBLIC    EDATA    WORD      sys_led
      000000BFH   PUBLIC    EDATA    ---       Wave_Buff
      000000D3H   PUBLIC    EDATA    INT       err_kd
      000000D0H   SFRSYM    DATA     BYTE      PSW
      0000009DH   SFRSYM    DATA     BYTE      IRCBAND
      00000097H   SFRSYM    DATA     BYTE      AUXR2
      000000EFH   SFRSYM    DATA     BYTE      AUXINTIF
      000000A2H.7 SFRSYM    DATA     BIT       S1_S1
      000000FDH   SFRSYM    DATA     BYTE      S4CON
      000000A2H.6 SFRSYM    DATA     BIT       S1_S0
      000000ACH   SFRSYM    DATA     BYTE      S3CON
L251 LINKER/LOCATER V4.66.93.0                                                        08/04/2023  19:40:36  PAGE 13


      0000009AH   SFRSYM    DATA     BYTE      S2CON
      000000B7H   SFRSYM    DATA     BYTE      IPH
      000000CDH   SFRSYM    DATA     BYTE      SPSTAT
      000000DDH   SFRSYM    DATA     BYTE      T4T3M
      000000C1H   SFRSYM    DATA     BYTE      WDT_CONTR
      000000DFH   SFRSYM    DATA     BYTE      IP3
      000000F4H   SFRSYM    DATA     BYTE      USBCON
      000000B5H   SFRSYM    DATA     BYTE      IP2
      000000FFH   SFRSYM    DATA     BYTE      RSTCFG
      000000C7H   SFRSYM    DATA     BYTE      IAP_CONTR
      000000F9H   SFRSYM    DATA     BYTE      LINICR
      0000008EH   SFRSYM    DATA     BYTE      AUXR
      000000AFH   SFRSYM    DATA     BYTE      IE2
      00000088H   SFRSYM    DATA     BYTE      TCON
      00000089H   SFRSYM    DATA     BYTE      TMOD
      00000098H   SFRSYM    DATA     BYTE      SCON
      000000FFH.4 SFRSYM    DATA     BIT       P54RST
      000000F1H   SFRSYM    DATA     BYTE      CANICR
      00000087H   SFRSYM    DATA     BYTE      PCON
      000000BCH   SFRSYM    DATA     BYTE      ADC_CONTR
      000000E7H   SFRSYM    DATA     BYTE      CMPCR2
      000000E6H   SFRSYM    DATA     BYTE      CMPCR1
      000000DEH   SFRSYM    DATA     BYTE      ADCCFG
      000000B8H   SFRSYM    DATA     BYTE      IP
      0000008FH   SFRSYM    DATA     BYTE      INTCLKO
      000000EEH   SFRSYM    DATA     BYTE      IP3H
      000000B6H   SFRSYM    DATA     BYTE      IP2H
      000000A8H   SFRSYM    DATA     BYTE      IE
      000000BBH   SFRSYM    DATA     BYTE      P_SW3
      000000BAH   SFRSYM    DATA     BYTE      P_SW2
      000000A2H   SFRSYM    DATA     BYTE      P_SW1
      000000CEH   SFRSYM    DATA     BYTE      SPCTL
      000000F8H   SFRSYM    DATA     BYTE      P7
      000000E8H   SFRSYM    DATA     BYTE      P6
      000000C8H   SFRSYM    DATA     BYTE      P5
      000000C0H   SFRSYM    DATA     BYTE      P4
      000000B0H   SFRSYM    DATA     BYTE      P3
      000000A0H   SFRSYM    DATA     BYTE      P2
      00000090H   SFRSYM    DATA     BYTE      P1
      00000080H   SFRSYM    DATA     BYTE      P0

      00FF174AH   BLOCK     CODE     ---       LVL=0
      00FF174AH   LINE      CODE     ---       #108
      00FF174AH   LINE      CODE     ---       #110
      00FF174DH   LINE      CODE     ---       #111
      00FF1750H   LINE      CODE     ---       #112
      00FF1754H   LINE      CODE     ---       #113
      00FF1758H   LINE      CODE     ---       #114
      00FF175BH   LINE      CODE     ---       #115
      00FF175EH   LINE      CODE     ---       #116
      00FF1761H   LINE      CODE     ---       #117
      00FF1764H   LINE      CODE     ---       #118
      00FF1767H   LINE      CODE     ---       #119
      00FF176DH   LINE      CODE     ---       #120
      00FF1770H   LINE      CODE     ---       #121
      00FF1773H   LINE      CODE     ---       #122
      00FF1776H   LINE      CODE     ---       #124
      00FF177EH   LINE      CODE     ---       #125
      00FF1788H   LINE      CODE     ---       #126
      00FF178EH   LINE      CODE     ---       #127
      00FF1796H   LINE      CODE     ---       #129
      00FF1796H   LINE      CODE     ---       #131
      00FF1799H   LINE      CODE     ---       #132
      00FF179CH   LINE      CODE     ---       #133
      00FF179FH   LINE      CODE     ---       #134
L251 LINKER/LOCATER V4.66.93.0                                                        08/04/2023  19:40:36  PAGE 14


      00FF17A2H   LINE      CODE     ---       #135
      ---         BLOCKEND  ---      ---       LVL=0

      00FF1D59H   BLOCK     CODE     ---       LVL=0
      00FF1D59H   LINE      CODE     ---       #140
      00FF1D5DH   LINE      CODE     ---       #142
      00FF1D67H   LINE      CODE     ---       #143
      ---         BLOCKEND  ---      ---       LVL=0

      00FF145FH   BLOCK     CODE     ---       LVL=0
      00FF145FH   LINE      CODE     ---       #147
      00FF1463H   LINE      CODE     ---       #149
      00FF1479H   LINE      CODE     ---       #150
      00FF148FH   LINE      CODE     ---       #151
      00FF14A5H   LINE      CODE     ---       #152
      00FF14BBH   LINE      CODE     ---       #154
      00FF14CBH   LINE      CODE     ---       #156
      00FF14D1H   LINE      CODE     ---       #157
      ---         BLOCKEND  ---      ---       LVL=0

      00FF18C9H   BLOCK     CODE     ---       LVL=0
      00FF18C9H   LINE      CODE     ---       #161
      00FF18CFH   LINE      CODE     ---       #163
      00FF18D6H   LINE      CODE     ---       #165
      00FF18DFH   LINE      CODE     ---       #166
      00FF18E8H   LINE      CODE     ---       #168
      00FF18F1H   LINE      CODE     ---       #169
      00FF18F6H   LINE      CODE     ---       #170
      00FF18FAH   LINE      CODE     ---       #171
      00FF18FAH   LINE      CODE     ---       #173
      ---         BLOCKEND  ---      ---       LVL=0

      00FF106DH   BLOCK     CODE     ---       LVL=0
      00FF106DH   LINE      CODE     ---       #179
      00FF106DH   LINE      CODE     ---       #184
      00FF1076H   LINE      CODE     ---       #185
      00FF1088H   LINE      CODE     ---       #186
      00FF1094H   LINE      CODE     ---       #187
      00FF1098H   LINE      CODE     ---       #189
      00FF10ADH   LINE      CODE     ---       #191
      00FF10ADH   LINE      CODE     ---       #192
      00FF10B9H   LINE      CODE     ---       #193
      00FF10BCH   LINE      CODE     ---       #194
      00FF10C6H   LINE      CODE     ---       #195
      00FF10CEH   LINE      CODE     ---       #196
      00FF10CFH   LINE      CODE     ---       #197
      00FF10CFH   LINE      CODE     ---       #198
      00FF10DBH   LINE      CODE     ---       #199
      00FF10DEH   LINE      CODE     ---       #200
      00FF10E8H   LINE      CODE     ---       #201
      00FF10F0H   LINE      CODE     ---       #202
      00FF10F1H   LINE      CODE     ---       #203
      00FF10F1H   LINE      CODE     ---       #204
      00FF10FDH   LINE      CODE     ---       #205
      00FF1100H   LINE      CODE     ---       #206
      00FF110AH   LINE      CODE     ---       #207
      00FF1112H   LINE      CODE     ---       #208
      00FF1113H   LINE      CODE     ---       #209
      00FF1113H   LINE      CODE     ---       #210
      00FF111FH   LINE      CODE     ---       #211
      00FF1122H   LINE      CODE     ---       #212
      00FF112CH   LINE      CODE     ---       #213
      00FF1134H   LINE      CODE     ---       #214
      00FF1134H   LINE      CODE     ---       #215
      00FF1134H   LINE      CODE     ---       #216
L251 LINKER/LOCATER V4.66.93.0                                                        08/04/2023  19:40:36  PAGE 15


      ---         BLOCKEND  ---      ---       LVL=0

      00FF13D8H   BLOCK     CODE     ---       LVL=0
      00FF13D8H   LINE      CODE     ---       #219
      00FF13D8H   LINE      CODE     ---       #249
      00FF13EFH   LINE      CODE     ---       #250
      00FF13F9H   LINE      CODE     ---       #251
      00FF1410H   LINE      CODE     ---       #252
      00FF141BH   LINE      CODE     ---       #253
      00FF1432H   LINE      CODE     ---       #254
      00FF143DH   LINE      CODE     ---       #255
      00FF1454H   LINE      CODE     ---       #256
      ---         BLOCKEND  ---      ---       LVL=0

      00FF0DAAH   BLOCK     CODE     ---       LVL=0
      00FF0DAAH   LINE      CODE     ---       #264
      00FF0DAAH   LINE      CODE     ---       #266
      00FF0DB5H   LINE      CODE     ---       #267
      00FF0DBDH   LINE      CODE     ---       #270
      00FF0DC4H   LINE      CODE     ---       #272
      00FF0DE3H   LINE      CODE     ---       #273
      00FF0DFCH   LINE      CODE     ---       #274
      00FF0E15H   LINE      CODE     ---       #275
      00FF0E1DH   LINE      CODE     ---       #276
      00FF0E25H   LINE      CODE     ---       #277
      00FF0E46H   LINE      CODE     ---       #278
      00FF0E63H   LINE      CODE     ---       #279
      00FF0E80H   LINE      CODE     ---       #283
      00FF0E94H   LINE      CODE     ---       #285
      00FF0EA4H   LINE      CODE     ---       #287
      00FF0EB4H   LINE      CODE     ---       #306
      ---         BLOCKEND  ---      ---       LVL=0

      00FF0EB5H   BLOCK     CODE     ---       LVL=0
      00FF0EB5H   LINE      CODE     ---       #313
      00FF0EB5H   LINE      CODE     ---       #315
      00FF0EC0H   LINE      CODE     ---       #316
      00FF0EC8H   LINE      CODE     ---       #318
      00FF0ECFH   LINE      CODE     ---       #320
      00FF0EDDH   LINE      CODE     ---       #322
      00FF0EE4H   LINE      CODE     ---       #323
      00FF0EECH   LINE      CODE     ---       #324
      00FF0EF3H   LINE      CODE     ---       #325
      00FF0EFBH   LINE      CODE     ---       #326
      00FF0EFDH   LINE      CODE     ---       #329
      00FF0F03H   LINE      CODE     ---       #330
      00FF0F0BH   LINE      CODE     ---       #331
      00FF0F0BH   LINE      CODE     ---       #333
      00FF0F24H   LINE      CODE     ---       #334
      00FF0F34H   LINE      CODE     ---       #335
      00FF0F4BH   LINE      CODE     ---       #337
      00FF0F51H   LINE      CODE     ---       #339
      00FF0F61H   LINE      CODE     ---       #340
      00FF0F6DH   LINE      CODE     ---       #341
      00FF0F6FH   LINE      CODE     ---       #344
      00FF0F77H   LINE      CODE     ---       #345
      00FF0F7BH   LINE      CODE     ---       #346
      00FF0F7BH   LINE      CODE     ---       #348
      00FF0F8AH   LINE      CODE     ---       #349
      00FF0F92H   LINE      CODE     ---       #350
      ---         BLOCKEND  ---      ---       LVL=0

      ---         MODULE    ---      ---       oled
      00FF1BFEH   PUBLIC    CODE     ---       Get_data_from_ROM
      00FF17A4H   PUBLIC    CODE     ---       OLED_Display_16x16
L251 LINKER/LOCATER V4.66.93.0                                                        08/04/2023  19:40:36  PAGE 16


      00FF19D1H   PUBLIC    CODE     ---       OLED_DisplayTurn
      00FF1901H   PUBLIC    CODE     ---       OLED_Clear_0_2
      00FF1135H   PUBLIC    CODE     ---       OLED_Init
      00FF11F8H   PUBLIC    CODE     ---       OLED_Display_string_5x7
      00FF19FDH   PUBLIC    CODE     ---       OLED_Display_5x7
      00FF1A29H   PUBLIC    CODE     ---       OLED_WR_Byte
      00FF16EFH   PUBLIC    CODE     ---       OLED_get_data_from_ROM
      00FF1BABH   PUBLIC    CODE     ---       OLED_ColorTurn
      00FF1CB1H   PUBLIC    CODE     ---       OLED_DisPlay_Off
      00FF0046H   PUBLIC    CODE     ---       OLED_Display_128x64
      00FF1BC9H   PUBLIC    CODE     ---       Send_Command_to_ROM
      00FF08B2H   PUBLIC    CODE     ---       OLED_16x16
      00FF1C15H   PUBLIC    CODE     ---       delay_ms
      00FF17FAH   PUBLIC    CODE     ---       OLED_Display_8x16
      00FF0C6DH   PUBLIC    CODE     ---       OLED_ShowNum
      00FF1CC6H   PUBLIC    CODE     ---       OLED_DisPlay_On
      00FF1938H   PUBLIC    CODE     ---       OLED_Clear
      00FF1A54H   PUBLIC    CODE     ---       OLED_address
      00000194H   PUBLIC    EDATA    DWORD     fontaddr
      000000D0H   SFRSYM    DATA     BYTE      PSW
      0000009DH   SFRSYM    DATA     BYTE      IRCBAND
      00000097H   SFRSYM    DATA     BYTE      AUXR2
      000000EFH   SFRSYM    DATA     BYTE      AUXINTIF
      000000F8H.7 SFRSYM    DATA     BIT       OLED_ROM_CS
      000000FDH   SFRSYM    DATA     BYTE      S4CON
      000000C8H.3 SFRSYM    DATA     BIT       OLED_SCL
      000000ACH   SFRSYM    DATA     BYTE      S3CON
      0000009AH   SFRSYM    DATA     BYTE      S2CON
      000000B7H   SFRSYM    DATA     BYTE      IPH
      000000CDH   SFRSYM    DATA     BYTE      SPSTAT
      000000C8H.2 SFRSYM    DATA     BIT       OLED_SDA
      000000DDH   SFRSYM    DATA     BYTE      T4T3M
      000000C1H   SFRSYM    DATA     BYTE      WDT_CONTR
      000000C0H.5 SFRSYM    DATA     BIT       OLED_READ_FS0
      000000DFH   SFRSYM    DATA     BYTE      IP3
      000000F4H   SFRSYM    DATA     BYTE      USBCON
      000000B5H   SFRSYM    DATA     BYTE      IP2
      000000FFH   SFRSYM    DATA     BYTE      RSTCFG
      000000C7H   SFRSYM    DATA     BYTE      IAP_CONTR
      000000F9H   SFRSYM    DATA     BYTE      LINICR
      0000008EH   SFRSYM    DATA     BYTE      AUXR
      000000AFH   SFRSYM    DATA     BYTE      IE2
      00000088H   SFRSYM    DATA     BYTE      TCON
      00000089H   SFRSYM    DATA     BYTE      TMOD
      00000098H   SFRSYM    DATA     BYTE      SCON
      000000F1H   SFRSYM    DATA     BYTE      CANICR
      00000087H   SFRSYM    DATA     BYTE      PCON
      000000BCH   SFRSYM    DATA     BYTE      ADC_CONTR
      000000E7H   SFRSYM    DATA     BYTE      CMPCR2
      000000E6H   SFRSYM    DATA     BYTE      CMPCR1
      000000C0H.6 SFRSYM    DATA     BIT       OLED_CS
      000000DEH   SFRSYM    DATA     BYTE      ADCCFG
      000000B8H   SFRSYM    DATA     BYTE      IP
      0000008FH   SFRSYM    DATA     BYTE      INTCLKO
      000000EEH   SFRSYM    DATA     BYTE      IP3H
      000000B6H   SFRSYM    DATA     BYTE      IP2H
      000000A8H   SFRSYM    DATA     BYTE      IE
      000000BBH   SFRSYM    DATA     BYTE      P_SW3
      000000BAH   SFRSYM    DATA     BYTE      P_SW2
      000000C8H.0 SFRSYM    DATA     BIT       OLED_DC
      000000A2H   SFRSYM    DATA     BYTE      P_SW1
      000000CEH   SFRSYM    DATA     BYTE      SPCTL
      000000F8H   SFRSYM    DATA     BYTE      P7
      000000E8H   SFRSYM    DATA     BYTE      P6
      000000C8H   SFRSYM    DATA     BYTE      P5
L251 LINKER/LOCATER V4.66.93.0                                                        08/04/2023  19:40:36  PAGE 17


      000000C0H   SFRSYM    DATA     BYTE      P4
      000000B0H   SFRSYM    DATA     BYTE      P3
      000000A0H   SFRSYM    DATA     BYTE      P2
      00000090H   SFRSYM    DATA     BYTE      P1
      00000080H   SFRSYM    DATA     BYTE      P0

      00FF1C15H   BLOCK     CODE     ---       LVL=0
      WR2         REGSYM    ---      WORD      ms
      00FF1C17H   BLOCK     CODE     NEAR LAB  LVL=1
      WR0         REGSYM    ---      WORD      a
      ---         BLOCKEND  ---      ---       LVL=1
      00FF1C15H   LINE      CODE     ---       #3
      00FF1C17H   LINE      CODE     ---       #4
      00FF1C17H   LINE      CODE     ---       #6
      00FF1C19H   LINE      CODE     ---       #8
      00FF1C1DH   LINE      CODE     ---       #9
      00FF1C25H   LINE      CODE     ---       #10
      00FF1C27H   LINE      CODE     ---       #11
      00FF1C2BH   LINE      CODE     ---       #12
      00FF1C2BH   LINE      CODE     ---       #13
      ---         BLOCKEND  ---      ---       LVL=0

      00FF1BABH   BLOCK     CODE     ---       LVL=0
      R15         REGSYM    ---      BYTE      i
      00FF1BABH   LINE      CODE     ---       #16
      00FF1BAFH   LINE      CODE     ---       #18
      00FF1BB3H   LINE      CODE     ---       #20
      00FF1BBAH   LINE      CODE     ---       #21
      00FF1BBAH   LINE      CODE     ---       #22
      00FF1BBFH   LINE      CODE     ---       #24
      00FF1BC6H   LINE      CODE     ---       #25
      ---         BLOCKEND  ---      ---       LVL=0

      00FF19D1H   BLOCK     CODE     ---       LVL=0
      R15         REGSYM    ---      BYTE      i
      00FF19D1H   LINE      CODE     ---       #29
      00FF19D5H   LINE      CODE     ---       #31
      00FF19D9H   LINE      CODE     ---       #33
      00FF19E0H   LINE      CODE     ---       #34
      00FF19E7H   LINE      CODE     ---       #35
      00FF19E7H   LINE      CODE     ---       #36
      00FF19ECH   LINE      CODE     ---       #38
      00FF19F3H   LINE      CODE     ---       #39
      00FF19FAH   LINE      CODE     ---       #40
      ---         BLOCKEND  ---      ---       LVL=0

      00FF1CC6H   BLOCK     CODE     ---       LVL=0
      00FF1CC6H   LINE      CODE     ---       #44
      00FF1CC6H   LINE      CODE     ---       #46
      00FF1CCDH   LINE      CODE     ---       #47
      00FF1CD4H   LINE      CODE     ---       #48
      ---         BLOCKEND  ---      ---       LVL=0

      00FF1CB1H   BLOCK     CODE     ---       LVL=0
      00FF1CB1H   LINE      CODE     ---       #52
      00FF1CB1H   LINE      CODE     ---       #54
      00FF1CB8H   LINE      CODE     ---       #55
      00FF1CBFH   LINE      CODE     ---       #56
      ---         BLOCKEND  ---      ---       LVL=0

      00FF1A29H   BLOCK     CODE     ---       LVL=0
      R6          REGSYM    ---      BYTE      dat
      R7          REGSYM    ---      BYTE      cmd
      00FF1A2BH   BLOCK     CODE     NEAR LAB  LVL=1
      R7          REGSYM    ---      BYTE      i
L251 LINKER/LOCATER V4.66.93.0                                                        08/04/2023  19:40:36  PAGE 18


      ---         BLOCKEND  ---      ---       LVL=1
      00FF1A29H   LINE      CODE     ---       #62
      00FF1A2BH   LINE      CODE     ---       #63
      00FF1A2BH   LINE      CODE     ---       #65
      00FF1A2FH   LINE      CODE     ---       #67
      00FF1A31H   LINE      CODE     ---       #68
      00FF1A33H   LINE      CODE     ---       #71
      00FF1A35H   LINE      CODE     ---       #72
      00FF1A35H   LINE      CODE     ---       #73
      00FF1A37H   LINE      CODE     ---       #74
      00FF1A3AH   LINE      CODE     ---       #76
      00FF1A3CH   LINE      CODE     ---       #77
      00FF1A41H   LINE      CODE     ---       #79
      00FF1A43H   LINE      CODE     ---       #80
      00FF1A45H   LINE      CODE     ---       #83
      00FF1A47H   LINE      CODE     ---       #84
      00FF1A47H   LINE      CODE     ---       #85
      00FF1A49H   LINE      CODE     ---       #86
      00FF1A4BH   LINE      CODE     ---       #87
      00FF1A4FH   LINE      CODE     ---       #88
      00FF1A51H   LINE      CODE     ---       #89
      00FF1A53H   LINE      CODE     ---       #90
      ---         BLOCKEND  ---      ---       LVL=0

      00FF1938H   BLOCK     CODE     ---       LVL=0
      00FF193AH   BLOCK     CODE     NEAR LAB  LVL=1
      R15         REGSYM    ---      BYTE      i
      R14         REGSYM    ---      BYTE      n
      ---         BLOCKEND  ---      ---       LVL=1
      00FF1938H   LINE      CODE     ---       #93
      00FF193AH   LINE      CODE     ---       #94
      00FF193AH   LINE      CODE     ---       #96
      00FF193CH   LINE      CODE     ---       #98
      00FF1947H   LINE      CODE     ---       #99
      00FF194EH   LINE      CODE     ---       #100
      00FF1955H   LINE      CODE     ---       #101
      00FF1957H   LINE      CODE     ---       #103
      00FF195EH   LINE      CODE     ---       #104
      00FF1965H   LINE      CODE     ---       #105
      00FF196CH   LINE      CODE     ---       #106
      ---         BLOCKEND  ---      ---       LVL=0

      00FF1901H   BLOCK     CODE     ---       LVL=0
      00FF1903H   BLOCK     CODE     NEAR LAB  LVL=1
      R14         REGSYM    ---      BYTE      i
      R15         REGSYM    ---      BYTE      n
      ---         BLOCKEND  ---      ---       LVL=1
      00FF1901H   LINE      CODE     ---       #108
      00FF1903H   LINE      CODE     ---       #109
      00FF1903H   LINE      CODE     ---       #110
      00FF1903H   LINE      CODE     ---       #111
      00FF1905H   LINE      CODE     ---       #112
      00FF1910H   LINE      CODE     ---       #113
      00FF1917H   LINE      CODE     ---       #114
      00FF191EH   LINE      CODE     ---       #115
      00FF1920H   LINE      CODE     ---       #116
      00FF1927H   LINE      CODE     ---       #117
      00FF192EH   LINE      CODE     ---       #118
      00FF1935H   LINE      CODE     ---       #119
      ---         BLOCKEND  ---      ---       LVL=0

      00FF1A54H   BLOCK     CODE     ---       LVL=0
      R15         REGSYM    ---      BYTE      x
      R10         REGSYM    ---      BYTE      y
      00FF1A54H   LINE      CODE     ---       #121
L251 LINKER/LOCATER V4.66.93.0                                                        08/04/2023  19:40:36  PAGE 19


      00FF1A58H   LINE      CODE     ---       #123
      00FF1A5AH   LINE      CODE     ---       #124
      00FF1A65H   LINE      CODE     ---       #125
      00FF1A73H   LINE      CODE     ---       #126
      00FF1A7CH   LINE      CODE     ---       #127
      ---         BLOCKEND  ---      ---       LVL=0

      00FF0046H   BLOCK     CODE     ---       LVL=0
      REG=3       REGSYM    ---      ---       dp
      00FF004AH   BLOCK     CODE     NEAR LAB  LVL=1
      0000001EH   SYMBOL    EDATA    BYTE      i
      0000001FH   SYMBOL    EDATA    BYTE      j
      ---         BLOCKEND  ---      ---       LVL=1
      00FF0046H   LINE      CODE     ---       #130
      00FF004AH   LINE      CODE     ---       #131
      00FF004AH   LINE      CODE     ---       #132
      00FF004FH   LINE      CODE     ---       #133
      00FF0053H   LINE      CODE     ---       #135
      00FF005BH   LINE      CODE     ---       #136
      00FF0060H   LINE      CODE     ---       #138
      00FF0069H   LINE      CODE     ---       #139
      00FF006BH   LINE      CODE     ---       #140
      00FF0077H   LINE      CODE     ---       #141
      00FF0089H   LINE      CODE     ---       #142
      ---         BLOCKEND  ---      ---       LVL=0

      00FF17A4H   BLOCK     CODE     ---       LVL=0
      00000198H   SYMBOL    EDATA    BYTE      x
      00000199H   SYMBOL    EDATA    BYTE      y
      REG=3       REGSYM    ---      ---       dp
      00FF17B0H   BLOCK     CODE     NEAR LAB  LVL=1
      0000019AH   SYMBOL    EDATA    BYTE      i
      0000019BH   SYMBOL    EDATA    BYTE      j
      ---         BLOCKEND  ---      ---       LVL=1
      00FF17A4H   LINE      CODE     ---       #145
      00FF17B0H   LINE      CODE     ---       #146
      00FF17B0H   LINE      CODE     ---       #148
      00FF17B5H   LINE      CODE     ---       #150
      00FF17C0H   LINE      CODE     ---       #151
      00FF17C5H   LINE      CODE     ---       #153
      00FF17CEH   LINE      CODE     ---       #154
      00FF17D0H   LINE      CODE     ---       #155
      00FF17DCH   LINE      CODE     ---       #156
      00FF17E5H   LINE      CODE     ---       #157
      00FF17F7H   LINE      CODE     ---       #158
      ---         BLOCKEND  ---      ---       LVL=0

      00FF17FAH   BLOCK     CODE     ---       LVL=0
      0000019CH   SYMBOL    EDATA    BYTE      x
      0000019DH   SYMBOL    EDATA    BYTE      y
      REG=3       REGSYM    ---      ---       dp
      00FF1806H   BLOCK     CODE     NEAR LAB  LVL=1
      0000019EH   SYMBOL    EDATA    BYTE      i
      0000019FH   SYMBOL    EDATA    BYTE      j
      ---         BLOCKEND  ---      ---       LVL=1
      00FF17FAH   LINE      CODE     ---       #161
      00FF1806H   LINE      CODE     ---       #162
      00FF1806H   LINE      CODE     ---       #164
      00FF180BH   LINE      CODE     ---       #166
      00FF1816H   LINE      CODE     ---       #167
      00FF181BH   LINE      CODE     ---       #169
      00FF1824H   LINE      CODE     ---       #170
      00FF1826H   LINE      CODE     ---       #171
      00FF1832H   LINE      CODE     ---       #172
      00FF183BH   LINE      CODE     ---       #173
L251 LINKER/LOCATER V4.66.93.0                                                        08/04/2023  19:40:36  PAGE 20


      00FF184DH   LINE      CODE     ---       #174
      ---         BLOCKEND  ---      ---       LVL=0

      00FF19FDH   BLOCK     CODE     ---       LVL=0
      R11         REGSYM    ---      BYTE      x
      R10         REGSYM    ---      BYTE      y
      REG=3       REGSYM    ---      ---       dp
      00FF1A01H   BLOCK     CODE     NEAR LAB  LVL=1
      0000014EH   SYMBOL    EDATA    BYTE      i
      ---         BLOCKEND  ---      ---       LVL=1
      00FF19FDH   LINE      CODE     ---       #177
      00FF1A01H   LINE      CODE     ---       #178
      00FF1A01H   LINE      CODE     ---       #180
      00FF1A04H   LINE      CODE     ---       #181
      00FF1A09H   LINE      CODE     ---       #183
      00FF1A12H   LINE      CODE     ---       #184
      00FF1A14H   LINE      CODE     ---       #185
      00FF1A26H   LINE      CODE     ---       #186
      ---         BLOCKEND  ---      ---       LVL=0

      00FF1BC9H   BLOCK     CODE     ---       LVL=0
      R6          REGSYM    ---      BYTE      dat
      00FF1BCBH   BLOCK     CODE     NEAR LAB  LVL=1
      R7          REGSYM    ---      BYTE      i
      ---         BLOCKEND  ---      ---       LVL=1
      00FF1BC9H   LINE      CODE     ---       #189
      00FF1BCBH   LINE      CODE     ---       #190
      00FF1BCBH   LINE      CODE     ---       #192
      00FF1BCEH   LINE      CODE     ---       #194
      00FF1BD0H   LINE      CODE     ---       #195
      00FF1BD5H   LINE      CODE     ---       #197
      00FF1BD7H   LINE      CODE     ---       #198
      00FF1BD9H   LINE      CODE     ---       #201
      00FF1BDBH   LINE      CODE     ---       #202
      00FF1BDBH   LINE      CODE     ---       #203
      00FF1BDDH   LINE      CODE     ---       #204
      00FF1BDFH   LINE      CODE     ---       #205
      00FF1BE3H   LINE      CODE     ---       #206
      ---         BLOCKEND  ---      ---       LVL=0

      00FF1BFEH   BLOCK     CODE     ---       LVL=0
      R7          REGSYM    ---      BYTE      i
      R10         REGSYM    ---      BYTE      read
      00FF1BFEH   LINE      CODE     ---       #209
      00FF1BFEH   LINE      CODE     ---       #210
      00FF1BFEH   LINE      CODE     ---       #211
      00FF1C00H   LINE      CODE     ---       #212
      00FF1C03H   LINE      CODE     ---       #214
      00FF1C05H   LINE      CODE     ---       #215
      00FF1C07H   LINE      CODE     ---       #216
      00FF1C0AH   LINE      CODE     ---       #218
      00FF1C0CH   LINE      CODE     ---       #219
      00FF1C0CH   LINE      CODE     ---       #220
      00FF1C0EH   LINE      CODE     ---       #221
      00FF1C12H   LINE      CODE     ---       #222
      00FF1C14H   LINE      CODE     ---       #223
      ---         BLOCKEND  ---      ---       LVL=0

      00FF16EFH   BLOCK     CODE     ---       LVL=0
      0000014EH   SYMBOL    EDATA    BYTE      addrHigh
      0000014FH   SYMBOL    EDATA    BYTE      addrMid
      00000150H   SYMBOL    EDATA    BYTE      addrLow
      REG=3       REGSYM    ---      ---       pbuff
      00000151H   SYMBOL    EDATA    BYTE      DataLen
      00FF1703H   BLOCK     CODE     NEAR LAB  LVL=1
L251 LINKER/LOCATER V4.66.93.0                                                        08/04/2023  19:40:36  PAGE 21


      00000152H   SYMBOL    EDATA    BYTE      i
      ---         BLOCKEND  ---      ---       LVL=1
      00FF16EFH   LINE      CODE     ---       #228
      00FF1703H   LINE      CODE     ---       #229
      00FF1703H   LINE      CODE     ---       #231
      00FF1705H   LINE      CODE     ---       #232
      00FF170AH   LINE      CODE     ---       #233
      00FF1711H   LINE      CODE     ---       #234
      00FF1718H   LINE      CODE     ---       #235
      00FF171FH   LINE      CODE     ---       #236
      00FF1722H   LINE      CODE     ---       #238
      00FF1732H   LINE      CODE     ---       #239
      00FF1745H   LINE      CODE     ---       #240
      00FF1747H   LINE      CODE     ---       #241
      ---         BLOCKEND  ---      ---       LVL=0

      00FF08B2H   BLOCK     CODE     ---       LVL=0
      000000D5H   SYMBOL    EDATA    BYTE      x
      000000D6H   SYMBOL    EDATA    BYTE      y
      REG=3       REGSYM    ---      ---       text
      00FF08BEH   BLOCK     CODE     NEAR LAB  LVL=1
      000000D7H   SYMBOL    EDATA    BYTE      i
      000000D8H   SYMBOL    EDATA    BYTE      addrHigh
      000000D9H   SYMBOL    EDATA    BYTE      addrMid
      000000DAH   SYMBOL    EDATA    BYTE      addrLow
      000000DBH   SYMBOL    EDATA    ---       fontbuf
      00FF0A4AH   BLOCK     CODE     NEAR LAB  LVL=2
      000000FBH   SYMBOL    EDATA    ---       fontbuf
      ---         BLOCKEND  ---      ---       LVL=2
      ---         BLOCKEND  ---      ---       LVL=1
      00FF08B2H   LINE      CODE     ---       #246
      00FF08BEH   LINE      CODE     ---       #247
      00FF08BEH   LINE      CODE     ---       #248
      00FF08BFH   LINE      CODE     ---       #251
      00FF08C2H   LINE      CODE     ---       #253
      00FF08F2H   LINE      CODE     ---       #258
      00FF0905H   LINE      CODE     ---       #259
      00FF0913H   LINE      CODE     ---       #260
      00FF0922H   LINE      CODE     ---       #262
      00FF092CH   LINE      CODE     ---       #263
      00FF0932H   LINE      CODE     ---       #264
      00FF0938H   LINE      CODE     ---       #266
      00FF0942H   LINE      CODE     ---       #268
      00FF0951H   LINE      CODE     ---       #270
      00FF095BH   LINE      CODE     ---       #271
      00FF0961H   LINE      CODE     ---       #272
      00FF0964H   LINE      CODE     ---       #273
      00FF09A4H   LINE      CODE     ---       #276
      00FF09C4H   LINE      CODE     ---       #277
      00FF09D2H   LINE      CODE     ---       #278
      00FF09E1H   LINE      CODE     ---       #280
      00FF09EBH   LINE      CODE     ---       #281
      00FF09F1H   LINE      CODE     ---       #282
      00FF09F7H   LINE      CODE     ---       #284
      00FF0A01H   LINE      CODE     ---       #285
      00FF0A10H   LINE      CODE     ---       #286
      00FF0A1AH   LINE      CODE     ---       #287
      00FF0A20H   LINE      CODE     ---       #288
      00FF0A23H   LINE      CODE     ---       #289
      00FF0A4AH   LINE      CODE     ---       #290
      00FF0A4AH   LINE      CODE     ---       #292
      00FF0A63H   LINE      CODE     ---       #293
      00FF0A6EH   LINE      CODE     ---       #294
      00FF0A7AH   LINE      CODE     ---       #296
      00FF0A84H   LINE      CODE     ---       #297
L251 LINKER/LOCATER V4.66.93.0                                                        08/04/2023  19:40:36  PAGE 22


      00FF0A8AH   LINE      CODE     ---       #298
      00FF0A90H   LINE      CODE     ---       #300
      00FF0A9AH   LINE      CODE     ---       #301
      00FF0AA9H   LINE      CODE     ---       #302
      00FF0AB3H   LINE      CODE     ---       #303
      00FF0AB8H   LINE      CODE     ---       #304
      00FF0ABAH   LINE      CODE     ---       #306
      00FF0AC3H   LINE      CODE     ---       #307
      00FF0AD8H   LINE      CODE     ---       #308
      ---         BLOCKEND  ---      ---       LVL=0

      00FF11F8H   BLOCK     CODE     ---       LVL=0
      00000140H   SYMBOL    EDATA    BYTE      x
      00000141H   SYMBOL    EDATA    BYTE      y
      REG=3       REGSYM    ---      ---       text
      00FF1204H   BLOCK     CODE     NEAR LAB  LVL=1
      00000142H   SYMBOL    EDATA    BYTE      i
      00000143H   SYMBOL    EDATA    BYTE      addrHigh
      00000144H   SYMBOL    EDATA    BYTE      addrMid
      00000145H   SYMBOL    EDATA    BYTE      addrLow
      00FF121EH   BLOCK     CODE     NEAR LAB  LVL=2
      00000146H   SYMBOL    EDATA    ---       fontbuf
      ---         BLOCKEND  ---      ---       LVL=2
      ---         BLOCKEND  ---      ---       LVL=1
      00FF11F8H   LINE      CODE     ---       #310
      00FF1204H   LINE      CODE     ---       #311
      00FF1204H   LINE      CODE     ---       #312
      00FF1205H   LINE      CODE     ---       #314
      00FF1207H   LINE      CODE     ---       #316
      00FF121EH   LINE      CODE     ---       #317
      00FF121EH   LINE      CODE     ---       #319
      00FF122AH   LINE      CODE     ---       #320
      00FF1234H   LINE      CODE     ---       #321
      00FF1240H   LINE      CODE     ---       #323
      00FF124AH   LINE      CODE     ---       #324
      00FF1250H   LINE      CODE     ---       #325
      00FF1256H   LINE      CODE     ---       #327
      00FF1260H   LINE      CODE     ---       #328
      00FF126FH   LINE      CODE     ---       #329
      00FF1279H   LINE      CODE     ---       #330
      00FF127EH   LINE      CODE     ---       #331
      00FF1280H   LINE      CODE     ---       #333
      00FF1289H   LINE      CODE     ---       #334
      00FF129EH   LINE      CODE     ---       #335
      ---         BLOCKEND  ---      ---       LVL=0

      00FF0C6DH   BLOCK     CODE     ---       LVL=0
      R15         REGSYM    ---      BYTE      x
      R14         REGSYM    ---      BYTE      y
      DR28        REGSYM    ---      FLOAT     num1
      R13         REGSYM    ---      BYTE      len
      00FF0C77H   BLOCK     CODE     NEAR LAB  LVL=1
      R12         REGSYM    ---      BYTE      i
      00000187H   SYMBOL    EDATA    DWORD     t
      0000018BH   SYMBOL    EDATA    DWORD     num
      ---         BLOCKEND  ---      ---       LVL=1
      00FF0C6DH   LINE      CODE     ---       #341
      00FF0C77H   LINE      CODE     ---       #342
      00FF0C77H   LINE      CODE     ---       #343
      00FF0C77H   LINE      CODE     ---       #344
      00FF0C7DH   LINE      CODE     ---       #345
      00FF0C8BH   LINE      CODE     ---       #346
      00FF0C9DH   LINE      CODE     ---       #347
      00FF0CB0H   LINE      CODE     ---       #348
      00FF0CB5H   LINE      CODE     ---       #350
L251 LINKER/LOCATER V4.66.93.0                                                        08/04/2023  19:40:36  PAGE 23


      00FF0CC8H   LINE      CODE     ---       #351
      00FF0CD3H   LINE      CODE     ---       #352
      00FF0CD6H   LINE      CODE     ---       #353
      00FF0CDEH   LINE      CODE     ---       #354
      00FF0D11H   LINE      CODE     ---       #356
      00FF0D1FH   LINE      CODE     ---       #357
      00FF0D2DH   LINE      CODE     ---       #358
      00FF0D3BH   LINE      CODE     ---       #359
      00FF0D49H   LINE      CODE     ---       #360
      00FF0D57H   LINE      CODE     ---       #361
      00FF0D65H   LINE      CODE     ---       #362
      00FF0D73H   LINE      CODE     ---       #363
      00FF0D81H   LINE      CODE     ---       #364
      00FF0D8FH   LINE      CODE     ---       #365
      00FF0D9EH   LINE      CODE     ---       #366
      00FF0D9EH   LINE      CODE     ---       #367
      00FF0DA7H   LINE      CODE     ---       #368
      ---         BLOCKEND  ---      ---       LVL=0

      00FF1135H   BLOCK     CODE     ---       LVL=0
      00FF1135H   LINE      CODE     ---       #371
      00FF1135H   LINE      CODE     ---       #374
      00FF1137H   LINE      CODE     ---       #375
      00FF1139H   LINE      CODE     ---       #376
      00FF1140H   LINE      CODE     ---       #377
      00FF1147H   LINE      CODE     ---       #378
      00FF114EH   LINE      CODE     ---       #379
      00FF1155H   LINE      CODE     ---       #380
      00FF115CH   LINE      CODE     ---       #381
      00FF1163H   LINE      CODE     ---       #382
      00FF116AH   LINE      CODE     ---       #383
      00FF1171H   LINE      CODE     ---       #384
      00FF1178H   LINE      CODE     ---       #385
      00FF117FH   LINE      CODE     ---       #386
      00FF1186H   LINE      CODE     ---       #387
      00FF118DH   LINE      CODE     ---       #388
      00FF1194H   LINE      CODE     ---       #389
      00FF119BH   LINE      CODE     ---       #390
      00FF11A2H   LINE      CODE     ---       #391
      00FF11A9H   LINE      CODE     ---       #392
      00FF11B0H   LINE      CODE     ---       #393
      00FF11B6H   LINE      CODE     ---       #394
      00FF11BDH   LINE      CODE     ---       #395
      00FF11C4H   LINE      CODE     ---       #396
      00FF11CBH   LINE      CODE     ---       #397
      00FF11D2H   LINE      CODE     ---       #398
      00FF11D9H   LINE      CODE     ---       #399
      00FF11E0H   LINE      CODE     ---       #400
      00FF11E7H   LINE      CODE     ---       #401
      00FF11EEH   LINE      CODE     ---       #402
      00FF11F1H   LINE      CODE     ---       #403
      ---         BLOCKEND  ---      ---       LVL=0

      ---         MODULE    ---      ---       key
      00FF1E27H   PUBLIC    CODE     ---       Key_Init
      00FF19A2H   PUBLIC    CODE     ---       Key_Rvalue
      000000D0H   SFRSYM    DATA     BYTE      PSW
      0000009DH   SFRSYM    DATA     BYTE      IRCBAND
      00000097H   SFRSYM    DATA     BYTE      AUXR2
      000000EFH   SFRSYM    DATA     BYTE      AUXINTIF
      000000FDH   SFRSYM    DATA     BYTE      S4CON
      000000ACH   SFRSYM    DATA     BYTE      S3CON
      0000009AH   SFRSYM    DATA     BYTE      S2CON
      000000B7H   SFRSYM    DATA     BYTE      IPH
      000000CDH   SFRSYM    DATA     BYTE      SPSTAT
L251 LINKER/LOCATER V4.66.93.0                                                        08/04/2023  19:40:36  PAGE 24


      000000DDH   SFRSYM    DATA     BYTE      T4T3M
      000000C1H   SFRSYM    DATA     BYTE      WDT_CONTR
      000000DFH   SFRSYM    DATA     BYTE      IP3
      000000F4H   SFRSYM    DATA     BYTE      USBCON
      000000B5H   SFRSYM    DATA     BYTE      IP2
      000000FFH   SFRSYM    DATA     BYTE      RSTCFG
      000000C7H   SFRSYM    DATA     BYTE      IAP_CONTR
      000000F9H   SFRSYM    DATA     BYTE      LINICR
      0000008EH   SFRSYM    DATA     BYTE      AUXR
      000000AFH   SFRSYM    DATA     BYTE      IE2
      000000F8H.3 SFRSYM    DATA     BIT       P73
      000000F8H.0 SFRSYM    DATA     BIT       P70
      000000C0H.2 SFRSYM    DATA     BIT       P42
      00000088H   SFRSYM    DATA     BYTE      TCON
      00000089H   SFRSYM    DATA     BYTE      TMOD
      000000C0H.1 SFRSYM    DATA     BIT       P41
      00000098H   SFRSYM    DATA     BYTE      SCON
      000000F1H   SFRSYM    DATA     BYTE      CANICR
      00000087H   SFRSYM    DATA     BYTE      PCON
      000000BCH   SFRSYM    DATA     BYTE      ADC_CONTR
      000000E7H   SFRSYM    DATA     BYTE      CMPCR2
      000000E6H   SFRSYM    DATA     BYTE      CMPCR1
      000000DEH   SFRSYM    DATA     BYTE      ADCCFG
      000000B8H   SFRSYM    DATA     BYTE      IP
      0000008FH   SFRSYM    DATA     BYTE      INTCLKO
      000000EEH   SFRSYM    DATA     BYTE      IP3H
      000000B6H   SFRSYM    DATA     BYTE      IP2H
      000000A8H   SFRSYM    DATA     BYTE      IE
      000000BBH   SFRSYM    DATA     BYTE      P_SW3
      000000BAH   SFRSYM    DATA     BYTE      P_SW2
      000000A2H   SFRSYM    DATA     BYTE      P_SW1
      000000CEH   SFRSYM    DATA     BYTE      SPCTL
      000000F8H   SFRSYM    DATA     BYTE      P7
      000000E8H   SFRSYM    DATA     BYTE      P6
      000000C8H   SFRSYM    DATA     BYTE      P5
      000000C0H   SFRSYM    DATA     BYTE      P4
      000000B0H   SFRSYM    DATA     BYTE      P3
      000000A0H   SFRSYM    DATA     BYTE      P2
      00000090H   SFRSYM    DATA     BYTE      P1
      00000080H   SFRSYM    DATA     BYTE      P0

      00FF19A2H   BLOCK     CODE     ---       LVL=0
      R10         REGSYM    ---      BYTE      value
      00FF19A2H   LINE      CODE     ---       #3
      00FF19A2H   LINE      CODE     ---       #4
      00FF19A2H   LINE      CODE     ---       #5
      00FF19A4H   LINE      CODE     ---       #7
      00FF19AFH   LINE      CODE     ---       #8
      00FF19BAH   LINE      CODE     ---       #9
      00FF19C5H   LINE      CODE     ---       #10
      00FF19CEH   LINE      CODE     ---       #12
      00FF19D0H   LINE      CODE     ---       #13
      ---         BLOCKEND  ---      ---       LVL=0

      00FF1E27H   BLOCK     CODE     ---       LVL=0
      00FF1E27H   LINE      CODE     ---       #15
      00FF1E27H   LINE      CODE     ---       #17
      00FF1E29H   LINE      CODE     ---       #18
      00FF1E2BH   LINE      CODE     ---       #19
      00FF1E2DH   LINE      CODE     ---       #20
      00FF1E2FH   LINE      CODE     ---       #21
      ---         BLOCKEND  ---      ---       LVL=0

      ---         MODULE    ---      ---       timer
      00FF1CDBH   PUBLIC    CODE     ---       Timer1_Init
L251 LINKER/LOCATER V4.66.93.0                                                        08/04/2023  19:40:36  PAGE 25


      00FF1DC5H   PUBLIC    CODE     ---       Timer3_Init
      000000D0H   SFRSYM    DATA     BYTE      PSW
      0000009DH   SFRSYM    DATA     BYTE      IRCBAND
      00000097H   SFRSYM    DATA     BYTE      AUXR2
      000000EFH   SFRSYM    DATA     BYTE      AUXINTIF
      000000FDH   SFRSYM    DATA     BYTE      S4CON
      000000ACH   SFRSYM    DATA     BYTE      S3CON
      0000009AH   SFRSYM    DATA     BYTE      S2CON
      000000B7H   SFRSYM    DATA     BYTE      IPH
      000000CDH   SFRSYM    DATA     BYTE      SPSTAT
      000000DDH   SFRSYM    DATA     BYTE      T4T3M
      000000C1H   SFRSYM    DATA     BYTE      WDT_CONTR
      00000088H.6 SFRSYM    DATA     BIT       TR1
      000000D5H   SFRSYM    DATA     BYTE      T3L
      0000008BH   SFRSYM    DATA     BYTE      TL1
      000000D4H   SFRSYM    DATA     BYTE      T3H
      0000008DH   SFRSYM    DATA     BYTE      TH1
      000000DFH   SFRSYM    DATA     BYTE      IP3
      000000F4H   SFRSYM    DATA     BYTE      USBCON
      00000088H.7 SFRSYM    DATA     BIT       TF1
      000000B5H   SFRSYM    DATA     BYTE      IP2
      000000FFH   SFRSYM    DATA     BYTE      RSTCFG
      000000A8H.3 SFRSYM    DATA     BIT       ET1
      000000C7H   SFRSYM    DATA     BYTE      IAP_CONTR
      000000F9H   SFRSYM    DATA     BYTE      LINICR
      0000008EH   SFRSYM    DATA     BYTE      AUXR
      000000AFH   SFRSYM    DATA     BYTE      IE2
      00000088H   SFRSYM    DATA     BYTE      TCON
      00000089H   SFRSYM    DATA     BYTE      TMOD
      00000098H   SFRSYM    DATA     BYTE      SCON
      000000F1H   SFRSYM    DATA     BYTE      CANICR
      00000087H   SFRSYM    DATA     BYTE      PCON
      000000BCH   SFRSYM    DATA     BYTE      ADC_CONTR
      000000E7H   SFRSYM    DATA     BYTE      CMPCR2
      000000E6H   SFRSYM    DATA     BYTE      CMPCR1
      000000DEH   SFRSYM    DATA     BYTE      ADCCFG
      000000B8H   SFRSYM    DATA     BYTE      IP
      0000008FH   SFRSYM    DATA     BYTE      INTCLKO
      000000EEH   SFRSYM    DATA     BYTE      IP3H
      000000B6H   SFRSYM    DATA     BYTE      IP2H
      000000A8H   SFRSYM    DATA     BYTE      IE
      000000BBH   SFRSYM    DATA     BYTE      P_SW3
      000000BAH   SFRSYM    DATA     BYTE      P_SW2
      000000A2H   SFRSYM    DATA     BYTE      P_SW1
      000000CEH   SFRSYM    DATA     BYTE      SPCTL
      000000F8H   SFRSYM    DATA     BYTE      P7
      000000A8H.7 SFRSYM    DATA     BIT       EA
      000000E8H   SFRSYM    DATA     BYTE      P6
      000000C8H   SFRSYM    DATA     BYTE      P5
      000000C0H   SFRSYM    DATA     BYTE      P4
      000000B0H   SFRSYM    DATA     BYTE      P3
      000000A0H   SFRSYM    DATA     BYTE      P2
      00000090H   SFRSYM    DATA     BYTE      P1
      00000080H   SFRSYM    DATA     BYTE      P0

      00FF1CDBH   BLOCK     CODE     ---       LVL=0
      00FF1CDBH   LINE      CODE     ---       #4
      00FF1CDBH   LINE      CODE     ---       #6
      00FF1CDEH   LINE      CODE     ---       #7
      00FF1CE1H   LINE      CODE     ---       #8
      00FF1CE4H   LINE      CODE     ---       #9
      00FF1CE7H   LINE      CODE     ---       #10
      00FF1CE9H   LINE      CODE     ---       #11
      00FF1CEBH   LINE      CODE     ---       #12
      00FF1CEDH   LINE      CODE     ---       #13
L251 LINKER/LOCATER V4.66.93.0                                                        08/04/2023  19:40:36  PAGE 26


      00FF1CEFH   LINE      CODE     ---       #14
      ---         BLOCKEND  ---      ---       LVL=0

      00FF1DC5H   BLOCK     CODE     ---       LVL=0
      00FF1DC5H   LINE      CODE     ---       #24
      00FF1DC5H   LINE      CODE     ---       #26
      00FF1DC8H   LINE      CODE     ---       #27
      00FF1DCBH   LINE      CODE     ---       #28
      00FF1DCEH   LINE      CODE     ---       #29
      00FF1DD1H   LINE      CODE     ---       #30
      00FF1DD4H   LINE      CODE     ---       #31
      ---         BLOCKEND  ---      ---       LVL=0

      ---         MODULE    ---      ---       Uart
      00FF1E30H   PUBLIC    CODE     ---       Uart1_sendbyte
      00FF1DFCH   PUBLIC    CODE     ---       Uart2_sendbyte
      00FF1E07H   PUBLIC    CODE     ---       Uart3_sendbyte
      00FF1C43H   PUBLIC    CODE     ---       Uart1_String
      00FF1C59H   PUBLIC    CODE     ---       Uart2_String
      00FF1C6FH   PUBLIC    CODE     ---       Uart3_String
      00FF1C2CH   PUBLIC    CODE     ---       Uart1_Init
      00FF1D6CH   PUBLIC    CODE     ---       Uart2_Init
      00FF1C85H   PUBLIC    CODE     ---       Uart3_Init
      00FF1AD3H   PUBLIC    CODE     ---       UART2_SendString
      00FF1E1DH   PUBLIC    CODE     ---       Uart1_Isr
      00FF1DF0H   PUBLIC    CODE     ---       Uart2_Isr
      000000D0H   SFRSYM    DATA     BYTE      PSW
      0000009DH   SFRSYM    DATA     BYTE      IRCBAND
      00000097H   SFRSYM    DATA     BYTE      AUXR2
      000000EFH   SFRSYM    DATA     BYTE      AUXINTIF
      000000FDH   SFRSYM    DATA     BYTE      S4CON
      000000ACH   SFRSYM    DATA     BYTE      S3CON
      0000009AH   SFRSYM    DATA     BYTE      S2CON
      0000009BH   SFRSYM    DATA     BYTE      S2BUF
      000000B7H   SFRSYM    DATA     BYTE      IPH
      000000CDH   SFRSYM    DATA     BYTE      SPSTAT
      000000DDH   SFRSYM    DATA     BYTE      T4T3M
      000000C1H   SFRSYM    DATA     BYTE      WDT_CONTR
      000000D7H   SFRSYM    DATA     BYTE      T2L
      000000D6H   SFRSYM    DATA     BYTE      T2H
      000000DFH   SFRSYM    DATA     BYTE      IP3
      000000F4H   SFRSYM    DATA     BYTE      USBCON
      000000AFH.3 SFRSYM    DATA     BIT       ES3
      000000B5H   SFRSYM    DATA     BYTE      IP2
      000000FFH   SFRSYM    DATA     BYTE      RSTCFG
      000000AFH.0 SFRSYM    DATA     BIT       ES2
      000000C7H   SFRSYM    DATA     BYTE      IAP_CONTR
      000000F9H   SFRSYM    DATA     BYTE      LINICR
      0000008EH   SFRSYM    DATA     BYTE      AUXR
      000000AFH   SFRSYM    DATA     BYTE      IE2
      00000088H   SFRSYM    DATA     BYTE      TCON
      00000089H   SFRSYM    DATA     BYTE      TMOD
      00000098H   SFRSYM    DATA     BYTE      SCON
      000000F1H   SFRSYM    DATA     BYTE      CANICR
      00000087H   SFRSYM    DATA     BYTE      PCON
      00000099H   SFRSYM    DATA     BYTE      SBUF
      000000BCH   SFRSYM    DATA     BYTE      ADC_CONTR
      000000E7H   SFRSYM    DATA     BYTE      CMPCR2
      000000E6H   SFRSYM    DATA     BYTE      CMPCR1
      0000009AH.1 SFRSYM    DATA     BIT       S2TI
      0000009AH.0 SFRSYM    DATA     BIT       S2RI
      00000098H.1 SFRSYM    DATA     BIT       TI
      00000098H.0 SFRSYM    DATA     BIT       RI
      000000DEH   SFRSYM    DATA     BYTE      ADCCFG
      000000B8H   SFRSYM    DATA     BYTE      IP
L251 LINKER/LOCATER V4.66.93.0                                                        08/04/2023  19:40:36  PAGE 27


      000000A8H.4 SFRSYM    DATA     BIT       ES
      0000008FH   SFRSYM    DATA     BYTE      INTCLKO
      000000EEH   SFRSYM    DATA     BYTE      IP3H
      000000B6H   SFRSYM    DATA     BYTE      IP2H
      000000A8H   SFRSYM    DATA     BYTE      IE
      000000BBH   SFRSYM    DATA     BYTE      P_SW3
      000000BAH   SFRSYM    DATA     BYTE      P_SW2
      000000A2H   SFRSYM    DATA     BYTE      P_SW1
      000000CEH   SFRSYM    DATA     BYTE      SPCTL
      000000F8H   SFRSYM    DATA     BYTE      P7
      000000A8H.7 SFRSYM    DATA     BIT       EA
      000000E8H   SFRSYM    DATA     BYTE      P6
      000000C8H   SFRSYM    DATA     BYTE      P5
      000000C0H   SFRSYM    DATA     BYTE      P4
      000000B0H   SFRSYM    DATA     BYTE      P3
      000000A0H   SFRSYM    DATA     BYTE      P2
      00000090H   SFRSYM    DATA     BYTE      P1
      00000080H   SFRSYM    DATA     BYTE      P0

      00FF1C2CH   BLOCK     CODE     ---       LVL=0
      00FF1C2CH   LINE      CODE     ---       #4
      00FF1C2CH   LINE      CODE     ---       #6
      00FF1C2FH   LINE      CODE     ---       #7
      00FF1C32H   LINE      CODE     ---       #8
      00FF1C35H   LINE      CODE     ---       #9
      00FF1C38H   LINE      CODE     ---       #10
      00FF1C3BH   LINE      CODE     ---       #11
      00FF1C3EH   LINE      CODE     ---       #12
      00FF1C40H   LINE      CODE     ---       #13
      00FF1C42H   LINE      CODE     ---       #14
      ---         BLOCKEND  ---      ---       LVL=0

      00FF1E30H   BLOCK     CODE     ---       LVL=0
      R11         REGSYM    ---      BYTE      byte
      00FF1E30H   LINE      CODE     ---       #16
      00FF1E30H   LINE      CODE     ---       #18
      00FF1E33H   LINE      CODE     ---       #19
      00FF1E36H   LINE      CODE     ---       #20
      00FF1E38H   LINE      CODE     ---       #21
      ---         BLOCKEND  ---      ---       LVL=0

      00FF1C43H   BLOCK     CODE     ---       LVL=0
      REG=3       REGSYM    ---      ---       p
      00FF1C43H   LINE      CODE     ---       #23
      00FF1C47H   LINE      CODE     ---       #25
      00FF1C49H   LINE      CODE     ---       #27
      00FF1C51H   LINE      CODE     ---       #28
      00FF1C56H   LINE      CODE     ---       #29
      ---         BLOCKEND  ---      ---       LVL=0

      00FF1E1DH   BLOCK     CODE     ---       LVL=0
      00FF1E1DH   LINE      CODE     ---       #31
      00FF1E1FH   LINE      CODE     ---       #33
      00FF1E22H   LINE      CODE     ---       #35
      00FF1E24H   LINE      CODE     ---       #36
      ---         BLOCKEND  ---      ---       LVL=0

      00FF1D6CH   BLOCK     CODE     ---       LVL=0
      00FF1D6CH   LINE      CODE     ---       #42
      00FF1D6CH   LINE      CODE     ---       #44
      00FF1D6FH   LINE      CODE     ---       #45
      00FF1D72H   LINE      CODE     ---       #46
      00FF1D75H   LINE      CODE     ---       #47
      00FF1D78H   LINE      CODE     ---       #48
      00FF1D7BH   LINE      CODE     ---       #49
L251 LINKER/LOCATER V4.66.93.0                                                        08/04/2023  19:40:36  PAGE 28


      00FF1D7EH   LINE      CODE     ---       #50
      ---         BLOCKEND  ---      ---       LVL=0

      00FF1DFCH   BLOCK     CODE     ---       LVL=0
      R11         REGSYM    ---      BYTE      byte
      00FF1DFCH   LINE      CODE     ---       #52
      00FF1DFCH   LINE      CODE     ---       #54
      00FF1DFFH   LINE      CODE     ---       #55
      00FF1E03H   LINE      CODE     ---       #56
      00FF1E06H   LINE      CODE     ---       #57
      ---         BLOCKEND  ---      ---       LVL=0

      00FF1C59H   BLOCK     CODE     ---       LVL=0
      REG=3       REGSYM    ---      ---       p
      00FF1C59H   LINE      CODE     ---       #59
      00FF1C5DH   LINE      CODE     ---       #61
      00FF1C5FH   LINE      CODE     ---       #63
      00FF1C67H   LINE      CODE     ---       #64
      00FF1C6CH   LINE      CODE     ---       #65
      ---         BLOCKEND  ---      ---       LVL=0

      00FF1AD3H   BLOCK     CODE     ---       LVL=0
      REG=3       REGSYM    ---      ---       DAT
      000001A0H   SYMBOL    EDATA    BYTE      len
      00FF1ADBH   BLOCK     CODE     NEAR LAB  LVL=1
      000001A1H   SYMBOL    EDATA    BYTE      i
      ---         BLOCKEND  ---      ---       LVL=1
      00FF1AD3H   LINE      CODE     ---       #68
      00FF1ADBH   LINE      CODE     ---       #69
      00FF1ADBH   LINE      CODE     ---       #71
      00FF1ADEH   LINE      CODE     ---       #73
      00FF1AE6H   LINE      CODE     ---       #74
      00FF1AF9H   LINE      CODE     ---       #75
      ---         BLOCKEND  ---      ---       LVL=0

      00FF1DF0H   BLOCK     CODE     ---       LVL=0
      00FF1DF0H   LINE      CODE     ---       #78
      00FF1DF2H   LINE      CODE     ---       #80
      00FF1DF6H   LINE      CODE     ---       #82
      00FF1DF9H   LINE      CODE     ---       #83
      ---         BLOCKEND  ---      ---       LVL=0

      00FF1C85H   BLOCK     CODE     ---       LVL=0
      00FF1C85H   LINE      CODE     ---       #87
      00FF1C85H   LINE      CODE     ---       #89
      00FF1C88H   LINE      CODE     ---       #90
      00FF1C8BH   LINE      CODE     ---       #91
      00FF1C8EH   LINE      CODE     ---       #92
      00FF1C91H   LINE      CODE     ---       #93
      00FF1C94H   LINE      CODE     ---       #94
      00FF1C97H   LINE      CODE     ---       #95
      00FF1C9AH   LINE      CODE     ---       #96
      ---         BLOCKEND  ---      ---       LVL=0

      00FF1E07H   BLOCK     CODE     ---       LVL=0
      R11         REGSYM    ---      BYTE      byte
      00FF1E07H   LINE      CODE     ---       #98
      00FF1E07H   LINE      CODE     ---       #100
      00FF1E0AH   LINE      CODE     ---       #101
      00FF1E0EH   LINE      CODE     ---       #102
      00FF1E11H   LINE      CODE     ---       #103
      ---         BLOCKEND  ---      ---       LVL=0

      00FF1C6FH   BLOCK     CODE     ---       LVL=0
      REG=3       REGSYM    ---      ---       p
L251 LINKER/LOCATER V4.66.93.0                                                        08/04/2023  19:40:36  PAGE 29


      00FF1C6FH   LINE      CODE     ---       #105
      00FF1C73H   LINE      CODE     ---       #107
      00FF1C75H   LINE      CODE     ---       #109
      00FF1C7DH   LINE      CODE     ---       #110
      00FF1C82H   LINE      CODE     ---       #111
      ---         BLOCKEND  ---      ---       LVL=0

      ---         MODULE    ---      ---       pwm_init
      00FF1CF0H   PUBLIC    CODE     ---       Update_8
      00FF1347H   PUBLIC    CODE     ---       Xianfu_Pwm
      00FF1690H   PUBLIC    CODE     ---       Update_duty
      00FF1D92H   PUBLIC    CODE     ---       myabs
      00FF0ADBH   PUBLIC    CODE     ---       PWM_Config
      00FF14D6H   PUBLIC    CODE     ---       Set_FBPwm
      00FF1547H   PUBLIC    CODE     ---       Set_LRPwm
      00FF1D05H   PUBLIC    CODE     ---       Update_5
      00FF1D1AH   PUBLIC    CODE     ---       Update_6
      00FF1D2FH   PUBLIC    CODE     ---       Update_7
      00000008H   PUBLIC    EDATA    INT       dutyL
      0000000AH   PUBLIC    EDATA    INT       dutyR
      0000000CH   PUBLIC    EDATA    WORD      PWMB_CCR5
      0000000EH   PUBLIC    EDATA    WORD      PWMB_CCR6
      00000010H   PUBLIC    EDATA    WORD      PWMB_CCR7
      00000012H   PUBLIC    EDATA    WORD      PWMB_CCR8
      00000014H   PUBLIC    EDATA    INT       Forwar_dmoto1
      00000016H   PUBLIC    EDATA    INT       Right_moto2
      00000018H   PUBLIC    EDATA    WORD      PWMB_CCA
      0000001AH   PUBLIC    EDATA    INT       Left_moto1
      0000001CH   PUBLIC    EDATA    INT       Backward_moto2
      000000D0H   SFRSYM    DATA     BYTE      PSW
      0000009DH   SFRSYM    DATA     BYTE      IRCBAND
      00000097H   SFRSYM    DATA     BYTE      AUXR2
      000000EFH   SFRSYM    DATA     BYTE      AUXINTIF
      000000FDH   SFRSYM    DATA     BYTE      S4CON
      000000ACH   SFRSYM    DATA     BYTE      S3CON
      0000009AH   SFRSYM    DATA     BYTE      S2CON
      000000B7H   SFRSYM    DATA     BYTE      IPH
      000000CDH   SFRSYM    DATA     BYTE      SPSTAT
      000000DDH   SFRSYM    DATA     BYTE      T4T3M
      000000C1H   SFRSYM    DATA     BYTE      WDT_CONTR
      000000DFH   SFRSYM    DATA     BYTE      IP3
      000000F4H   SFRSYM    DATA     BYTE      USBCON
      000000B5H   SFRSYM    DATA     BYTE      IP2
      000000FFH   SFRSYM    DATA     BYTE      RSTCFG
      000000C7H   SFRSYM    DATA     BYTE      IAP_CONTR
      000000F9H   SFRSYM    DATA     BYTE      LINICR
      0000008EH   SFRSYM    DATA     BYTE      AUXR
      000000AFH   SFRSYM    DATA     BYTE      IE2
      00000088H   SFRSYM    DATA     BYTE      TCON
      00000089H   SFRSYM    DATA     BYTE      TMOD
      00000098H   SFRSYM    DATA     BYTE      SCON
      000000F1H   SFRSYM    DATA     BYTE      CANICR
      00000087H   SFRSYM    DATA     BYTE      PCON
      000000BCH   SFRSYM    DATA     BYTE      ADC_CONTR
      000000E7H   SFRSYM    DATA     BYTE      CMPCR2
      000000E6H   SFRSYM    DATA     BYTE      CMPCR1
      000000DEH   SFRSYM    DATA     BYTE      ADCCFG
      000000B8H   SFRSYM    DATA     BYTE      IP
      0000008FH   SFRSYM    DATA     BYTE      INTCLKO
      000000EEH   SFRSYM    DATA     BYTE      IP3H
      000000B6H   SFRSYM    DATA     BYTE      IP2H
      000000A8H   SFRSYM    DATA     BYTE      IE
      000000BBH   SFRSYM    DATA     BYTE      P_SW3
      000000F8H.0 SFRSYM    DATA     BIT       DIN2
      000000BAH   SFRSYM    DATA     BYTE      P_SW2
L251 LINKER/LOCATER V4.66.93.0                                                        08/04/2023  19:40:36  PAGE 30


      000000F8H.2 SFRSYM    DATA     BIT       CIN2
      000000F8H.1 SFRSYM    DATA     BIT       DIN1
      000000A2H   SFRSYM    DATA     BYTE      P_SW1
      000000A0H.4 SFRSYM    DATA     BIT       BIN2
      000000F8H.3 SFRSYM    DATA     BIT       CIN1
      000000C0H.4 SFRSYM    DATA     BIT       AIN2
      000000A0H.3 SFRSYM    DATA     BIT       BIN1
      000000C0H.3 SFRSYM    DATA     BIT       AIN1
      000000CEH   SFRSYM    DATA     BYTE      SPCTL
      000000F8H   SFRSYM    DATA     BYTE      P7
      000000E8H   SFRSYM    DATA     BYTE      P6
      000000C8H   SFRSYM    DATA     BYTE      P5
      000000C0H   SFRSYM    DATA     BYTE      P4
      000000B0H   SFRSYM    DATA     BYTE      P3
      000000A0H   SFRSYM    DATA     BYTE      P2
      00000090H   SFRSYM    DATA     BYTE      P1
      00000080H   SFRSYM    DATA     BYTE      P0

      00FF0ADBH   BLOCK     CODE     ---       LVL=0
      00FF0ADBH   LINE      CODE     ---       #19
      00FF0ADDH   LINE      CODE     ---       #21
      00FF0AEAH   LINE      CODE     ---       #23
      00FF0AF2H   LINE      CODE     ---       #24
      00FF0AFBH   LINE      CODE     ---       #27
      00FF0B07H   LINE      CODE     ---       #28
      00FF0B0EH   LINE      CODE     ---       #29
      00FF0B1CH   LINE      CODE     ---       #30
      00FF0B23H   LINE      CODE     ---       #31
      00FF0B2AH   LINE      CODE     ---       #32
      00FF0B31H   LINE      CODE     ---       #33
      00FF0B36H   LINE      CODE     ---       #34
      00FF0B39H   LINE      CODE     ---       #37
      00FF0B48H   LINE      CODE     ---       #38
      00FF0B51H   LINE      CODE     ---       #40
      00FF0B58H   LINE      CODE     ---       #41
      00FF0B5FH   LINE      CODE     ---       #43
      00FF0B66H   LINE      CODE     ---       #44
      00FF0B6DH   LINE      CODE     ---       #46
      00FF0B74H   LINE      CODE     ---       #47
      00FF0B7BH   LINE      CODE     ---       #50
      00FF0B84H   LINE      CODE     ---       #51
      00FF0B8DH   LINE      CODE     ---       #53
      00FF0B96H   LINE      CODE     ---       #54
      00FF0B9FH   LINE      CODE     ---       #56
      00FF0BA8H   LINE      CODE     ---       #60
      00FF0BB1H   LINE      CODE     ---       #62
      00FF0BB9H   LINE      CODE     ---       #63
      00FF0BC2H   LINE      CODE     ---       #66
      00FF0BCAH   LINE      CODE     ---       #67
      00FF0BD1H   LINE      CODE     ---       #69
      00FF0BD8H   LINE      CODE     ---       #70
      00FF0BDFH   LINE      CODE     ---       #71
      00FF0BE6H   LINE      CODE     ---       #72
      00FF0BEDH   LINE      CODE     ---       #73
      00FF0BF2H   LINE      CODE     ---       #74
      00FF0BF5H   LINE      CODE     ---       #77
      00FF0C00H   LINE      CODE     ---       #78
      00FF0C07H   LINE      CODE     ---       #80
      00FF0C12H   LINE      CODE     ---       #81
      00FF0C19H   LINE      CODE     ---       #83
      00FF0C24H   LINE      CODE     ---       #84
      00FF0C2BH   LINE      CODE     ---       #86
      00FF0C36H   LINE      CODE     ---       #87
      00FF0C3DH   LINE      CODE     ---       #90
      00FF0C46H   LINE      CODE     ---       #91
L251 LINKER/LOCATER V4.66.93.0                                                        08/04/2023  19:40:36  PAGE 31


      00FF0C4FH   LINE      CODE     ---       #93
      00FF0C58H   LINE      CODE     ---       #94
      00FF0C61H   LINE      CODE     ---       #96
      00FF0C6AH   LINE      CODE     ---       #97
      ---         BLOCKEND  ---      ---       LVL=0

      00FF1D05H   BLOCK     CODE     ---       LVL=0
      WR0         REGSYM    ---      WORD      Duty1
      00FF1D05H   LINE      CODE     ---       #101
      00FF1D07H   LINE      CODE     ---       #103
      00FF1D12H   LINE      CODE     ---       #104
      00FF1D19H   LINE      CODE     ---       #105
      ---         BLOCKEND  ---      ---       LVL=0

      00FF1D1AH   BLOCK     CODE     ---       LVL=0
      WR0         REGSYM    ---      WORD      Duty2
      00FF1D1AH   LINE      CODE     ---       #107
      00FF1D1CH   LINE      CODE     ---       #109
      00FF1D27H   LINE      CODE     ---       #110
      00FF1D2EH   LINE      CODE     ---       #111
      ---         BLOCKEND  ---      ---       LVL=0

      00FF1D2FH   BLOCK     CODE     ---       LVL=0
      WR0         REGSYM    ---      WORD      Duty3
      00FF1D2FH   LINE      CODE     ---       #113
      00FF1D31H   LINE      CODE     ---       #115
      00FF1D3CH   LINE      CODE     ---       #116
      00FF1D43H   LINE      CODE     ---       #117
      ---         BLOCKEND  ---      ---       LVL=0

      00FF1CF0H   BLOCK     CODE     ---       LVL=0
      WR0         REGSYM    ---      WORD      Duty4
      00FF1CF0H   LINE      CODE     ---       #119
      00FF1CF2H   LINE      CODE     ---       #121
      00FF1CFDH   LINE      CODE     ---       #122
      00FF1D04H   LINE      CODE     ---       #123
      ---         BLOCKEND  ---      ---       LVL=0

      00FF1D92H   BLOCK     CODE     ---       LVL=0
      WR6         REGSYM    ---      INT       a
      WR4         REGSYM    ---      INT       temp
      00FF1D92H   LINE      CODE     ---       #131
      00FF1D92H   LINE      CODE     ---       #132
      00FF1D92H   LINE      CODE     ---       #134
      00FF1D9EH   LINE      CODE     ---       #135
      00FF1DA0H   LINE      CODE     ---       #136
      00FF1DA2H   LINE      CODE     ---       #137
      ---         BLOCKEND  ---      ---       LVL=0

      00FF1347H   BLOCK     CODE     ---       LVL=0
      00FF1347H   LINE      CODE     ---       #144
      00FF1347H   LINE      CODE     ---       #147
      00FF1359H   LINE      CODE     ---       #148
      00FF136BH   LINE      CODE     ---       #149
      00FF137DH   LINE      CODE     ---       #150
      00FF138FH   LINE      CODE     ---       #151
      00FF13A1H   LINE      CODE     ---       #152
      00FF13B3H   LINE      CODE     ---       #153
      00FF13C5H   LINE      CODE     ---       #154
      00FF13D7H   LINE      CODE     ---       #155
      ---         BLOCKEND  ---      ---       LVL=0

      00FF1547H   BLOCK     CODE     ---       LVL=0
      WR12        REGSYM    ---      INT       Left_moto1
      WR14        REGSYM    ---      INT       Right_moto2
L251 LINKER/LOCATER V4.66.93.0                                                        08/04/2023  19:40:36  PAGE 32


      00FF1547H   LINE      CODE     ---       #177
      00FF154DH   LINE      CODE     ---       #181
      00FF1553H   LINE      CODE     ---       #182
      00FF1559H   LINE      CODE     ---       #184
      00FF155DH   LINE      CODE     ---       #187
      00FF156FH   LINE      CODE     ---       #188
      00FF1581H   LINE      CODE     ---       #191
      00FF1587H   LINE      CODE     ---       #192
      00FF158DH   LINE      CODE     ---       #195
      00FF1591H   LINE      CODE     ---       #197
      00FF15A3H   LINE      CODE     ---       #198
      00FF15B5H   LINE      CODE     ---       #201
      ---         BLOCKEND  ---      ---       LVL=0

      00FF14D6H   BLOCK     CODE     ---       LVL=0
      WR14        REGSYM    ---      INT       Forwar_dmoto1
      WR12        REGSYM    ---      INT       Backward_moto2
      00FF14D6H   LINE      CODE     ---       #204
      00FF14DCH   LINE      CODE     ---       #208
      00FF14E2H   LINE      CODE     ---       #209
      00FF14E8H   LINE      CODE     ---       #211
      00FF14ECH   LINE      CODE     ---       #214
      00FF14FEH   LINE      CODE     ---       #215
      00FF1510H   LINE      CODE     ---       #218
      00FF1516H   LINE      CODE     ---       #219
      00FF151CH   LINE      CODE     ---       #222
      00FF1520H   LINE      CODE     ---       #224
      00FF1532H   LINE      CODE     ---       #225
      00FF1544H   LINE      CODE     ---       #228
      ---         BLOCKEND  ---      ---       LVL=0

      00FF1690H   BLOCK     CODE     ---       LVL=0
      R7          REGSYM    ---      BYTE      sw
      WR12        REGSYM    ---      INT       PWMR
      WR14        REGSYM    ---      INT       PWML
      00FF1690H   LINE      CODE     ---       #230
      00FF1698H   LINE      CODE     ---       #233
      00FF169CH   LINE      CODE     ---       #235
      00FF16A0H   LINE      CODE     ---       #236
      00FF16A0H   LINE      CODE     ---       #237
      00FF16A0H   LINE      CODE     ---       #239
      00FF16A6H   LINE      CODE     ---       #241
      00FF16ACH   LINE      CODE     ---       #242
      00FF16AFH   LINE      CODE     ---       #243
      00FF16B1H   LINE      CODE     ---       #245
      00FF16B4H   LINE      CODE     ---       #247
      00FF16BAH   LINE      CODE     ---       #249
      00FF16C0H   LINE      CODE     ---       #250
      00FF16C3H   LINE      CODE     ---       #251
      00FF16C5H   LINE      CODE     ---       #253
      00FF16C8H   LINE      CODE     ---       #256
      00FF16D5H   LINE      CODE     ---       #257
      00FF16DCH   LINE      CODE     ---       #259
      00FF16E5H   LINE      CODE     ---       #260
      00FF16ECH   LINE      CODE     ---       #261
      ---         BLOCKEND  ---      ---       LVL=0

      ---         MODULE    ---      ---       GPIO
      00FF188FH   PUBLIC    CODE     ---       GPIO_init
      00000094H   SFRSYM    DATA     BYTE      P0M0
      000000D0H   SFRSYM    DATA     BYTE      PSW
      000000BAH.7 SFRSYM    DATA     BIT       EAXFR
      0000009DH   SFRSYM    DATA     BYTE      IRCBAND
      00000097H   SFRSYM    DATA     BYTE      AUXR2
      000000EAH   SFRSYM    DATA     BYTE      CKCON
L251 LINKER/LOCATER V4.66.93.0                                                        08/04/2023  19:40:36  PAGE 33


      000000EFH   SFRSYM    DATA     BYTE      AUXINTIF
      000000FDH   SFRSYM    DATA     BYTE      S4CON
      000000ACH   SFRSYM    DATA     BYTE      S3CON
      0000009AH   SFRSYM    DATA     BYTE      S2CON
      000000B7H   SFRSYM    DATA     BYTE      IPH
      000000CDH   SFRSYM    DATA     BYTE      SPSTAT
      000000DDH   SFRSYM    DATA     BYTE      T4T3M
      000000C1H   SFRSYM    DATA     BYTE      WDT_CONTR
      000000E9H   SFRSYM    DATA     BYTE      WTST
      000000DFH   SFRSYM    DATA     BYTE      IP3
      000000F4H   SFRSYM    DATA     BYTE      USBCON
      000000B5H   SFRSYM    DATA     BYTE      IP2
      000000FFH   SFRSYM    DATA     BYTE      RSTCFG
      000000C7H   SFRSYM    DATA     BYTE      IAP_CONTR
      000000F9H   SFRSYM    DATA     BYTE      LINICR
      0000008EH   SFRSYM    DATA     BYTE      AUXR
      000000AFH   SFRSYM    DATA     BYTE      IE2
      00000088H   SFRSYM    DATA     BYTE      TCON
      00000089H   SFRSYM    DATA     BYTE      TMOD
      00000098H   SFRSYM    DATA     BYTE      SCON
      000000F1H   SFRSYM    DATA     BYTE      CANICR
      00000087H   SFRSYM    DATA     BYTE      PCON
      000000BCH   SFRSYM    DATA     BYTE      ADC_CONTR
      000000E7H   SFRSYM    DATA     BYTE      CMPCR2
      000000E6H   SFRSYM    DATA     BYTE      CMPCR1
      000000DEH   SFRSYM    DATA     BYTE      ADCCFG
      000000B8H   SFRSYM    DATA     BYTE      IP
      0000008FH   SFRSYM    DATA     BYTE      INTCLKO
      000000EEH   SFRSYM    DATA     BYTE      IP3H
      000000B6H   SFRSYM    DATA     BYTE      IP2H
      000000A8H   SFRSYM    DATA     BYTE      IE
      000000BBH   SFRSYM    DATA     BYTE      P_SW3
      000000BAH   SFRSYM    DATA     BYTE      P_SW2
      000000A2H   SFRSYM    DATA     BYTE      P_SW1
      000000CEH   SFRSYM    DATA     BYTE      SPCTL
      000000F8H   SFRSYM    DATA     BYTE      P7
      000000E1H   SFRSYM    DATA     BYTE      P7M1
      000000E8H   SFRSYM    DATA     BYTE      P6
      000000C8H   SFRSYM    DATA     BYTE      P5
      000000CBH   SFRSYM    DATA     BYTE      P6M1
      000000E2H   SFRSYM    DATA     BYTE      P7M0
      000000C0H   SFRSYM    DATA     BYTE      P4
      000000C9H   SFRSYM    DATA     BYTE      P5M1
      000000CCH   SFRSYM    DATA     BYTE      P6M0
      000000B0H   SFRSYM    DATA     BYTE      P3
      000000B3H   SFRSYM    DATA     BYTE      P4M1
      000000CAH   SFRSYM    DATA     BYTE      P5M0
      000000A0H   SFRSYM    DATA     BYTE      P2
      000000B1H   SFRSYM    DATA     BYTE      P3M1
      000000B4H   SFRSYM    DATA     BYTE      P4M0
      00000090H   SFRSYM    DATA     BYTE      P1
      00000095H   SFRSYM    DATA     BYTE      P2M1
      000000B2H   SFRSYM    DATA     BYTE      P3M0
      00000080H   SFRSYM    DATA     BYTE      P0
      00000091H   SFRSYM    DATA     BYTE      P1M1
      00000096H   SFRSYM    DATA     BYTE      P2M0
      00000092H   SFRSYM    DATA     BYTE      P1M0
      00000093H   SFRSYM    DATA     BYTE      P0M1

      00FF188FH   BLOCK     CODE     ---       LVL=0
      00FF188FH   LINE      CODE     ---       #3
      00FF188FH   LINE      CODE     ---       #5
      00FF1892H   LINE      CODE     ---       #6
      00FF1895H   LINE      CODE     ---       #7
      00FF1898H   LINE      CODE     ---       #9
L251 LINKER/LOCATER V4.66.93.0                                                        08/04/2023  19:40:36  PAGE 34


      00FF189EH   LINE      CODE     ---       #10
      00FF18A4H   LINE      CODE     ---       #11
      00FF18AAH   LINE      CODE     ---       #12
      00FF18B0H   LINE      CODE     ---       #13
      00FF18B6H   LINE      CODE     ---       #14
      00FF18BCH   LINE      CODE     ---       #15
      00FF18C2H   LINE      CODE     ---       #16
      00FF18C8H   LINE      CODE     ---       #17
      ---         BLOCKEND  ---      ---       LVL=0

      ---         MODULE    ---      ---       motor
      00FF1E39H   PUBLIC    CODE     ---       Motor_Init
      00FF1B8BH   PUBLIC    CODE     ---       Motor_FRcontrol
      00FF001EH   PUBLIC    CODE     ---       MotorL_Forward
      00FF1E42H   PUBLIC    CODE     ---       MotorR_Forward
      00FF1E47H   PUBLIC    CODE     ---       MotorL_Reverse
      00FF1E4CH   PUBLIC    CODE     ---       MotorR_Reverse
      00000080H.1 SFRSYM    DATA     BIT       MOTOR_AIN1
      000000D0H   SFRSYM    DATA     BYTE      PSW
      0000009DH   SFRSYM    DATA     BYTE      IRCBAND
      00000097H   SFRSYM    DATA     BYTE      AUXR2
      000000EFH   SFRSYM    DATA     BYTE      AUXINTIF
      000000FDH   SFRSYM    DATA     BYTE      S4CON
      000000ACH   SFRSYM    DATA     BYTE      S3CON
      0000009AH   SFRSYM    DATA     BYTE      S2CON
      000000B7H   SFRSYM    DATA     BYTE      IPH
      000000CDH   SFRSYM    DATA     BYTE      SPSTAT
      000000DDH   SFRSYM    DATA     BYTE      T4T3M
      000000C1H   SFRSYM    DATA     BYTE      WDT_CONTR
      000000DFH   SFRSYM    DATA     BYTE      IP3
      000000F4H   SFRSYM    DATA     BYTE      USBCON
      000000B5H   SFRSYM    DATA     BYTE      IP2
      000000FFH   SFRSYM    DATA     BYTE      RSTCFG
      000000C7H   SFRSYM    DATA     BYTE      IAP_CONTR
      000000F9H   SFRSYM    DATA     BYTE      LINICR
      0000008EH   SFRSYM    DATA     BYTE      AUXR
      000000AFH   SFRSYM    DATA     BYTE      IE2
      00000088H   SFRSYM    DATA     BYTE      TCON
      00000089H   SFRSYM    DATA     BYTE      TMOD
      00000098H   SFRSYM    DATA     BYTE      SCON
      000000F1H   SFRSYM    DATA     BYTE      CANICR
      00000087H   SFRSYM    DATA     BYTE      PCON
      000000BCH   SFRSYM    DATA     BYTE      ADC_CONTR
      000000E7H   SFRSYM    DATA     BYTE      CMPCR2
      000000E6H   SFRSYM    DATA     BYTE      CMPCR1
      000000DEH   SFRSYM    DATA     BYTE      ADCCFG
      000000B8H   SFRSYM    DATA     BYTE      IP
      0000008FH   SFRSYM    DATA     BYTE      INTCLKO
      000000EEH   SFRSYM    DATA     BYTE      IP3H
      000000B6H   SFRSYM    DATA     BYTE      IP2H
      000000A8H   SFRSYM    DATA     BYTE      IE
      000000BBH   SFRSYM    DATA     BYTE      P_SW3
      000000BAH   SFRSYM    DATA     BYTE      P_SW2
      000000A2H   SFRSYM    DATA     BYTE      P_SW1
      000000CEH   SFRSYM    DATA     BYTE      SPCTL
      000000F8H   SFRSYM    DATA     BYTE      P7
      000000E8H   SFRSYM    DATA     BYTE      P6
      000000C8H   SFRSYM    DATA     BYTE      P5
      000000C0H   SFRSYM    DATA     BYTE      P4
      000000B0H   SFRSYM    DATA     BYTE      P3
      000000A0H   SFRSYM    DATA     BYTE      P2
      00000090H   SFRSYM    DATA     BYTE      P1
      00000080H   SFRSYM    DATA     BYTE      P0
      00000080H.4 SFRSYM    DATA     BIT       MOTOR_BIN2
      00000080H.2 SFRSYM    DATA     BIT       MOTOR_AIN2
L251 LINKER/LOCATER V4.66.93.0                                                        08/04/2023  19:40:36  PAGE 35


      00000080H.3 SFRSYM    DATA     BIT       MOTOR_BIN1

      00FF1E39H   BLOCK     CODE     ---       LVL=0
      00FF1E39H   LINE      CODE     ---       #5
      00FF1E39H   LINE      CODE     ---       #7
      00FF1E3CH   LINE      CODE     ---       #8
      00FF1E3FH   LINE      CODE     ---       #9
      ---         BLOCKEND  ---      ---       LVL=0

      00FF001EH   BLOCK     CODE     ---       LVL=0
      00FF001EH   LINE      CODE     ---       #12
      00FF001EH   LINE      CODE     ---       #14
      00FF0020H   LINE      CODE     ---       #15
      00FF0022H   LINE      CODE     ---       #16
      ---         BLOCKEND  ---      ---       LVL=0

      00FF1E47H   BLOCK     CODE     ---       LVL=0
      00FF1E47H   LINE      CODE     ---       #18
      00FF1E47H   LINE      CODE     ---       #20
      00FF1E49H   LINE      CODE     ---       #21
      00FF1E4BH   LINE      CODE     ---       #22
      ---         BLOCKEND  ---      ---       LVL=0

      00FF1E42H   BLOCK     CODE     ---       LVL=0
      00FF1E42H   LINE      CODE     ---       #24
      00FF1E42H   LINE      CODE     ---       #26
      00FF1E44H   LINE      CODE     ---       #27
      00FF1E46H   LINE      CODE     ---       #28
      ---         BLOCKEND  ---      ---       LVL=0

      00FF1E4CH   BLOCK     CODE     ---       LVL=0
      00FF1E4CH   LINE      CODE     ---       #30
      00FF1E4CH   LINE      CODE     ---       #32
      00FF1E4EH   LINE      CODE     ---       #33
      00FF1E50H   LINE      CODE     ---       #34
      ---         BLOCKEND  ---      ---       LVL=0

      00FF1B8BH   BLOCK     CODE     ---       LVL=0
      WR6         REGSYM    ---      INT       motor1
      WR4         REGSYM    ---      INT       motor2
      00FF1B8BH   LINE      CODE     ---       #42
      00FF1B8BH   LINE      CODE     ---       #44
      00FF1B91H   LINE      CODE     ---       #46
      00FF1B93H   LINE      CODE     ---       #47
      00FF1B95H   LINE      CODE     ---       #48
      00FF1B97H   LINE      CODE     ---       #51
      00FF1B99H   LINE      CODE     ---       #52
      00FF1B9BH   LINE      CODE     ---       #53
      00FF1B9BH   LINE      CODE     ---       #55
      00FF1BA1H   LINE      CODE     ---       #57
      00FF1BA3H   LINE      CODE     ---       #58
      00FF1BA5H   LINE      CODE     ---       #59
      00FF1BA6H   LINE      CODE     ---       #62
      00FF1BA8H   LINE      CODE     ---       #63
      00FF1BAAH   LINE      CODE     ---       #64
      00FF1BAAH   LINE      CODE     ---       #65
      ---         BLOCKEND  ---      ---       LVL=0

      ---         MODULE    ---      ---       LineFollower
      00FF0F93H   PUBLIC    CODE     ---       ReadLine
      00FF1D44H   PUBLIC    CODE     ---       ReadLine_proc
      00FF1DA3H   PUBLIC    CODE     ---       moter_wheel
      00FF1A7FH   PUBLIC    CODE     ---       T_S_B_1_ReadLine
      00FF1AA9H   PUBLIC    CODE     ---       T_S_B_2_ReadLine
      00FF0003H   PUBLIC    CODE     ---       obstacle_avoidance
L251 LINKER/LOCATER V4.66.93.0                                                        08/04/2023  19:40:36  PAGE 36


      000001A2H   PUBLIC    EDATA    BYTE      count
      000000D0H   SFRSYM    DATA     BYTE      PSW
      0000009DH   SFRSYM    DATA     BYTE      IRCBAND
      00000097H   SFRSYM    DATA     BYTE      AUXR2
      000000A0H.5 SFRSYM    DATA     BIT       det_R
      000000EFH   SFRSYM    DATA     BYTE      AUXINTIF
      000000F8H.6 SFRSYM    DATA     BIT       det_L
      000000FDH   SFRSYM    DATA     BYTE      S4CON
      000000ACH   SFRSYM    DATA     BYTE      S3CON
      0000009AH   SFRSYM    DATA     BYTE      S2CON
      000000B7H   SFRSYM    DATA     BYTE      IPH
      000000CDH   SFRSYM    DATA     BYTE      SPSTAT
      000000A0H.7 SFRSYM    DATA     BIT       det_C
      000000DDH   SFRSYM    DATA     BYTE      T4T3M
      000000C1H   SFRSYM    DATA     BYTE      WDT_CONTR
      000000DFH   SFRSYM    DATA     BYTE      IP3
      000000F4H   SFRSYM    DATA     BYTE      USBCON
      000000B5H   SFRSYM    DATA     BYTE      IP2
      000000FFH   SFRSYM    DATA     BYTE      RSTCFG
      000000C7H   SFRSYM    DATA     BYTE      IAP_CONTR
      000000F9H   SFRSYM    DATA     BYTE      LINICR
      0000008EH   SFRSYM    DATA     BYTE      AUXR
      000000AFH   SFRSYM    DATA     BYTE      IE2
      00000088H   SFRSYM    DATA     BYTE      TCON
      00000089H   SFRSYM    DATA     BYTE      TMOD
      00000098H   SFRSYM    DATA     BYTE      SCON
      000000A0H.6 SFRSYM    DATA     BIT       det_CR
      000000F1H   SFRSYM    DATA     BYTE      CANICR
      00000087H   SFRSYM    DATA     BYTE      PCON
      000000BCH   SFRSYM    DATA     BYTE      ADC_CONTR
      000000F8H.5 SFRSYM    DATA     BIT       det_CL
      000000E7H   SFRSYM    DATA     BYTE      CMPCR2
      000000E6H   SFRSYM    DATA     BYTE      CMPCR1
      000000DEH   SFRSYM    DATA     BYTE      ADCCFG
      000000B8H   SFRSYM    DATA     BYTE      IP
      0000008FH   SFRSYM    DATA     BYTE      INTCLKO
      000000EEH   SFRSYM    DATA     BYTE      IP3H
      000000B6H   SFRSYM    DATA     BYTE      IP2H
      000000A8H   SFRSYM    DATA     BYTE      IE
      000000BBH   SFRSYM    DATA     BYTE      P_SW3
      000000BAH   SFRSYM    DATA     BYTE      P_SW2
      000000A2H   SFRSYM    DATA     BYTE      P_SW1
      000000CEH   SFRSYM    DATA     BYTE      SPCTL
      000000F8H   SFRSYM    DATA     BYTE      P7
      000000E8H   SFRSYM    DATA     BYTE      P6
      000000C8H   SFRSYM    DATA     BYTE      P5
      000000C0H   SFRSYM    DATA     BYTE      P4
      000000B0H   SFRSYM    DATA     BYTE      P3
      000000A0H   SFRSYM    DATA     BYTE      P2
      00000090H   SFRSYM    DATA     BYTE      P1
      00000080H   SFRSYM    DATA     BYTE      P0

      00FF0F93H   BLOCK     CODE     ---       LVL=0
      R10         REGSYM    ---      BYTE      read_value
      R11         REGSYM    ---      CHAR      return_value
      00FF0F93H   LINE      CODE     ---       #17
      00FF0F93H   LINE      CODE     ---       #18
      00FF0F93H   LINE      CODE     ---       #19
      00FF0F93H   LINE      CODE     ---       #20
      00FF0F93H   LINE      CODE     ---       #23
      00FF0F9AH   LINE      CODE     ---       #24
      00FF0F9FH   LINE      CODE     ---       #26
      00FF0FA1H   LINE      CODE     ---       #28
      00FF0FA8H   LINE      CODE     ---       #29
      00FF0FADH   LINE      CODE     ---       #31
L251 LINKER/LOCATER V4.66.93.0                                                        08/04/2023  19:40:36  PAGE 37


      00FF0FB0H   LINE      CODE     ---       #33
      00FF0FB7H   LINE      CODE     ---       #34
      00FF0FBCH   LINE      CODE     ---       #36
      00FF0FBFH   LINE      CODE     ---       #38
      00FF0FC6H   LINE      CODE     ---       #39
      00FF0FCBH   LINE      CODE     ---       #41
      00FF0FCEH   LINE      CODE     ---       #43
      00FF0FD5H   LINE      CODE     ---       #44
      00FF0FDAH   LINE      CODE     ---       #46
      00FF0FDDH   LINE      CODE     ---       #49
      00FF104DH   LINE      CODE     ---       #51
      00FF104DH   LINE      CODE     ---       #52
      00FF104EH   LINE      CODE     ---       #53
      00FF104FH   LINE      CODE     ---       #54
      00FF104FH   LINE      CODE     ---       #55
      00FF1051H   LINE      CODE     ---       #56
      00FF1052H   LINE      CODE     ---       #57
      00FF1052H   LINE      CODE     ---       #58
      00FF1054H   LINE      CODE     ---       #59
      00FF1055H   LINE      CODE     ---       #60
      00FF1055H   LINE      CODE     ---       #61
      00FF1057H   LINE      CODE     ---       #62
      00FF1058H   LINE      CODE     ---       #63
      00FF1058H   LINE      CODE     ---       #64
      00FF105AH   LINE      CODE     ---       #65
      00FF105BH   LINE      CODE     ---       #66
      00FF105BH   LINE      CODE     ---       #67
      00FF105DH   LINE      CODE     ---       #68
      00FF105EH   LINE      CODE     ---       #69
      00FF105EH   LINE      CODE     ---       #70
      00FF1060H   LINE      CODE     ---       #71
      00FF1061H   LINE      CODE     ---       #72
      00FF1061H   LINE      CODE     ---       #73
      00FF1063H   LINE      CODE     ---       #74
      00FF1064H   LINE      CODE     ---       #75
      00FF1064H   LINE      CODE     ---       #76
      00FF1066H   LINE      CODE     ---       #77
      00FF1067H   LINE      CODE     ---       #78
      00FF1067H   LINE      CODE     ---       #79
      00FF1069H   LINE      CODE     ---       #80
      00FF106AH   LINE      CODE     ---       #82
      00FF106AH   LINE      CODE     ---       #83
      00FF106CH   LINE      CODE     ---       #84
      00FF106CH   LINE      CODE     ---       #85
      00FF106CH   LINE      CODE     ---       #86
      00FF106CH   LINE      CODE     ---       #87
      ---         BLOCKEND  ---      ---       LVL=0

      00FF1D44H   BLOCK     CODE     ---       LVL=0
      00FF1D44H   LINE      CODE     ---       #90
      00FF1D44H   LINE      CODE     ---       #92
      00FF1D4BH   LINE      CODE     ---       #94
      00FF1D4EH   LINE      CODE     ---       #95
      00FF1D4EH   LINE      CODE     ---       #96
      00FF1D55H   LINE      CODE     ---       #98
      00FF1D58H   LINE      CODE     ---       #99
      ---         BLOCKEND  ---      ---       LVL=0

      00FF1A7FH   BLOCK     CODE     ---       LVL=0
      00FF1A7FH   LINE      CODE     ---       #105
      00FF1A7FH   LINE      CODE     ---       #107
      00FF1A82H   LINE      CODE     ---       #108
      00FF1A8EH   LINE      CODE     ---       #110
      00FF1A94H   LINE      CODE     ---       #111
      00FF1A94H   LINE      CODE     ---       #112
L251 LINKER/LOCATER V4.66.93.0                                                        08/04/2023  19:40:36  PAGE 38


      00FF1A9BH   LINE      CODE     ---       #114
      00FF1AA0H   LINE      CODE     ---       #115
      00FF1AA4H   LINE      CODE     ---       #116
      00FF1AA8H   LINE      CODE     ---       #117
      ---         BLOCKEND  ---      ---       LVL=0

      00FF1AA9H   BLOCK     CODE     ---       LVL=0
      00FF1AA9H   LINE      CODE     ---       #123
      00FF1AA9H   LINE      CODE     ---       #126
      00FF1AACH   LINE      CODE     ---       #127
      00FF1AB8H   LINE      CODE     ---       #129
      00FF1ABEH   LINE      CODE     ---       #130
      00FF1AC5H   LINE      CODE     ---       #132
      00FF1ACAH   LINE      CODE     ---       #133
      00FF1ACEH   LINE      CODE     ---       #134
      00FF1AD2H   LINE      CODE     ---       #135
      00FF1AD2H   LINE      CODE     ---       #137
      00FF1AD2H   LINE      CODE     ---       #140
      ---         BLOCKEND  ---      ---       LVL=0

      00FF1DA3H   BLOCK     CODE     ---       LVL=0
      WR6         REGSYM    ---      INT       left_moto
      WR4         REGSYM    ---      INT       right_moto
      00000020H.0 SYMBOL    BIT      BIT       Turn_left_flage
      00FF1DA3H   LINE      CODE     ---       #144
      00FF1DA3H   LINE      CODE     ---       #145
      00FF1DA3H   LINE      CODE     ---       #146
      00FF1DA5H   LINE      CODE     ---       #148
      00FF1DA7H   LINE      CODE     ---       #151
      00FF1DAAH   LINE      CODE     ---       #155
      00FF1DB1H   LINE      CODE     ---       #157
      00FF1DB3H   LINE      CODE     ---       #159
      ---         BLOCKEND  ---      ---       LVL=0

      00FF0003H   BLOCK     CODE     ---       LVL=0
      00FF0003H   LINE      CODE     ---       #171
      00FF0003H   LINE      CODE     ---       #173
      00FF0006H   LINE      CODE     ---       #174
      ---         BLOCKEND  ---      ---       LVL=0

      ---         MODULE    ---      ---       MPU6050
      00FF1C9BH   PUBLIC    CODE     ---       I2C_RecvACK
      00FF1E12H   PUBLIC    CODE     ---       Delay2us
      00FF0026H   PUBLIC    CODE     ---       Single_WriteI2C
      00FF15B8H   PUBLIC    CODE     ---       Read_MPU6050
      00FF1BE4H   PUBLIC    CODE     ---       I2C_Start
      00FF1B6AH   PUBLIC    CODE     ---       Delay50ms
      00FF1B47H   PUBLIC    CODE     ---       I2C_SendByte
      00FF008CH   PUBLIC    CODE     ---       I2C_Stop
      00FF1AFCH   PUBLIC    CODE     ---       I2C_RecvByte
      00FF196FH   PUBLIC    CODE     ---       InitMPU6050
      000000D0H   SFRSYM    DATA     BYTE      PSW
      0000009DH   SFRSYM    DATA     BYTE      IRCBAND
      00000097H   SFRSYM    DATA     BYTE      AUXR2
      000000EFH   SFRSYM    DATA     BYTE      AUXINTIF
      000000FDH   SFRSYM    DATA     BYTE      S4CON
      000000ACH   SFRSYM    DATA     BYTE      S3CON
      0000009AH   SFRSYM    DATA     BYTE      S2CON
      000000B0H.6 SFRSYM    DATA     BIT       SCL
      000000B7H   SFRSYM    DATA     BYTE      IPH
      000000CDH   SFRSYM    DATA     BYTE      SPSTAT
      000000DDH   SFRSYM    DATA     BYTE      T4T3M
      000000C1H   SFRSYM    DATA     BYTE      WDT_CONTR
      000000B0H.7 SFRSYM    DATA     BIT       SDA
      000000DFH   SFRSYM    DATA     BYTE      IP3
L251 LINKER/LOCATER V4.66.93.0                                                        08/04/2023  19:40:36  PAGE 39


      000000F4H   SFRSYM    DATA     BYTE      USBCON
      000000B5H   SFRSYM    DATA     BYTE      IP2
      000000FFH   SFRSYM    DATA     BYTE      RSTCFG
      000000C7H   SFRSYM    DATA     BYTE      IAP_CONTR
      000000F9H   SFRSYM    DATA     BYTE      LINICR
      0000008EH   SFRSYM    DATA     BYTE      AUXR
      000000AFH   SFRSYM    DATA     BYTE      IE2
      00000088H   SFRSYM    DATA     BYTE      TCON
      00000089H   SFRSYM    DATA     BYTE      TMOD
      00000098H   SFRSYM    DATA     BYTE      SCON
      000000F1H   SFRSYM    DATA     BYTE      CANICR
      00000087H   SFRSYM    DATA     BYTE      PCON
      000000BCH   SFRSYM    DATA     BYTE      ADC_CONTR
      000000E7H   SFRSYM    DATA     BYTE      CMPCR2
      000000E6H   SFRSYM    DATA     BYTE      CMPCR1
      000000D0H.7 SFRSYM    DATA     BIT       CY
      000000DEH   SFRSYM    DATA     BYTE      ADCCFG
      000000B8H   SFRSYM    DATA     BYTE      IP
      0000008FH   SFRSYM    DATA     BYTE      INTCLKO
      000000EEH   SFRSYM    DATA     BYTE      IP3H
      000000B6H   SFRSYM    DATA     BYTE      IP2H
      000000A8H   SFRSYM    DATA     BYTE      IE
      000000BBH   SFRSYM    DATA     BYTE      P_SW3
      000000BAH   SFRSYM    DATA     BYTE      P_SW2
      000000A2H   SFRSYM    DATA     BYTE      P_SW1
      000000CEH   SFRSYM    DATA     BYTE      SPCTL
      000000F8H   SFRSYM    DATA     BYTE      P7
      000000E8H   SFRSYM    DATA     BYTE      P6
      000000C8H   SFRSYM    DATA     BYTE      P5
      000000C0H   SFRSYM    DATA     BYTE      P4
      000000B0H   SFRSYM    DATA     BYTE      P3
      000000A0H   SFRSYM    DATA     BYTE      P2
      00000090H   SFRSYM    DATA     BYTE      P1
      00000080H   SFRSYM    DATA     BYTE      P0

      00FF1E12H   BLOCK     CODE     ---       LVL=0
      R10         REGSYM    ---      BYTE      i
      00FF1E12H   LINE      CODE     ---       #26
      00FF1E12H   LINE      CODE     ---       #27
      00FF1E12H   LINE      CODE     ---       #29
      00FF1E15H   LINE      CODE     ---       #30
      00FF1E1CH   LINE      CODE     ---       #31
      ---         BLOCKEND  ---      ---       LVL=0

      00FF1BE4H   BLOCK     CODE     ---       LVL=0
      00FF1BE4H   LINE      CODE     ---       #36
      00FF1BE4H   LINE      CODE     ---       #38
      00FF1BE7H   LINE      CODE     ---       #39
      00FF1BEAH   LINE      CODE     ---       #40
      00FF1BECH   LINE      CODE     ---       #41
      00FF1BEEH   LINE      CODE     ---       #42
      00FF1BF1H   LINE      CODE     ---       #43
      00FF1BF4H   LINE      CODE     ---       #44
      00FF1BF6H   LINE      CODE     ---       #45
      00FF1BF9H   LINE      CODE     ---       #46
      00FF1BFBH   LINE      CODE     ---       #47
      ---         BLOCKEND  ---      ---       LVL=0

      00FF008CH   BLOCK     CODE     ---       LVL=0
      00FF008CH   LINE      CODE     ---       #53
      00FF008CH   LINE      CODE     ---       #55
      00FF008FH   LINE      CODE     ---       #56
      00FF0091H   LINE      CODE     ---       #57
      00FF0093H   LINE      CODE     ---       #58
      00FF0096H   LINE      CODE     ---       #59
L251 LINKER/LOCATER V4.66.93.0                                                        08/04/2023  19:40:36  PAGE 40


      00FF0098H   LINE      CODE     ---       #60
      ---         BLOCKEND  ---      ---       LVL=0

      00FF1C9BH   BLOCK     CODE     ---       LVL=0
      00FF1C9BH   LINE      CODE     ---       #66
      00FF1C9BH   LINE      CODE     ---       #68
      00FF1C9DH   LINE      CODE     ---       #69
      00FF1CA0H   LINE      CODE     ---       #70
      00FF1CA2H   LINE      CODE     ---       #71
      00FF1CA5H   LINE      CODE     ---       #72
      00FF1CA9H   LINE      CODE     ---       #73
      00FF1CABH   LINE      CODE     ---       #74
      00FF1CAEH   LINE      CODE     ---       #75
      00FF1CB0H   LINE      CODE     ---       #76
      ---         BLOCKEND  ---      ---       LVL=0

      00FF1B47H   BLOCK     CODE     ---       LVL=0
      R15         REGSYM    ---      BYTE      dat
      00FF1B4BH   BLOCK     CODE     NEAR LAB  LVL=1
      R14         REGSYM    ---      BYTE      i
      ---         BLOCKEND  ---      ---       LVL=1
      00FF1B47H   LINE      CODE     ---       #81
      00FF1B4BH   LINE      CODE     ---       #82
      00FF1B4BH   LINE      CODE     ---       #84
      00FF1B4DH   LINE      CODE     ---       #86
      00FF1B4FH   LINE      CODE     ---       #87
      00FF1B53H   LINE      CODE     ---       #88
      00FF1B55H   LINE      CODE     ---       #89
      00FF1B58H   LINE      CODE     ---       #90
      00FF1B5AH   LINE      CODE     ---       #91
      00FF1B5DH   LINE      CODE     ---       #92
      00FF1B64H   LINE      CODE     ---       #93
      00FF1B67H   LINE      CODE     ---       #94
      ---         BLOCKEND  ---      ---       LVL=0

      00FF1AFCH   BLOCK     CODE     ---       LVL=0
      00FF1AFEH   BLOCK     CODE     NEAR LAB  LVL=1
      R14         REGSYM    ---      BYTE      i
      R15         REGSYM    ---      BYTE      dat
      ---         BLOCKEND  ---      ---       LVL=1
      00FF1AFCH   LINE      CODE     ---       #99
      00FF1AFEH   LINE      CODE     ---       #100
      00FF1AFEH   LINE      CODE     ---       #102
      00FF1B00H   LINE      CODE     ---       #103
      00FF1B02H   LINE      CODE     ---       #104
      00FF1B04H   LINE      CODE     ---       #106
      00FF1B06H   LINE      CODE     ---       #107
      00FF1B08H   LINE      CODE     ---       #108
      00FF1B0BH   LINE      CODE     ---       #109
      00FF1B11H   LINE      CODE     ---       #110
      00FF1B13H   LINE      CODE     ---       #111
      00FF1B16H   LINE      CODE     ---       #112
      00FF1B1DH   LINE      CODE     ---       #113
      00FF1B1FH   LINE      CODE     ---       #114
      ---         BLOCKEND  ---      ---       LVL=0

      00FF0026H   BLOCK     CODE     ---       LVL=0
      R14         REGSYM    ---      BYTE      REG_Address
      R15         REGSYM    ---      BYTE      REG_data
      00FF0026H   LINE      CODE     ---       #119
      00FF002AH   LINE      CODE     ---       #121
      00FF002DH   LINE      CODE     ---       #122
      00FF0032H   LINE      CODE     ---       #123
      00FF0037H   LINE      CODE     ---       #124
      00FF003CH   LINE      CODE     ---       #125
L251 LINKER/LOCATER V4.66.93.0                                                        08/04/2023  19:40:36  PAGE 41


      00FF003FH   LINE      CODE     ---       #126
      ---         BLOCKEND  ---      ---       LVL=0

      00FF1B6AH   BLOCK     CODE     ---       LVL=0
      R10         REGSYM    ---      BYTE      i
      R7          REGSYM    ---      BYTE      j
      R6          REGSYM    ---      BYTE      k
      00FF1B6AH   LINE      CODE     ---       #152
      00FF1B6AH   LINE      CODE     ---       #153
      00FF1B6AH   LINE      CODE     ---       #156
      00FF1B6BH   LINE      CODE     ---       #157
      00FF1B6CH   LINE      CODE     ---       #158
      00FF1B6FH   LINE      CODE     ---       #159
      00FF1B72H   LINE      CODE     ---       #160
      00FF1B75H   LINE      CODE     ---       #161
      00FF1B75H   LINE      CODE     ---       #163
      00FF1B75H   LINE      CODE     ---       #165
      00FF1B7CH   LINE      CODE     ---       #166
      00FF1B83H   LINE      CODE     ---       #167
      00FF1B8AH   LINE      CODE     ---       #168
      ---         BLOCKEND  ---      ---       LVL=0

      00FF196FH   BLOCK     CODE     ---       LVL=0
      00FF196FH   LINE      CODE     ---       #174
      00FF196FH   LINE      CODE     ---       #177
      00FF1972H   LINE      CODE     ---       #178
      00FF1975H   LINE      CODE     ---       #179
      00FF1978H   LINE      CODE     ---       #180
      00FF197BH   LINE      CODE     ---       #182
      00FF1982H   LINE      CODE     ---       #183
      00FF1985H   LINE      CODE     ---       #184
      00FF198DH   LINE      CODE     ---       #185
      00FF1995H   LINE      CODE     ---       #186
      00FF199DH   LINE      CODE     ---       #187
      ---         BLOCKEND  ---      ---       LVL=0

      00FF15B8H   BLOCK     CODE     ---       LVL=0
      REG=3       REGSYM    ---      ---       buf
      00FF15BCH   BLOCK     CODE     NEAR LAB  LVL=1
      00000140H   SYMBOL    EDATA    BYTE      i
      ---         BLOCKEND  ---      ---       LVL=1
      00FF15B8H   LINE      CODE     ---       #204
      00FF15BCH   LINE      CODE     ---       #205
      00FF15BCH   LINE      CODE     ---       #208
      00FF15BFH   LINE      CODE     ---       #209
      00FF15C4H   LINE      CODE     ---       #210
      00FF15C9H   LINE      CODE     ---       #211
      00FF15CCH   LINE      CODE     ---       #212
      00FF15D1H   LINE      CODE     ---       #213
      00FF15D6H   LINE      CODE     ---       #215
      00FF15E6H   LINE      CODE     ---       #216
      00FF15E8H   LINE      CODE     ---       #217
      00FF15EAH   LINE      CODE     ---       #218
      00FF15EDH   LINE      CODE     ---       #219
      00FF15EFH   LINE      CODE     ---       #220
      00FF15F2H   LINE      CODE     ---       #221
      00FF1604H   LINE      CODE     ---       #222
      00FF1614H   LINE      CODE     ---       #223
      00FF1616H   LINE      CODE     ---       #224
      00FF1618H   LINE      CODE     ---       #225
      00FF161BH   LINE      CODE     ---       #226
      00FF161DH   LINE      CODE     ---       #227
      00FF1620H   LINE      CODE     ---       #228
      00FF1623H   LINE      CODE     ---       #229
      ---         BLOCKEND  ---      ---       LVL=0
L251 LINKER/LOCATER V4.66.93.0                                                        08/04/2023  19:40:36  PAGE 42



      ---         MODULE    ---      ---       Wave
      00FF000EH   PUBLIC    CODE     ---       Delay10us
      00FF1626H   PUBLIC    CODE     ---       Wave_ultrasonic
      00FF1D7FH   PUBLIC    CODE     ---       Timer0Init
      0000018FH   PUBLIC    EDATA    DWORD     TF_Count
      00000193H   PUBLIC    EDATA    BYTE      Wave_flag
      000000D0H   SFRSYM    DATA     BYTE      PSW
      0000009DH   SFRSYM    DATA     BYTE      IRCBAND
      00000097H   SFRSYM    DATA     BYTE      AUXR2
      000000EFH   SFRSYM    DATA     BYTE      AUXINTIF
      000000FDH   SFRSYM    DATA     BYTE      S4CON
      000000ACH   SFRSYM    DATA     BYTE      S3CON
      0000009AH   SFRSYM    DATA     BYTE      S2CON
      000000B7H   SFRSYM    DATA     BYTE      IPH
      000000CDH   SFRSYM    DATA     BYTE      SPSTAT
      000000DDH   SFRSYM    DATA     BYTE      T4T3M
      000000C1H   SFRSYM    DATA     BYTE      WDT_CONTR
      00000088H.4 SFRSYM    DATA     BIT       TR0
      0000008AH   SFRSYM    DATA     BYTE      TL0
      0000008CH   SFRSYM    DATA     BYTE      TH0
      000000DFH   SFRSYM    DATA     BYTE      IP3
      000000F4H   SFRSYM    DATA     BYTE      USBCON
      00000090H.0 SFRSYM    DATA     BIT       Tx
      000000B5H   SFRSYM    DATA     BYTE      IP2
      000000FFH   SFRSYM    DATA     BYTE      RSTCFG
      00000088H.5 SFRSYM    DATA     BIT       TF0
      00000090H.1 SFRSYM    DATA     BIT       Rx
      000000A8H.1 SFRSYM    DATA     BIT       ET0
      000000C7H   SFRSYM    DATA     BYTE      IAP_CONTR
      000000F9H   SFRSYM    DATA     BYTE      LINICR
      0000008EH   SFRSYM    DATA     BYTE      AUXR
      000000AFH   SFRSYM    DATA     BYTE      IE2
      00000088H   SFRSYM    DATA     BYTE      TCON
      00000089H   SFRSYM    DATA     BYTE      TMOD
      00000098H   SFRSYM    DATA     BYTE      SCON
      000000F1H   SFRSYM    DATA     BYTE      CANICR
      00000087H   SFRSYM    DATA     BYTE      PCON
      000000BCH   SFRSYM    DATA     BYTE      ADC_CONTR
      000000E7H   SFRSYM    DATA     BYTE      CMPCR2
      000000E6H   SFRSYM    DATA     BYTE      CMPCR1
      000000DEH   SFRSYM    DATA     BYTE      ADCCFG
      000000B8H   SFRSYM    DATA     BYTE      IP
      0000008FH   SFRSYM    DATA     BYTE      INTCLKO
      000000EEH   SFRSYM    DATA     BYTE      IP3H
      000000B6H   SFRSYM    DATA     BYTE      IP2H
      000000A8H   SFRSYM    DATA     BYTE      IE
      000000BBH   SFRSYM    DATA     BYTE      P_SW3
      000000BAH   SFRSYM    DATA     BYTE      P_SW2
      000000A2H   SFRSYM    DATA     BYTE      P_SW1
      000000CEH   SFRSYM    DATA     BYTE      SPCTL
      000000F8H   SFRSYM    DATA     BYTE      P7
      000000E8H   SFRSYM    DATA     BYTE      P6
      000000C8H   SFRSYM    DATA     BYTE      P5
      000000C0H   SFRSYM    DATA     BYTE      P4
      000000B0H   SFRSYM    DATA     BYTE      P3
      000000A0H   SFRSYM    DATA     BYTE      P2
      00000090H   SFRSYM    DATA     BYTE      P1
      00000080H   SFRSYM    DATA     BYTE      P0

      00FF1626H   BLOCK     CODE     ---       LVL=0
      00FF1628H   BLOCK     CODE     NEAR LAB  LVL=1
      DR12        REGSYM    ---      DWORD     Wave_Distance
      ---         BLOCKEND  ---      ---       LVL=1
      00FF1626H   LINE      CODE     ---       #7
L251 LINKER/LOCATER V4.66.93.0                                                        08/04/2023  19:40:36  PAGE 43


      00FF1628H   LINE      CODE     ---       #8
      00FF1628H   LINE      CODE     ---       #9
      00FF1628H   LINE      CODE     ---       #10
      00FF1628H   LINE      CODE     ---       #12
      00FF162AH   LINE      CODE     ---       #13
      00FF162DH   LINE      CODE     ---       #14
      00FF1630H   LINE      CODE     ---       #15
      00FF1632H   LINE      CODE     ---       #18
      00FF1635H   LINE      CODE     ---       #19
      00FF1637H   LINE      CODE     ---       #20
      00FF163AH   LINE      CODE     ---       #21
      00FF163DH   LINE      CODE     ---       #22
      00FF163FH   LINE      CODE     ---       #24
      00FF1642H   LINE      CODE     ---       #26
      00FF1644H   LINE      CODE     ---       #28
      00FF1673H   LINE      CODE     ---       #30
      00FF1676H   LINE      CODE     ---       #31
      00FF1679H   LINE      CODE     ---       #32
      00FF167FH   LINE      CODE     ---       #33
      00FF1685H   LINE      CODE     ---       #34
      00FF1689H   LINE      CODE     ---       #36
      00FF168DH   LINE      CODE     ---       #37
      ---         BLOCKEND  ---      ---       LVL=0

      00FF000EH   BLOCK     CODE     ---       LVL=0
      R10         REGSYM    ---      BYTE      i
      00FF000EH   LINE      CODE     ---       #41
      00FF000EH   LINE      CODE     ---       #42
      00FF000EH   LINE      CODE     ---       #45
      00FF000FH   LINE      CODE     ---       #46
      00FF0010H   LINE      CODE     ---       #47
      00FF0013H   LINE      CODE     ---       #48
      00FF001AH   LINE      CODE     ---       #49
      ---         BLOCKEND  ---      ---       LVL=0

      00FF1D7FH   BLOCK     CODE     ---       LVL=0
      00FF1D7FH   LINE      CODE     ---       #54
      00FF1D7FH   LINE      CODE     ---       #56
      00FF1D82H   LINE      CODE     ---       #57
      00FF1D85H   LINE      CODE     ---       #58
      00FF1D88H   LINE      CODE     ---       #59
      00FF1D8BH   LINE      CODE     ---       #60
      00FF1D8DH   LINE      CODE     ---       #61
      00FF1D8FH   LINE      CODE     ---       #62
      00FF1D91H   LINE      CODE     ---       #63
      ---         BLOCKEND  ---      ---       LVL=0

      ---         MODULE    ---      ---       syn6288
      00FF1DE3H   PUBLIC    CODE     ---       delay
      00FF1DB4H   PUBLIC    CODE     ---       YS_SYN_Set
      00FF12A1H   PUBLIC    CODE     ---       SYN_FrameInfo
      00000168H   PUBLIC    EDATA    ---       SYN_Change
      0000016EH   PUBLIC    EDATA    ---       SYN_StopCom
      00000173H   PUBLIC    EDATA    ---       SYN_PowerDownCom
      00000178H   PUBLIC    EDATA    ---       SYN_RecoverCom
      0000017DH   PUBLIC    EDATA    ---       SYN_ChackCom
      00000182H   PUBLIC    EDATA    ---       SYN_SuspendCom
      000000D0H   SFRSYM    DATA     BYTE      PSW
      0000009DH   SFRSYM    DATA     BYTE      IRCBAND
      00000097H   SFRSYM    DATA     BYTE      AUXR2
      000000EFH   SFRSYM    DATA     BYTE      AUXINTIF
      000000FDH   SFRSYM    DATA     BYTE      S4CON
      000000ACH   SFRSYM    DATA     BYTE      S3CON
      0000009AH   SFRSYM    DATA     BYTE      S2CON
      000000B7H   SFRSYM    DATA     BYTE      IPH
L251 LINKER/LOCATER V4.66.93.0                                                        08/04/2023  19:40:36  PAGE 44


      000000CDH   SFRSYM    DATA     BYTE      SPSTAT
      000000DDH   SFRSYM    DATA     BYTE      T4T3M
      000000C1H   SFRSYM    DATA     BYTE      WDT_CONTR
      000000DFH   SFRSYM    DATA     BYTE      IP3
      000000F4H   SFRSYM    DATA     BYTE      USBCON
      000000B5H   SFRSYM    DATA     BYTE      IP2
      000000FFH   SFRSYM    DATA     BYTE      RSTCFG
      000000C7H   SFRSYM    DATA     BYTE      IAP_CONTR
      000000F9H   SFRSYM    DATA     BYTE      LINICR
      0000008EH   SFRSYM    DATA     BYTE      AUXR
      000000AFH   SFRSYM    DATA     BYTE      IE2
      00000088H   SFRSYM    DATA     BYTE      TCON
      00000089H   SFRSYM    DATA     BYTE      TMOD
      00000098H   SFRSYM    DATA     BYTE      SCON
      000000F1H   SFRSYM    DATA     BYTE      CANICR
      00000087H   SFRSYM    DATA     BYTE      PCON
      000000BCH   SFRSYM    DATA     BYTE      ADC_CONTR
      000000E7H   SFRSYM    DATA     BYTE      CMPCR2
      000000E6H   SFRSYM    DATA     BYTE      CMPCR1
      000000DEH   SFRSYM    DATA     BYTE      ADCCFG
      000000B8H   SFRSYM    DATA     BYTE      IP
      0000008FH   SFRSYM    DATA     BYTE      INTCLKO
      000000EEH   SFRSYM    DATA     BYTE      IP3H
      000000B6H   SFRSYM    DATA     BYTE      IP2H
      000000A8H   SFRSYM    DATA     BYTE      IE
      000000BBH   SFRSYM    DATA     BYTE      P_SW3
      000000BAH   SFRSYM    DATA     BYTE      P_SW2
      000000A2H   SFRSYM    DATA     BYTE      P_SW1
      000000CEH   SFRSYM    DATA     BYTE      SPCTL
      000000F8H   SFRSYM    DATA     BYTE      P7
      000000E8H   SFRSYM    DATA     BYTE      P6
      000000C8H   SFRSYM    DATA     BYTE      P5
      000000C0H   SFRSYM    DATA     BYTE      P4
      000000B0H   SFRSYM    DATA     BYTE      P3
      000000A0H   SFRSYM    DATA     BYTE      P2
      00000090H   SFRSYM    DATA     BYTE      P1
      00000080H   SFRSYM    DATA     BYTE      P0

      00FF12A1H   BLOCK     CODE     ---       LVL=0
      0000010BH   SYMBOL    EDATA    BYTE      Music
      REG=3       REGSYM    ---      ---       HZdata
      00FF12A9H   BLOCK     CODE     NEAR LAB  LVL=1
      0000010CH   SYMBOL    EDATA    ---       Frame_Info
      0000013EH   SYMBOL    EDATA    BYTE      HZ_Length
      0000013FH   SYMBOL    EDATA    BYTE      ecc
      WR4         REGSYM    ---      WORD      i
      ---         BLOCKEND  ---      ---       LVL=1
      00FF12A1H   LINE      CODE     ---       #14
      00FF12A9H   LINE      CODE     ---       #15
      00FF12A9H   LINE      CODE     ---       #19
      00FF12AEH   LINE      CODE     ---       #20
      00FF12AEH   LINE      CODE     ---       #21
      00FF12B5H   LINE      CODE     ---       #24
      00FF12BBH   LINE      CODE     ---       #25
      00FF12C0H   LINE      CODE     ---       #26
      00FF12CEH   LINE      CODE     ---       #27
      00FF12D4H   LINE      CODE     ---       #28
      00FF12E1H   LINE      CODE     ---       #31
      00FF12E3H   LINE      CODE     ---       #33
      00FF12EFH   LINE      CODE     ---       #34
      00FF12F7H   LINE      CODE     ---       #36
      00FF12FBH   LINE      CODE     ---       #38
      00FF130AH   LINE      CODE     ---       #39
      00FF1316H   LINE      CODE     ---       #42
      00FF1323H   LINE      CODE     ---       #43
L251 LINKER/LOCATER V4.66.93.0                                                        08/04/2023  19:40:36  PAGE 45


      00FF1331H   LINE      CODE     ---       #44
      00FF1344H   LINE      CODE     ---       #46
      ---         BLOCKEND  ---      ---       LVL=0

      00FF1DB4H   BLOCK     CODE     ---       LVL=0
      REG=3       REGSYM    ---      ---       Info_data
      00FF1DB8H   BLOCK     CODE     NEAR LAB  LVL=1
      R11         REGSYM    ---      BYTE      Com_Len
      ---         BLOCKEND  ---      ---       LVL=1
      00FF1DB4H   LINE      CODE     ---       #57
      00FF1DB8H   LINE      CODE     ---       #58
      00FF1DB8H   LINE      CODE     ---       #60
      00FF1DBDH   LINE      CODE     ---       #61
      00FF1DC2H   LINE      CODE     ---       #62
      ---         BLOCKEND  ---      ---       LVL=0

      00FF1DE3H   BLOCK     CODE     ---       LVL=0
      WR4         REGSYM    ---      WORD      uldata
      00FF1DE5H   BLOCK     CODE     NEAR LAB  LVL=1
      WR6         REGSYM    ---      WORD      j
      ---         BLOCKEND  ---      ---       LVL=1
      00FF1DE3H   LINE      CODE     ---       #65
      00FF1DE5H   LINE      CODE     ---       #66
      00FF1DE5H   LINE      CODE     ---       #67
      00FF1DE5H   LINE      CODE     ---       #68
      00FF1DE5H   LINE      CODE     ---       #69
      00FF1DE9H   LINE      CODE     ---       #70
      00FF1DEFH   LINE      CODE     ---       #71
      ---         BLOCKEND  ---      ---       LVL=0

      ---         MODULE    ---      ---       ?C?FPMUL
      00FF009EH   PUBLIC    CODE     ---       ?C?FPMUL

      ---         MODULE    ---      ---       ?C?FPDIV
      00FF013EH   PUBLIC    CODE     ---       ?C?FPDIV

      ---         MODULE    ---      ---       ?C?FCAST
      00FF01C9H   PUBLIC    CODE     NEAR LAB  ?C?FCASTC
      00FF01C4H   PUBLIC    CODE     NEAR LAB  ?C?FCASTI
      00FF01BFH   PUBLIC    CODE     NEAR LAB  ?C?FCASTL

      ---         MODULE    ---      ---       ?C?CASTF
      00FF01FCH   PUBLIC    CODE     NEAR LAB  ?C?CASTF

      ---         MODULE    ---      ---       SPRINTF
      00000168H   PUBLIC    EDATA    ---       ?SPRINTF?BYTE
      00FF0239H   PUBLIC    CODE     NEAR LAB  SPRINTF

      ---         MODULE    ---      ---       ?C?FPGETOPN
      00FF0259H   PUBLIC    CODE     ---       ?C?FPGETOPN2
      00FF0296H   PUBLIC    CODE     ---       ?C?FPNANRESULT
      00FF029EH   PUBLIC    CODE     ---       ?C?FPOVERFLOW
      00FF0272H   PUBLIC    CODE     ---       ?C?FPRESULT
      00FF0288H   PUBLIC    CODE     ---       ?C?FPRESULT2
      00FF029BH   PUBLIC    CODE     ---       ?C?FPUNDERFLOW

      ---         MODULE    ---      ---       ?C?PRNFMT
      00FF02D7H   PUBLIC    CODE     ---       ?C?PRNFMT

      ---         MODULE    ---      ---       ?C?FPCONVERT
      00FF06F4H   PUBLIC    CODE     ---       ?C?FPCONVERT
      00FF07ACH   PUBLIC    CODE     ---       ?C?FPROUND

      ---         MODULE    ---      ---       ?C?FTNPWR
      00FF081FH   PUBLIC    CODE     ---       ?C?FTNPWR
L251 LINKER/LOCATER V4.66.93.0                                                        08/04/2023  19:40:36  PAGE 46



      ---         MODULE    ---      ---       ?C_START
      00FF0000H   PUBLIC    CODE     ---       ?C?STARTUP
      00FF0000H   PUBLIC    CODE     ---       ?C_STARTUP

      ---         MODULE    ---      ---       ?C?INITEDATA
      00FF1863H   PUBLIC    CODE     ---       ?C?INITEDATA

      ---         MODULE    ---      ---       ?C?LIMUL
      00FF0856H   PUBLIC    CODE     ---       ?C?LIMUL

      ---         MODULE    ---      ---       ?C?ULDIV
      00FF0861H   PUBLIC    CODE     NEAR LAB  ?C?ULDIV
      00FF085FH   PUBLIC    CODE     NEAR LAB  ?C?ULIDIV

      ---         MODULE    ---      ---       STRLEN
      00FF1DD5H   PUBLIC    CODE     ---       strlen?_

      ---         MODULE    ---      ---       memcpy
      00FF1B22H   PUBLIC    CODE     ---       memcpy?_

      ---         MODULE    ---      ---       ?C?INITEDATA_END
      00FF1F9CH   PUBLIC    HCONST   WORD      ?C?INITEDATA_END



*** WARNING L57: UNCALLED FUNCTION, IGNORED FOR OVERLAY PROCESS
    NAME:    OLED_Clear_0_2/oled

*** WARNING L57: UNCALLED FUNCTION, IGNORED FOR OVERLAY PROCESS
    NAME:    OLED_DisPlay_Off/oled

*** WARNING L57: UNCALLED FUNCTION, IGNORED FOR OVERLAY PROCESS
    NAME:    OLED_Display_128x64/oled

*** WARNING L57: UNCALLED FUNCTION, IGNORED FOR OVERLAY PROCESS
    NAME:    OLED_ShowNum/oled

*** WARNING L57: UNCALLED FUNCTION, IGNORED FOR OVERLAY PROCESS
    NAME:    OLED_DisPlay_On/oled

*** WARNING L57: UNCALLED FUNCTION, IGNORED FOR OVERLAY PROCESS
    NAME:    Key_Init/key

*** WARNING L57: UNCALLED FUNCTION, IGNORED FOR OVERLAY PROCESS
    NAME:    Uart1_String/Uart

*** WARNING L57: UNCALLED FUNCTION, IGNORED FOR OVERLAY PROCESS
    NAME:    Uart2_String/Uart

*** WARNING L57: UNCALLED FUNCTION, IGNORED FOR OVERLAY PROCESS
    NAME:    Uart3_String/Uart

*** WARNING L57: UNCALLED FUNCTION, IGNORED FOR OVERLAY PROCESS
    NAME:    Uart2_Init/Uart

*** WARNING L57: UNCALLED FUNCTION, IGNORED FOR OVERLAY PROCESS
    NAME:    Uart3_Init/Uart

*** WARNING L57: UNCALLED FUNCTION, IGNORED FOR OVERLAY PROCESS
    NAME:    Xianfu_Pwm/pwm_init

*** WARNING L57: UNCALLED FUNCTION, IGNORED FOR OVERLAY PROCESS
    NAME:    Set_FBPwm/pwm_init

L251 LINKER/LOCATER V4.66.93.0                                                        08/04/2023  19:40:36  PAGE 47


*** WARNING L57: UNCALLED FUNCTION, IGNORED FOR OVERLAY PROCESS
    NAME:    Motor_FRcontrol/motor

*** WARNING L57: UNCALLED FUNCTION, IGNORED FOR OVERLAY PROCESS
    NAME:    ReadLine_proc/LineFollower

*** WARNING L57: UNCALLED FUNCTION, IGNORED FOR OVERLAY PROCESS
    NAME:    moter_wheel/LineFollower

*** WARNING L57: UNCALLED FUNCTION, IGNORED FOR OVERLAY PROCESS
    NAME:    obstacle_avoidance/LineFollower

*** WARNING L57: UNCALLED FUNCTION, IGNORED FOR OVERLAY PROCESS
    NAME:    delay/syn6288

*** WARNING L57: UNCALLED FUNCTION, IGNORED FOR OVERLAY PROCESS
    NAME:    YS_SYN_Set/syn6288

*** WARNING L57: UNCALLED FUNCTION, IGNORED FOR OVERLAY PROCESS
    NAME:    SYN_FrameInfo/syn6288

*** WARNING L25: DATA TYPES DIFFERENT
    SYMBOL:  ReadLine
    MODULE:  main.obj (main)
   DEFINED:  LineFollower.obj (LineFollower)

*** WARNING L25: DATA TYPES DIFFERENT
    SYMBOL:  MotorL_Forward
    MODULE:  pwm_init.obj (pwm_init)
   DEFINED:  motor.obj (motor)

*** WARNING L25: DATA TYPES DIFFERENT
    SYMBOL:  MotorR_Forward
    MODULE:  pwm_init.obj (pwm_init)
   DEFINED:  motor.obj (motor)

*** WARNING L25: DATA TYPES DIFFERENT
    SYMBOL:  MotorL_Reverse
    MODULE:  pwm_init.obj (pwm_init)
   DEFINED:  motor.obj (motor)

*** WARNING L25: DATA TYPES DIFFERENT
    SYMBOL:  MotorR_Reverse
    MODULE:  pwm_init.obj (pwm_init)
   DEFINED:  motor.obj (motor)

Program Size: data=8.1 edata+hdata=666 xdata=0 const=403 code=7758
L251 RUN COMPLETE.  25 WARNING(S),  0 ERROR(S)
