L251 LINKER/LOCATER V4.66.93.0                                                          08/01/2023  00:54:48  PAGE 1


L251 LINKER/LOCATER V4.66.93.0, INVOKED BY:
D:\SOFTWARE\WORKSOFTWARE\KEIL5_C251\C251\BIN\L251.EXE main.obj, oled.obj, Meun.obj, Encoders.obj, key.obj, timer.obj, Ua
>> rt.obj, iic.obj, pwm.obj, GPIO.obj, motor.obj, ADC.obj, LineFollower.obj, MPU6050.obj TO LED CASE CLASSES (EDATA (0X0
>> -0XFFF), HDATA (0X0-0XFFF))


CPU MODE:     251 SOURCE MODE
INTR FRAME:   2 BYTES SAVED ON INTERRUPT
MEMORY MODEL: XSMALL WITH FLOATING POINT ARITHMETIC


INPUT MODULES INCLUDED:
  main.obj (main)
         COMMENT TYPE 0: C251 V5.60.0
  oled.obj (oled)
         COMMENT TYPE 0: C251 V5.60.0
  Meun.obj (Meun)
         COMMENT TYPE 0: C251 V5.60.0
  Encoders.obj (Encoders)
         COMMENT TYPE 0: C251 V5.60.0
  key.obj (key)
         COMMENT TYPE 0: C251 V5.60.0
  timer.obj (timer)
         COMMENT TYPE 0: C251 V5.60.0
  Uart.obj (Uart)
         COMMENT TYPE 0: C251 V5.60.0
  iic.obj (iic)
         COMMENT TYPE 0: C251 V5.60.0
  pwm.obj (pwm)
         COMMENT TYPE 0: C251 V5.60.0
  GPIO.obj (GPIO)
         COMMENT TYPE 0: C251 V5.60.0
  motor.obj (motor)
         COMMENT TYPE 0: C251 V5.60.0
  ADC.obj (ADC)
         COMMENT TYPE 0: C251 V5.60.0
  LineFollower.obj (LineFollower)
         COMMENT TYPE 0: C251 V5.60.0
  MPU6050.obj (MPU6050)
         COMMENT TYPE 0: C251 V5.60.0
  D:\SOFTWARE\WORKSOFTWARE\KEIL5_C251\C251\LIB\C2SFPXS.LIB (?C?FPADD)
         COMMENT TYPE 0: A251 V4.69.6.0
  D:\SOFTWARE\WORKSOFTWARE\KEIL5_C251\C251\LIB\C2SFPXS.LIB (?C?FPMUL)
         COMMENT TYPE 0: A251 V4.69.6.0
  D:\SOFTWARE\WORKSOFTWARE\KEIL5_C251\C251\LIB\C2SFPXS.LIB (?C?FPDIV)
         COMMENT TYPE 0: A251 V4.69.6.0
  D:\SOFTWARE\WORKSOFTWARE\KEIL5_C251\C251\LIB\C2SFPXS.LIB (?C?FPNEG)
         COMMENT TYPE 0: A251 V4.69.6.0
  D:\SOFTWARE\WORKSOFTWARE\KEIL5_C251\C251\LIB\C2SFPXS.LIB (?C?FCAST)
         COMMENT TYPE 0: A251 V4.69.6.0
  D:\SOFTWARE\WORKSOFTWARE\KEIL5_C251\C251\LIB\C2SFPXS.LIB (?C?CASTF)
         COMMENT TYPE 0: A251 V4.69.6.0
  D:\SOFTWARE\WORKSOFTWARE\KEIL5_C251\C251\LIB\C2SFPXS.LIB (SPRINTF)
         COMMENT TYPE 0: A251 V4.69.6.0
  D:\SOFTWARE\WORKSOFTWARE\KEIL5_C251\C251\LIB\C2SFPXS.LIB (SQRT?_)
         COMMENT TYPE 0: A251 V4.69.6.0
  D:\SOFTWARE\WORKSOFTWARE\KEIL5_C251\C251\LIB\C2SFPXS.LIB (ASIN?_)
         COMMENT TYPE 0: A251 V4.69.6.0
  D:\SOFTWARE\WORKSOFTWARE\KEIL5_C251\C251\LIB\C2SFPXS.LIB (atan2)
         COMMENT TYPE 0: C251 V5.58.7
  D:\SOFTWARE\WORKSOFTWARE\KEIL5_C251\C251\LIB\C2SFPXS.LIB (?C?FPGETOPN)
         COMMENT TYPE 0: A251 V4.69.6.0
  D:\SOFTWARE\WORKSOFTWARE\KEIL5_C251\C251\LIB\C2SFPXS.LIB (?C?FPCMP)
         COMMENT TYPE 0: A251 V4.69.6.0
  D:\SOFTWARE\WORKSOFTWARE\KEIL5_C251\C251\LIB\C2SFPXS.LIB (?C?PRNFMT)
         COMMENT TYPE 0: A251 V4.69.6.0
L251 LINKER/LOCATER V4.66.93.0                                                        08/01/2023  00:54:48  PAGE 2


  D:\SOFTWARE\WORKSOFTWARE\KEIL5_C251\C251\LIB\C2SFPXS.LIB (ATAN?_)
         COMMENT TYPE 0: A251 V4.69.6.0
  D:\SOFTWARE\WORKSOFTWARE\KEIL5_C251\C251\LIB\C2SFPXS.LIB (?C?FPCONVERT)
         COMMENT TYPE 0: A251 V4.69.6.0
  D:\SOFTWARE\WORKSOFTWARE\KEIL5_C251\C251\LIB\C2SFPXS.LIB (?C?FPSERIES)
         COMMENT TYPE 0: A251 V4.69.6.0
  D:\SOFTWARE\WORKSOFTWARE\KEIL5_C251\C251\LIB\C2SFPXS.LIB (?C?FTNPWR)
         COMMENT TYPE 0: A251 V4.69.6.0
  D:\SOFTWARE\WORKSOFTWARE\KEIL5_C251\C251\LIB\C2SXS.LIB (?C_START)
         COMMENT TYPE 0: A251 V4.69.6.0
  D:\SOFTWARE\WORKSOFTWARE\KEIL5_C251\C251\LIB\C2SXS.LIB (?C?INITEDATA)
         COMMENT TYPE 0: A251 V4.69.6.0
  D:\SOFTWARE\WORKSOFTWARE\KEIL5_C251\C251\LIB\C2SXS.LIB (?C?INITHDATA)
         COMMENT TYPE 0: A251 V4.69.6.0
  D:\SOFTWARE\WORKSOFTWARE\KEIL5_C251\C251\LIB\C2SXS.LIB (?C?LIMUL)
         COMMENT TYPE 0: A251 V4.69.6.0
  D:\SOFTWARE\WORKSOFTWARE\KEIL5_C251\C251\LIB\C2SXS.LIB (?C?ULDIV)
         COMMENT TYPE 0: A251 V4.69.6.0
  D:\SOFTWARE\WORKSOFTWARE\KEIL5_C251\C251\LIB\C2SXS.LIB (?C?INITEDATA_END)
         COMMENT TYPE 0: A251 V4.69.6.0
  D:\SOFTWARE\WORKSOFTWARE\KEIL5_C251\C251\LIB\C2SXS.LIB (?C?INITHDATA_END)
         COMMENT TYPE 0: A251 V4.69.6.0


ACTIVE MEMORY CLASSES OF MODULE:  LED (main)

BASE        START       END         USED      MEMORY CLASS
==========================================================
000000H     000000H     000FFFH     000216H   EDATA
000000H     000000H     000FFFH               HDATA
000000H     FF0000H     FFFFFFH     000239H   HCONST
FF0000H     FF0000H     FFFFFFH     002AA5H   CODE
000000H     000000H     0000FFH     00000CH   IDATA
010000H     010000H     01FFFFH     00000EH   XDATA
000000H     000000H     00007FH     00000CH   DATA
000020H.0   000020H.0   00002FH.7   000000H.7 BIT
FF0000H     FF0000H     FFFFFFH     000004H   CONST


MEMORY MAP OF MODULE:  LED (main)


START     STOP      LENGTH    ALIGN  RELOC    MEMORY CLASS   SEGMENT NAME
=========================================================================
000000H   000007H   000008H   ---    AT..     DATA           "REG BANK 0"
000008H   00000BH   000004H   BYTE   UNIT     DATA           ?DT?MAIN
00000CH   000013H   000008H   BYTE   UNIT     IDATA          ?ID?MAIN
000014H   000017H   000004H   BYTE   UNIT     IDATA          _IDATA_GROUP_
000018H   00001FH   000008H   BYTE   UNIT     EDATA          ?ED?OLED_SHOWNUM?OLED
000020H.0 000020H.4 000000H.5 BIT    UNIT     BIT            ?BI?ENCODERS
000020H.5 000020H.5 000000H.1 BIT    UNIT     BIT            ?BI?IIC_SENDACK?IIC
000020H.6 000020H.6 000000H.1 BIT    UNIT     BIT            ?BI?IIC_WAITACK?IIC
000020H.7 000020H   000000H.1 ---    ---      **GAP**
000021H   0000D2H   0000B2H   BYTE   UNIT     EDATA          ?ED?MAIN
0000D3H   00010DH   00003BH   BYTE   UNIT     EDATA          _EDATA_GROUP_
00010EH   00011BH   00000EH   BYTE   UNIT     EDATA          ?ED?ENCODERS
00011CH   00011FH   000004H   BYTE   UNIT     EDATA          ?ED?OLED
000120H   000123H   000004H   BYTE   UNIT     EDATA          ?ED?PWM
000124H   000127H   000004H   BYTE   UNIT     EDATA          ?ED?ADC_READ?ADC
000128H   000129H   000002H   BYTE   UNIT     EDATA          ?ED?OLED_DISPLAY_128X64?OLED
00012AH   00012BH   000002H   BYTE   UNIT     EDATA          ?ED?MEUN
00012CH   00012DH   000002H   BYTE   UNIT     EDATA          ?ED?TIMER
00012EH   00012EH   000001H   BYTE   UNIT     EDATA          ?ED?LINEFOLLOWER
00012FH   00022EH   000100H   BYTE   UNIT     EDATA          ?STACK
00022FH   00FFFFH   00FDD1H   ---    ---      **GAP**
L251 LINKER/LOCATER V4.66.93.0                                                        08/01/2023  00:54:48  PAGE 3


010000H   01000DH   00000EH   BYTE   INSEG    XDATA          ?XD?MAIN
01000EH   FEFFFFH   FDFFF2H   ---    ---      **GAP**
FF0000H   FF0002H   000003H   ---    OFFS..   CODE           ?CO?start251?4
FF0003H   FF0019H   000017H   BYTE   INSEG    CODE           ?PR?GET_DATA_FROM_ROM?OLED
FF001AH   FF001AH   000001H   ---    ---      **GAP**
FF001BH   FF001DH   000003H   ---    OFFS..   CODE           ?PR?IV?3
FF001EH   FF0022H   000005H   BYTE   INSEG    CODE           ?PR?MOTORL_FORWARD?MOTOR
FF0023H   FF0025H   000003H   ---    OFFS..   CODE           ?PR?IV?4
FF0026H   FF0B1AH   000AF5H   BYTE   UNIT     CODE           ?C?LIB_CODE
FF0B1BH   FF0F5BH   000441H   BYTE   INSEG    CODE           ?PR?IMUUPDATE?MAIN
FF0F5CH   FF1184H   000229H   BYTE   INSEG    CODE           ?PR?OLED_16X16?OLED
FF1185H   FF134FH   0001CBH   BYTE   INSEG    CODE           ?PR?MAIN_MEUN?MEUN
FF1350H   FF14C4H   000175H   BYTE   INSEG    CODE           ?PR?SECOND_MENU_VALUE?ENCODERS
FF14C5H   FF1630H   00016CH   BYTE   INSEG    CODE           ?PR?MPU6050_READ?MAIN
FF1631H   FF176DH   00013DH   BYTE   INSEG    CODE           ?PR?OLED_SHOWNUM?OLED
FF176EH   FF184EH   0000E1H   BYTE   INSEG    CODE           ?PR?MOTOR_CONTROL?MAIN
FF184FH   FF1928H   0000DAH   BYTE   INSEG    CODE           ?PR?READLINE?LINEFOLLOWER
FF1929H   FF1A01H   0000D9H   BYTE   INSEG    CODE           ?PR?DISP_REFRESH?MAIN
FF1A02H   FF1AC4H   0000C3H   BYTE   INSEG    CODE           ?PR?OLED_INIT?OLED
FF1AC5H   FF1B77H   0000B3H   BYTE   INSEG    CODE           ?PR?MEMU?MEUN
FF1B78H   FF1C20H   0000A9H   BYTE   INSEG    CODE           ?PR?OLED_DISPLAY_STRING_5X7?OLED
FF1C21H   FF1CBFH   00009FH   BYTE   INSEG    CODE           ?PR?MEUN_2_CONTROL?MEUN
FF1CC0H   FF1D5EH   00009FH   BYTE   INSEG    CODE           ?PR?MEUN_2_ANGLE?MEUN
FF1D5FH   FF1DFDH   00009FH   BYTE   INSEG    CODE           ?PR?MEUN_2_SPEED?MEUN
FF1DFEH   FF1E9CH   00009FH   BYTE   INSEG    CODE           ?PR?MEUN_2_PITCHING?MEUN
FF1E9DH   FF1F2EH   000092H   BYTE   INSEG    CODE           ?PR?CANCEL_DETERMINE?ENCODERS
FF1F2FH   FF1FBFH   000091H   BYTE   INSEG    CODE           ?PR?PWMA_CONFIG?PWM
FF1FC0H   FF204BH   00008CH   BYTE   INSEG    CODE           ?PR?TIMER1?MAIN
FF204CH   FF20C8H   00007DH   BYTE   INSEG    CODE           ?PR?KEY_PROC?MAIN
FF20C9H   FF20DBH   000013H   BYTE   UNIT     CODE           ?C_C51STARTUP
FF20DCH   FF20E5H   00000AH   BYTE   UNIT     CODE           ?C_C51STARTUP?1
FF20E6H   FF213FH   00005AH   BYTE   UNIT     CODE           ?C_C51STARTUP?2
FF2140H   FF2142H   000003H   BYTE   UNIT     CODE           ?C_C51STARTUP?3
FF2143H   FF21BBH   000079H   BYTE   INSEG    CODE           ?PR?ADD?ENCODERS
FF21BCH   FF2234H   000079H   BYTE   INSEG    CODE           ?PR?LOSE?ENCODERS
FF2235H   FF22A2H   00006EH   BYTE   INSEG    CODE           ?PR?READ_MPU6050?MPU6050
FF22A3H   FF2305H   000063H   BYTE   INSEG    CODE           ?PR?UPDATE_DUTY?PWM
FF2306H   FF2360H   00005BH   BYTE   INSEG    CODE           ?PR?OLED_GET_DATA_FROM_ROM?OLED
FF2361H   FF23B6H   000056H   BYTE   INSEG    CODE           ?PR?OLED_DISPLAY_16X16?OLED
FF23B7H   FF240CH   000056H   BYTE   INSEG    CODE           ?PR?OLED_DISPLAY_8X16?OLED
FF240DH   FF245EH   000052H   BYTE   INSEG    CODE           ?PR?MAIN?MAIN
FF245FH   FF24ADH   00004FH   BYTE   INSEG    CODE           ?PR?UP_KEY_DETECTION?ENCODERS
FF24AEH   FF24F8H   00004BH   BYTE   INSEG    CODE           ?PR?ROTARY_ENCODER?ENCODERS
FF24F9H   FF253EH   000046H   BYTE   INSEG    CODE           ?PR?OLED_DISPLAY_128X64?OLED
FF253FH   FF2583H   000045H   BYTE   INSEG    CODE           ?PR?ATAN2?_?ATAN2
FF2584H   FF25BEH   00003BH   BYTE   INSEG    CODE           ?PR?INITMPU6050?MPU6050
FF25BFH   FF25F8H   00003AH   BYTE   INSEG    CODE           ?PR?GPIO_INIT?GPIO
FF25F9H   FF262FH   000037H   BYTE   INSEG    CODE           ?PR?OLED_CLEAR_0_2?OLED
FF2630H   FF2666H   000037H   BYTE   INSEG    CODE           ?PR?OLED_CLEAR?OLED
FF2667H   FF2695H   00002FH   BYTE   INSEG    CODE           ?PR?KEY_RVALUE?KEY
FF2696H   FF26C4H   00002FH   BYTE   INSEG    CODE           ?PR?HALL_ELEMENT?IIC
FF26C5H   FF26F2H   00002EH   BYTE   INSEG    CODE           ?PR?IIC_SENDBYTE?IIC
FF26F3H   FF271EH   00002CH   BYTE   INSEG    CODE           ?PR?OLED_DISPLAYTURN?OLED
FF271FH   FF274AH   00002CH   BYTE   INSEG    CODE           ?PR?OLED_DISPLAY_5X7?OLED
FF274BH   FF2775H   00002BH   BYTE   INSEG    CODE           ?PR?OLED_WR_BYTE?OLED
FF2776H   FF27A0H   00002BH   BYTE   INSEG    CODE           ?PR?OLED_ADDRESS?OLED
FF27A1H   FF27C6H   000026H   BYTE   INSEG    CODE           ?PR?IIC_RECBYTE?IIC
FF27C7H   FF27ECH   000026H   BYTE   INSEG    CODE           ?PR?ADC_READ?ADC
FF27EDH   FF2812H   000026H   BYTE   INSEG    CODE           ?PR?I2C_RECVBYTE?MPU6050
FF2813H   FF2835H   000023H   BYTE   INSEG    CODE           ?PR?I2C_SENDBYTE?MPU6050
FF2836H   FF2856H   000021H   BYTE   INSEG    CODE           ?PR?ADC_READCHANNEL_1?ADC
FF2857H   FF2877H   000021H   BYTE   INSEG    CODE           ?PR?ADC_READCHANNEL_2?ADC
FF2878H   FF2898H   000021H   BYTE   INSEG    CODE           ?PR?DELAY50MS?MPU6050
FF2899H   FF28B8H   000020H   BYTE   INSEG    CODE           ?PR?MOTOR_FRCONTROL?MOTOR
FF28B9H   FF28D6H   00001EH   BYTE   INSEG    CODE           ?PR?OLED_COLORTURN?OLED
L251 LINKER/LOCATER V4.66.93.0                                                        08/01/2023  00:54:48  PAGE 4


FF28D7H   FF28F2H   00001CH   BYTE   INSEG    CODE           ?PR?ADC_READCHANNEL_3?ADC
FF28F3H   FF290EH   00001CH   BYTE   INSEG    CODE           ?PR?SINGLE_WRITEI2C?MPU6050
FF290FH   FF2929H   00001BH   BYTE   INSEG    CODE           ?PR?SEND_COMMAND_TO_ROM?OLED
FF292AH   FF2943H   00001AH   BYTE   INSEG    CODE           ?PR?I2C_START?MPU6050
FF2944H   FF295AH   000017H   BYTE   INSEG    CODE           ?PR?DELAY_MS?OLED
FF295BH   FF2971H   000017H   BYTE   INSEG    CODE           ?PR?UARTINIT?UART
FF2972H   FF2988H   000017H   BYTE   INSEG    CODE           ?PR?IIC_SENDACK?IIC
FF2989H   FF299FH   000017H   BYTE   INSEG    CODE           ?PR?ADC_INIT?ADC
FF29A0H   FF29B5H   000016H   BYTE   INSEG    CODE           ?PR?UART_STRING?UART
FF29B6H   FF29CBH   000016H   BYTE   INSEG    CODE           ?PR?I2C_RECVACK?MPU6050
FF29CCH   FF29E0H   000015H   BYTE   INSEG    CODE           ?PR?OLED_DISPLAY_OFF?OLED
FF29E1H   FF29F5H   000015H   BYTE   INSEG    CODE           ?PR?OLED_DISPLAY_ON?OLED
FF29F6H   FF2A0AH   000015H   BYTE   INSEG    CODE           ?PR?TIMER1INIT?TIMER
FF2A0BH   FF2A1DH   000013H   BYTE   INSEG    CODE           ?PR?IIC_WAITACK?IIC
FF2A1EH   FF2A2EH   000011H   BYTE   INSEG    CODE           ?PR?IIC_START?IIC
FF2A2FH   FF2A3DH   00000FH   BYTE   INSEG    CODE           ?PR?DELAY?TIMER
FF2A3EH   FF2A4CH   00000FH   BYTE   INSEG    CODE           ?PR?I2C_STOP?MPU6050
FF2A4DH   FF2A5AH   00000EH   BYTE   INSEG    CODE           ?PR?IIC_STOP?IIC
FF2A5BH   FF2A66H   00000CH   BYTE   INSEG    CODE           ?PR?IIC_DELAY?IIC
FF2A67H   FF2A71H   00000BH   BYTE   INSEG    CODE           ?PR?DELAY2US?MPU6050
FF2A72H   FF2A7BH   00000AH   BYTE   INSEG    CODE           ?PR?UART1_ISR?UART
FF2A7CH   FF2A84H   000009H   BYTE   INSEG    CODE           ?PR?KEY_INIT?KEY
FF2A85H   FF2A8DH   000009H   BYTE   INSEG    CODE           ?PR?UART_SENDBYTE?UART
FF2A8EH   FF2A96H   000009H   BYTE   INSEG    CODE           ?PR?MOTOR_INIT?MOTOR
FF2A97H   FF2A9BH   000005H   BYTE   INSEG    CODE           ?PR?MOTORR_FORWARD?MOTOR
FF2A9CH   FF2AA0H   000005H   BYTE   INSEG    CODE           ?PR?MOTORL_REVERSE?MOTOR
FF2AA1H   FF2AA5H   000005H   BYTE   INSEG    CODE           ?PR?MOTORR_REVERSE?MOTOR
FF2AA6H   FF2AA9H   000004H   BYTE   UNIT     CONST          ?CO?PRINTF
FF2AAAH   FF2B96H   0000EDH   BYTE   UNIT     HCONST         ?C_INITEDATA
FF2B97H   FF2C71H   0000DBH   BYTE   UNIT     HCONST         ?HC?MEUN
FF2C72H   FF2CA8H   000037H   BYTE   UNIT     HCONST         ?HC?MAIN
FF2CA9H   FF2CCCH   000024H   BYTE   UNIT     HCONST         ?C_INITHDATA
FF2CCDH   FF2CE2H   000016H   BYTE   UNIT     HCONST         ?HC?OLED



OVERLAY MAP OF MODULE:   LED (main)


FUNCTION/MODULE                   EDATA_GROUP  IDATA_GROUP
--> CALLED FUNCTION/MODULE        START  STOP  START  STOP
==========================================================
timer1/main                       ----- -----  ----- -----

*** NEW ROOT ********************

?C_C51STARTUP?1                   ----- -----  ----- -----

*** NEW ROOT ********************

Uart1_Isr/Uart                    ----- -----  ----- -----

*** NEW ROOT ********************

?C_C51STARTUP                     ----- -----  ----- -----

*** NEW ROOT ********************

?C_C51STARTUP?3                   ----- -----  ----- -----
  +--> main/main

main/main                         ----- -----  ----- -----
  +--> GPIO_init/GPIO
  +--> OLED_Init/oled
  +--> OLED_ColorTurn/oled
L251 LINKER/LOCATER V4.66.93.0                                                        08/01/2023  00:54:48  PAGE 5


  +--> OLED_DisplayTurn/oled
  +--> OLED_Clear/oled
  +--> Timer1Init/timer
  +--> UartInit/Uart
  +--> InitMPU6050/MPU6050
  +--> Motor_Init/motor
  +--> Motor_control/main
  +--> Disp_refresh/main
  +--> MPU6050_Read/main
  +--> Key_Proc/main

GPIO_init/GPIO                    ----- -----  ----- -----

OLED_Init/oled                    ----- -----  ----- -----
  +--> delay_ms/oled
  +--> OLED_WR_Byte/oled
  +--> OLED_Clear/oled

delay_ms/oled                     ----- -----  ----- -----

OLED_WR_Byte/oled                 ----- -----  ----- -----

OLED_Clear/oled                   ----- -----  ----- -----
  +--> OLED_WR_Byte/oled

OLED_ColorTurn/oled               ----- -----  ----- -----
  +--> OLED_WR_Byte/oled

OLED_DisplayTurn/oled             ----- -----  ----- -----
  +--> OLED_WR_Byte/oled

Timer1Init/timer                  ----- -----  ----- -----

UartInit/Uart                     ----- -----  ----- -----

InitMPU6050/MPU6050               ----- -----  ----- -----
  +--> Delay2us/MPU6050
  +--> Single_WriteI2C/MPU6050
  +--> Delay50ms/MPU6050

Delay2us/MPU6050                  ----- -----  ----- -----

Single_WriteI2C/MPU6050           ----- -----  ----- -----
  +--> I2C_Start/MPU6050
  +--> I2C_SendByte/MPU6050
  +--> I2C_Stop/MPU6050

I2C_Start/MPU6050                 ----- -----  ----- -----
  +--> Delay2us/MPU6050

I2C_SendByte/MPU6050              ----- -----  ----- -----
  +--> Delay2us/MPU6050
  +--> I2C_RecvACK/MPU6050

I2C_RecvACK/MPU6050               ----- -----  ----- -----
  +--> Delay2us/MPU6050

I2C_Stop/MPU6050                  ----- -----  ----- -----
  +--> Delay2us/MPU6050

Delay50ms/MPU6050                 ----- -----  ----- -----

Motor_Init/motor                  ----- -----  ----- -----
  +--> PWMA_Config/pwm
  +--> MotorL_Forward/motor
L251 LINKER/LOCATER V4.66.93.0                                                        08/01/2023  00:54:48  PAGE 6


  +--> MotorR_Forward/motor

PWMA_Config/pwm                   ----- -----  ----- -----

MotorL_Forward/motor              ----- -----  ----- -----

MotorR_Forward/motor              ----- -----  ----- -----

Motor_control/main                ----- -----  ----- -----
  +--> ReadLine/LineFollower
  +--> Update_duty/pwm

ReadLine/LineFollower             ----- -----  ----- -----

Update_duty/pwm                   ----- -----  ----- -----
  +--> MotorR_Reverse/motor
  +--> MotorR_Forward/motor
  +--> MotorL_Reverse/motor
  +--> MotorL_Forward/motor

MotorR_Reverse/motor              ----- -----  ----- -----

MotorL_Reverse/motor              ----- -----  ----- -----

Disp_refresh/main                 ----- -----  ----- -----
  +--> SPRINTF/SPRINTF
  +--> OLED_16x16/oled
  +--> OLED_Display_string_5x7/oled

SPRINTF/SPRINTF                   00D3H 00FAH  ----- -----
  +--> OUT/SPRINTF

OUT/SPRINTF                       ----- -----  ----- -----
  +--> PUTCH/SPRINTF

PUTCH/SPRINTF                     ----- -----  ----- -----

OLED_16x16/oled                   00D3H 0108H  ----- -----
  +--> OLED_get_data_from_ROM/oled
  +--> OLED_Display_16x16/oled
  +--> OLED_Display_8x16/oled

OLED_get_data_from_ROM/oled       0109H 010DH  ----- -----
  +--> Send_Command_to_ROM/oled
  +--> Get_data_from_ROM/oled

Send_Command_to_ROM/oled          ----- -----  ----- -----

Get_data_from_ROM/oled            ----- -----  ----- -----

OLED_Display_16x16/oled           0109H 010CH  ----- -----
  +--> OLED_address/oled
  +--> OLED_WR_Byte/oled

OLED_address/oled                 ----- -----  ----- -----
  +--> OLED_WR_Byte/oled

OLED_Display_8x16/oled            0109H 010CH  ----- -----
  +--> OLED_address/oled
  +--> OLED_WR_Byte/oled

OLED_Display_string_5x7/oled      00D3H 00E0H  ----- -----
  +--> OLED_get_data_from_ROM/oled
  +--> OLED_Display_5x7/oled

L251 LINKER/LOCATER V4.66.93.0                                                        08/01/2023  00:54:48  PAGE 7


OLED_Display_5x7/oled             00E1H 00E1H  ----- -----
  +--> OLED_address/oled
  +--> OLED_WR_Byte/oled

MPU6050_Read/main                 ----- -----  ----- -----
  +--> Read_MPU6050/MPU6050
  +--> IMUupdate/main

Read_MPU6050/MPU6050              00D3H 00D3H  ----- -----
  +--> I2C_Start/MPU6050
  +--> I2C_SendByte/MPU6050
  +--> I2C_RecvByte/MPU6050
  +--> Delay2us/MPU6050
  +--> I2C_Stop/MPU6050

I2C_RecvByte/MPU6050              ----- -----  ----- -----
  +--> Delay2us/MPU6050

IMUupdate/main                    00D3H 00E6H  0014H 0017H
  +--> atan2?_/atan2

atan2?_/atan2                     ----- -----  ----- -----

Key_Proc/main                     ----- -----  ----- -----
  +--> Key_Rvalue/key

Key_Rvalue/key                    ----- -----  ----- -----

*** NEW ROOT ********************

?C_C51STARTUP?2                   ----- -----  ----- -----



PUBLIC SYMBOLS OF MODULE:  LED (main)


      VALUE       CLASS    TYPE      PUBLIC SYMBOL NAME
      =================================================
      0000011CH   EDATA    BYTE      ?ADC_Read?BYTE
      00FF0250H   CODE     NEAR LAB  ?C?CASTF
      000000FFH   NUMBER   ---       ?C?CODESEG
      00FF021DH   CODE     NEAR LAB  ?C?FCASTC
      00FF0218H   CODE     NEAR LAB  ?C?FCASTI
      00FF0213H   CODE     NEAR LAB  ?C?FCASTL
      00FF0A2BH   CODE     ---       ?C?FP2SERIES
      00FF002CH   CODE     ---       ?C?FPADD
      00FF03B0H   CODE     ---       ?C?FPCMP
      00FF03AEH   CODE     ---       ?C?FPCMP3
      00FF0930H   CODE     ---       ?C?FPCONVERT
      00FF0184H   CODE     ---       ?C?FPDIV
      00FF035DH   CODE     ---       ?C?FPGETOPN2
      00FF00E4H   CODE     ---       ?C?FPMUL
      00FF039AH   CODE     ---       ?C?FPNANRESULT
      00FF0205H   CODE     ---       ?C?FPNEG
      00FF03A2H   CODE     ---       ?C?FPOVERFLOW
      00FF0376H   CODE     ---       ?C?FPRESULT
      00FF038CH   CODE     ---       ?C?FPRESULT2
      00FF09E8H   CODE     ---       ?C?FPROUND
      00FF0A34H   CODE     ---       ?C?FPSERIES
      00FF0029H   CODE     ---       ?C?FPSUB
      00FF039FH   CODE     ---       ?C?FPUNDERFLOW
      00FF0A88H   CODE     ---       ?C?FTNPWR
      00FF20E6H   CODE     ---       ?C?INITEDATA
      00FF2B95H   HCONST   WORD      ?C?INITEDATA_END
L251 LINKER/LOCATER V4.66.93.0                                                        08/01/2023  00:54:48  PAGE 8


      00FF210FH   CODE     ---       ?C?INITHDATA
      00FF2CCBH   HCONST   WORD      ?C?INITHDATA_END
      00FF0ABFH   CODE     ---       ?C?LIMUL
      00FF0421H   CODE     ---       ?C?PRNFMT
      00FF0000H   CODE     ---       ?C?STARTUP
      00FF0ACAH   CODE     NEAR LAB  ?C?ULDIV
      00FF0AC8H   CODE     NEAR LAB  ?C?ULIDIV
      00000001H   NUMBER   ---       ?C?XDATASEG
      00FF0000H   CODE     ---       ?C_STARTUP
      00000020H.5 BIT      BIT       ?IIC_SendAck?BIT
      000000CFH   EDATA    BYTE      ?IMUupdate?BYTE
      000000FBH   EDATA    ---       ?sprintf?BYTE
      00010008H   XDATA    FLOAT     a_x
      00000083H   EDATA    FLOAT     a_y
      000000BAH   EDATA    INT       Acc_x
      000000BCH   EDATA    INT       Acc_y
      000000BEH   EDATA    INT       Acc_z
*SFR* 000000BCH   DATA     BYTE      ADC_CONTR
*SFR* 000000BCH.5 DATA     BIT       ADC_FLAG
      00FF2989H   CODE     ---       ADC_Init
*SFR* 000000BCH.7 DATA     BIT       ADC_POWER
      00FF27C7H   CODE     ---       ADC_Read
      00FF2836H   CODE     ---       ADC_Readchannel_1
      00FF2857H   CODE     ---       ADC_Readchannel_2
      00FF28D7H   CODE     ---       ADC_Readchannel_3
*SFR* 000000BDH   DATA     BYTE      ADC_RES
*SFR* 000000BEH   DATA     BYTE      ADC_RESL
*SFR* 000000BCH.6 DATA     BIT       ADC_START
*SFR* 000000DEH   DATA     BYTE      ADCCFG
      00FF2143H   CODE     ---       add
      00000020H.2 BIT      BIT       add_lose
      00000110H   EDATA    ---       adjust
      00010000H   XDATA    FLOAT     Angle_ax
      0000005AH   EDATA    FLOAT     Angle_ay
      00000060H   EDATA    FLOAT     Angle_az
      00010004H   XDATA    FLOAT     Angle_gx
      00000066H   EDATA    FLOAT     Angle_gy
      0000007EH   EDATA    FLOAT     Angle_gz
      0000004BH   EDATA    WORD      Angle_of_pitch
      00000008H   DATA     FLOAT     AngleX
      0000009BH   EDATA    FLOAT     AngleY
      0000009FH   EDATA    FLOAT     AngleZ
      00000020H.1 BIT      BIT       arrow_Value
      00FF033DH   CODE     ---       asin?_
      00FF253FH   CODE     ---       atan2?_
      00FF0850H   CODE     ---       ATAN?_
*SFR* 000000EFH   DATA     BYTE      AUXINTIF
*SFR* 0000008EH   DATA     BYTE      AUXR
*SFR* 00000097H   DATA     BYTE      AUXR2
      00FF1E9DH   CODE     ---       Cancel_determine
*SFR* 000000F1H   DATA     BYTE      CANICR
*SFR* 000000EAH   DATA     BYTE      CKCON
*SFR* 000000E6H   DATA     BYTE      CMPCR1
*SFR* 000000E7H   DATA     BYTE      CMPCR2
      0000011AH   EDATA    BYTE      Confirm_exit
*SFR* 000000D0H.7 DATA     BIT       CY
      00FF2A2FH   CODE     ---       delay
      00FF2A67H   CODE     ---       Delay2us
      00FF2878H   CODE     ---       Delay50ms
      0000012CH   EDATA    WORD      delay_cnt
      00FF2944H   CODE     ---       delay_ms
*SFR* 00000080H.7 DATA     BIT       det_C
*SFR* 00000080H.5 DATA     BIT       det_CL
*SFR* 000000C8H.3 DATA     BIT       det_CR
*SFR* 00000080H.6 DATA     BIT       det_L
L251 LINKER/LOCATER V4.66.93.0                                                        08/01/2023  00:54:48  PAGE 9


*SFR* 000000C8H.2 DATA     BIT       det_R
      0000005EH   EDATA    WORD      disp_delay
      00FF1929H   CODE     ---       Disp_refresh
      00000120H   EDATA    INT       dutyL
      00000122H   EDATA    INT       dutyR
*SFR* 000000A8H.7 DATA     BIT       EA
*SFR* 000000BAH.7 DATA     BIT       EAXFR
*SFR* 000000B0H.2 DATA     BIT       EC11_A
*SFR* 000000B0H.3 DATA     BIT       EC11_B
*SFR* 000000B0H.4 DATA     BIT       EC11_K
      000000CBH   EDATA    INT       err_kd
      00000021H   EDATA    INT       err_ki
      00000024H   EDATA    INT       err_kp
*SFR* 000000A8H.4 DATA     BIT       ES
*SFR* 000000A8H.3 DATA     BIT       ET1
      0000000CH   IDATA    FLOAT     exInt
      00000026H   EDATA    FLOAT     eyInt
      0000002AH   EDATA    FLOAT     ezInt
      00000020H.4 BIT      BIT       falling_Down
      0000011CH   EDATA    DWORD     fontaddr
      0001000CH   XDATA    INT       g_x
      00000097H   EDATA    INT       g_y
      00000099H   EDATA    INT       g_z
      00FF0003H   CODE     ---       Get_data_from_ROM
      00FF25BFH   CODE     ---       GPIO_init
      000000C2H   EDATA    INT       Gyro_angle_x
      000000C4H   EDATA    INT       Gyro_angle_y
      000000C6H   EDATA    INT       Gyro_angle_z
      000000CDH   EDATA    INT       Gyro_x
      000000B4H   EDATA    INT       Gyro_x_
      000000CFH   EDATA    INT       Gyro_y
      000000B6H   EDATA    INT       Gyro_y_
      000000D1H   EDATA    INT       Gyro_z
      000000B8H   EDATA    INT       Gyro_z_
      00FF2696H   CODE     ---       Hall_element
      00FF29B6H   CODE     ---       I2C_RecvACK
      00FF27EDH   CODE     ---       I2C_RecvByte
      00FF2813H   CODE     ---       I2C_SendByte
      00FF292AH   CODE     ---       I2C_Start
      00FF2A3EH   CODE     ---       I2C_Stop
*SFR* 000000C7H   DATA     BYTE      IAP_CONTR
*SFR* 000000A8H   DATA     BYTE      IE
*SFR* 000000AFH   DATA     BYTE      IE2
      00FF2A5BH   CODE     ---       IIC_Delay
      00FF27A1H   CODE     ---       IIC_RecByte
      00FF2972H   CODE     ---       IIC_SendAck
      00FF26C5H   CODE     ---       IIC_SendByte
      00FF2A1EH   CODE     ---       IIC_Start
      00FF2A4DH   CODE     ---       IIC_Stop
      00FF2A0BH   CODE     ---       IIC_WaitAck
      00FF0B1BH   CODE     ---       IMUupdate
      00FF2584H   CODE     ---       InitMPU6050
*SFR* 0000008FH   DATA     BYTE      INTCLKO
*SFR* 000000B8H   DATA     BYTE      IP
*SFR* 000000B5H   DATA     BYTE      IP2
*SFR* 000000B6H   DATA     BYTE      IP2H
*SFR* 000000DFH   DATA     BYTE      IP3
*SFR* 000000EEH   DATA     BYTE      IP3H
*SFR* 000000B7H   DATA     BYTE      IPH
*SFR* 0000009DH   DATA     BYTE      IRCBAND
      00000095H   EDATA    WORD      key_delay
      000000A3H   EDATA    BYTE      key_Down
      00FF2A7CH   CODE     ---       Key_Init
      000000C8H   EDATA    BYTE      key_old
      00FF204CH   CODE     ---       Key_Proc
L251 LINKER/LOCATER V4.66.93.0                                                        08/01/2023  00:54:48  PAGE 10


      00FF2667H   CODE     ---       Key_Rvalue
      000000A4H   EDATA    BYTE      key_value
*SFR* 000000E8H.4 DATA     BIT       LED
      00000082H   EDATA    CHAR      line_inaccuracy
*SFR* 000000F9H   DATA     BYTE      LINICR
      00000020H.3 BIT      BIT       long_short
      00FF21BCH   CODE     ---       lose
      00FF240DH   CODE     ---       main
      00FF1185H   CODE     ---       Main_Meun
      00FF1AC5H   CODE     ---       Memu
      00FF1CC0H   CODE     ---       Meun_2_angle
      00FF1C21H   CODE     ---       Meun_2_control
      00FF1DFEH   CODE     ---       Meun_2_Pitching
      00FF1D5FH   CODE     ---       Meun_2_speed
*SFR* 00000080H.1 DATA     BIT       MOTOR_AIN1
*SFR* 00000080H.2 DATA     BIT       MOTOR_AIN2
*SFR* 00000080H.3 DATA     BIT       MOTOR_BIN1
*SFR* 00000080H.4 DATA     BIT       MOTOR_BIN2
      00FF176EH   CODE     ---       Motor_control
      00000064H   EDATA    WORD      motor_delay
      00FF2899H   CODE     ---       Motor_FRcontrol
      00FF2A8EH   CODE     ---       Motor_Init
      00000023H   EDATA    BYTE      motor_sw
      00FF001EH   CODE     ---       MotorL_Forward
      00FF2A9CH   CODE     ---       MotorL_Reverse
      00FF2A97H   CODE     ---       MotorR_Forward
      00FF2AA1H   CODE     ---       MotorR_Reverse
      00000087H   EDATA    ---       MPU6050_DATA
      00000047H   EDATA    WORD      mpu6050_delay
      00FF14C5H   CODE     ---       MPU6050_Read
      000000A5H   EDATA    CHAR      old_line_inaccuracy
      0000004DH   EDATA    CHAR      old_position
      00FF0F5CH   CODE     ---       OLED_16x16
      00FF2776H   CODE     ---       OLED_address
      00FF2630H   CODE     ---       OLED_Clear
      00FF25F9H   CODE     ---       OLED_Clear_0_2
      00FF28B9H   CODE     ---       OLED_ColorTurn
*SFR* 00000090H.6 DATA     BIT       OLED_CS
*SFR* 00000090H.5 DATA     BIT       OLED_DC
      00FF24F9H   CODE     ---       OLED_Display_128x64
      00FF2361H   CODE     ---       OLED_Display_16x16
      00FF271FH   CODE     ---       OLED_Display_5x7
      00FF23B7H   CODE     ---       OLED_Display_8x16
      00FF29CCH   CODE     ---       OLED_DisPlay_Off
      00FF29E1H   CODE     ---       OLED_DisPlay_On
      00FF1B78H   CODE     ---       OLED_Display_string_5x7
      00FF26F3H   CODE     ---       OLED_DisplayTurn
      00FF2306H   CODE     ---       OLED_get_data_from_ROM
      00FF1A02H   CODE     ---       OLED_Init
*SFR* 00000090H.7 DATA     BIT       OLED_READ_FS0
*SFR* 00000090H.3 DATA     BIT       OLED_ROM_CS
*SFR* 000000C0H.7 DATA     BIT       OLED_SCL
*SFR* 00000090H.4 DATA     BIT       OLED_SDA
      00FF1631H   CODE     ---       OLED_ShowNum
      0000002EH   EDATA    ---       oled_showtext
      00FF274BH   CODE     ---       OLED_WR_Byte
*SFR* 00000080H   DATA     BYTE      P0
*SFR* 00000094H   DATA     BYTE      P0M0
*SFR* 00000093H   DATA     BYTE      P0M1
*SFR* 00000090H   DATA     BYTE      P1
*SFR* 00000092H   DATA     BYTE      P1M0
*SFR* 00000091H   DATA     BYTE      P1M1
*SFR* 000000A0H   DATA     BYTE      P2
*SFR* 000000A0H.4 DATA     BIT       P24
*SFR* 00000096H   DATA     BYTE      P2M0
L251 LINKER/LOCATER V4.66.93.0                                                        08/01/2023  00:54:48  PAGE 11


*SFR* 00000095H   DATA     BYTE      P2M1
*SFR* 000000B0H   DATA     BYTE      P3
*SFR* 000000B2H   DATA     BYTE      P3M0
*SFR* 000000B1H   DATA     BYTE      P3M1
*SFR* 000000C0H   DATA     BYTE      P4
*SFR* 000000C0H.2 DATA     BIT       P42
*SFR* 000000C0H.4 DATA     BIT       P44
*SFR* 000000B4H   DATA     BYTE      P4M0
*SFR* 000000B3H   DATA     BYTE      P4M1
*SFR* 000000C8H   DATA     BYTE      P5
*SFR* 000000FFH.4 DATA     BIT       P54RST
*SFR* 000000CAH   DATA     BYTE      P5M0
*SFR* 000000C9H   DATA     BYTE      P5M1
*SFR* 000000E8H   DATA     BYTE      P6
*SFR* 000000CCH   DATA     BYTE      P6M0
*SFR* 000000CBH   DATA     BYTE      P6M1
*SFR* 000000F8H   DATA     BYTE      P7
*SFR* 000000F8H.3 DATA     BIT       P73
*SFR* 000000E2H   DATA     BYTE      P7M0
*SFR* 000000E1H   DATA     BYTE      P7M1
*SFR* 000000A2H   DATA     BYTE      P_SW1
*SFR* 000000BAH   DATA     BYTE      P_SW2
*SFR* 000000BBH   DATA     BYTE      P_SW3
      0000012AH   EDATA    INT       page_table
      0000011BH   EDATA    BYTE      part2_count
      00000119H   EDATA    BYTE      part_count
*SFR* 00000087H   DATA     BYTE      PCON
      000000A6H   EDATA    ---       positionPID
*SFR* 000000D0H   DATA     BYTE      PSW
      00FF1F2FH   CODE     ---       PWMA_Config
      00000010H   IDATA    FLOAT     q0
      0000004EH   EDATA    FLOAT     q1
      00000052H   EDATA    FLOAT     q2
      00000056H   EDATA    FLOAT     q3
      00FF2235H   CODE     ---       Read_MPU6050
      0000012EH   EDATA    BYTE      read_value
      00FF184FH   CODE     ---       ReadLine
*SFR* 00000098H.0 DATA     BIT       RI
      00000020H.0 BIT      BIT       rising_edge
      000000C0H   EDATA    WORD      Roll_Angle
      00FF24AEH   CODE     ---       rotary_encoder
*SFR* 000000FFH   DATA     BYTE      RSTCFG
*SFR* 000000A2H.6 DATA     BIT       S1_S0
*SFR* 000000A2H.7 DATA     BIT       S1_S1
*SFR* 0000009AH   DATA     BYTE      S2CON
*SFR* 000000ACH   DATA     BYTE      S3CON
*SFR* 000000FDH   DATA     BYTE      S4CON
      0000010EH   EDATA    WORD      s_count
*SFR* 00000099H   DATA     BYTE      SBUF
*SFR* 00000098H   DATA     BYTE      SCON
      00FF1350H   CODE     ---       Second_menu_value
      00FF290FH   CODE     ---       Send_Command_to_ROM
      00FF2BE2H   HCONST   ---       set
      00FF28F3H   CODE     ---       Single_WriteI2C
*SFR* 000000CEH   DATA     BYTE      SPCTL
      00000115H   EDATA    ---       spin
      00FF028DH   CODE     NEAR LAB  sprintf
*SFR* 000000CDH   DATA     BYTE      SPSTAT
      00FF02ADH   CODE     ---       sqrt?_
      000000C9H   EDATA    WORD      sys_led
*SFR* 000000D6H   DATA     BYTE      T2H
*SFR* 000000D7H   DATA     BYTE      T2L
*SFR* 000000DDH   DATA     BYTE      T4T3M
*SFR* 00000088H   DATA     BYTE      TCON
      00000049H   EDATA    INT       Temp
L251 LINKER/LOCATER V4.66.93.0                                                        08/01/2023  00:54:48  PAGE 12


*SFR* 00000088H.7 DATA     BIT       TF1
*SFR* 0000008DH   DATA     BYTE      TH1
*SFR* 00000098H.1 DATA     BIT       TI
      00FF1FC0H   CODE     ---       timer1
      00FF29F6H   CODE     ---       Timer1Init
*SFR* 0000008BH   DATA     BYTE      TL1
*SFR* 00000089H   DATA     BYTE      TMOD
*SFR* 00000088H.6 DATA     BIT       TR1
      0000006AH   EDATA    ---       txbuf
      00FF2A72H   CODE     ---       Uart1_Isr
      00FF2A85H   CODE     ---       Uart_sendbyte
      00FF29A0H   CODE     ---       Uart_String
      00FF295BH   CODE     ---       UartInit
      00FF245FH   CODE     ---       up_key_detection
      00FF22A3H   CODE     ---       Update_duty
*SFR* 000000F4H   DATA     BYTE      USBCON
*SFR* 000000C1H   DATA     BYTE      WDT_CONTR
*SFR* 000000E9H   DATA     BYTE      WTST



IGNORED SYMBOLS:
   SCL
   SDA



SYMBOL TABLE OF MODULE:  LED (main)

      VALUE       REP       CLASS    TYPE      SYMBOL NAME
      ====================================================
      ---         MODULE    ---      ---       main
      00FF14C5H   PUBLIC    CODE     ---       MPU6050_Read
      00FF204CH   PUBLIC    CODE     ---       Key_Proc
      00FF240DH   PUBLIC    CODE     ---       main
      00FF1FC0H   PUBLIC    CODE     ---       timer1
      00FF1929H   PUBLIC    CODE     ---       Disp_refresh
      00FF0B1BH   PUBLIC    CODE     ---       IMUupdate
      00FF176EH   PUBLIC    CODE     ---       Motor_control
      00000021H   PUBLIC    EDATA    INT       err_ki
      00000023H   PUBLIC    EDATA    BYTE      motor_sw
      00000024H   PUBLIC    EDATA    INT       err_kp
      00000026H   PUBLIC    EDATA    FLOAT     eyInt
      0000002AH   PUBLIC    EDATA    FLOAT     ezInt
      0000002EH   PUBLIC    EDATA    ---       oled_showtext
      00000047H   PUBLIC    EDATA    WORD      mpu6050_delay
      00000049H   PUBLIC    EDATA    INT       Temp
      0000004BH   PUBLIC    EDATA    WORD      Angle_of_pitch
      0000004DH   PUBLIC    EDATA    CHAR      old_position
      0000004EH   PUBLIC    EDATA    FLOAT     q1
      00000052H   PUBLIC    EDATA    FLOAT     q2
      00000056H   PUBLIC    EDATA    FLOAT     q3
      0000005AH   PUBLIC    EDATA    FLOAT     Angle_ay
      0000005EH   PUBLIC    EDATA    WORD      disp_delay
      00000060H   PUBLIC    EDATA    FLOAT     Angle_az
      00000064H   PUBLIC    EDATA    WORD      motor_delay
      00000066H   PUBLIC    EDATA    FLOAT     Angle_gy
      0000006AH   PUBLIC    EDATA    ---       txbuf
      0000007EH   PUBLIC    EDATA    FLOAT     Angle_gz
      00000082H   PUBLIC    EDATA    CHAR      line_inaccuracy
      00000083H   PUBLIC    EDATA    FLOAT     a_y
      00000087H   PUBLIC    EDATA    ---       MPU6050_DATA
      00000095H   PUBLIC    EDATA    WORD      key_delay
      00000097H   PUBLIC    EDATA    INT       g_y
      00000099H   PUBLIC    EDATA    INT       g_z
L251 LINKER/LOCATER V4.66.93.0                                                        08/01/2023  00:54:48  PAGE 13


      0000009BH   PUBLIC    EDATA    FLOAT     AngleY
      0000009FH   PUBLIC    EDATA    FLOAT     AngleZ
      000000A3H   PUBLIC    EDATA    BYTE      key_Down
      000000A4H   PUBLIC    EDATA    BYTE      key_value
      000000A5H   PUBLIC    EDATA    CHAR      old_line_inaccuracy
      000000A6H   PUBLIC    EDATA    ---       positionPID
      000000B4H   PUBLIC    EDATA    INT       Gyro_x_
      000000B6H   PUBLIC    EDATA    INT       Gyro_y_
      000000B8H   PUBLIC    EDATA    INT       Gyro_z_
      000000BAH   PUBLIC    EDATA    INT       Acc_x
      000000BCH   PUBLIC    EDATA    INT       Acc_y
      000000BEH   PUBLIC    EDATA    INT       Acc_z
      000000C0H   PUBLIC    EDATA    WORD      Roll_Angle
      000000C2H   PUBLIC    EDATA    INT       Gyro_angle_x
      000000C4H   PUBLIC    EDATA    INT       Gyro_angle_y
      000000C6H   PUBLIC    EDATA    INT       Gyro_angle_z
      000000C8H   PUBLIC    EDATA    BYTE      key_old
      000000C9H   PUBLIC    EDATA    WORD      sys_led
      000000CBH   PUBLIC    EDATA    INT       err_kd
      000000CDH   PUBLIC    EDATA    INT       Gyro_x
      000000CFH   PUBLIC    EDATA    INT       Gyro_y
      000000D1H   PUBLIC    EDATA    INT       Gyro_z
      0000000CH   PUBLIC    IDATA    FLOAT     exInt
      00000010H   PUBLIC    IDATA    FLOAT     q0
      00010000H   PUBLIC    XDATA    FLOAT     Angle_ax
      00010004H   PUBLIC    XDATA    FLOAT     Angle_gx
      00010008H   PUBLIC    XDATA    FLOAT     a_x
      0001000CH   PUBLIC    XDATA    INT       g_x
      00000008H   PUBLIC    DATA     FLOAT     AngleX
      000000CFH   PUBLIC    EDATA    BYTE      ?IMUupdate?BYTE
      000000D0H   SFRSYM    DATA     BYTE      PSW
      0000009DH   SFRSYM    DATA     BYTE      IRCBAND
      00000097H   SFRSYM    DATA     BYTE      AUXR2
      000000EFH   SFRSYM    DATA     BYTE      AUXINTIF
      000000A2H.7 SFRSYM    DATA     BIT       S1_S1
      000000FDH   SFRSYM    DATA     BYTE      S4CON
      000000A2H.6 SFRSYM    DATA     BIT       S1_S0
      000000ACH   SFRSYM    DATA     BYTE      S3CON
      0000009AH   SFRSYM    DATA     BYTE      S2CON
      000000B7H   SFRSYM    DATA     BYTE      IPH
      000000CDH   SFRSYM    DATA     BYTE      SPSTAT
      000000DDH   SFRSYM    DATA     BYTE      T4T3M
      000000C1H   SFRSYM    DATA     BYTE      WDT_CONTR
      000000E8H.4 SFRSYM    DATA     BIT       LED
      000000DFH   SFRSYM    DATA     BYTE      IP3
      000000F4H   SFRSYM    DATA     BYTE      USBCON
      000000B5H   SFRSYM    DATA     BYTE      IP2
      000000FFH   SFRSYM    DATA     BYTE      RSTCFG
      000000C7H   SFRSYM    DATA     BYTE      IAP_CONTR
      000000F9H   SFRSYM    DATA     BYTE      LINICR
      0000008EH   SFRSYM    DATA     BYTE      AUXR
      000000AFH   SFRSYM    DATA     BYTE      IE2
      00000088H   SFRSYM    DATA     BYTE      TCON
      00000089H   SFRSYM    DATA     BYTE      TMOD
      00000098H   SFRSYM    DATA     BYTE      SCON
      000000FFH.4 SFRSYM    DATA     BIT       P54RST
      000000F1H   SFRSYM    DATA     BYTE      CANICR
      00000087H   SFRSYM    DATA     BYTE      PCON
      000000BCH   SFRSYM    DATA     BYTE      ADC_CONTR
      000000E7H   SFRSYM    DATA     BYTE      CMPCR2
      000000E6H   SFRSYM    DATA     BYTE      CMPCR1
      000000DEH   SFRSYM    DATA     BYTE      ADCCFG
      000000B8H   SFRSYM    DATA     BYTE      IP
      0000008FH   SFRSYM    DATA     BYTE      INTCLKO
      000000EEH   SFRSYM    DATA     BYTE      IP3H
L251 LINKER/LOCATER V4.66.93.0                                                        08/01/2023  00:54:48  PAGE 14


      000000B6H   SFRSYM    DATA     BYTE      IP2H
      000000A8H   SFRSYM    DATA     BYTE      IE
      000000BBH   SFRSYM    DATA     BYTE      P_SW3
      000000BAH   SFRSYM    DATA     BYTE      P_SW2
      000000A2H   SFRSYM    DATA     BYTE      P_SW1
      000000CEH   SFRSYM    DATA     BYTE      SPCTL
      000000F8H   SFRSYM    DATA     BYTE      P7
      000000E8H   SFRSYM    DATA     BYTE      P6
      000000C8H   SFRSYM    DATA     BYTE      P5
      000000C0H   SFRSYM    DATA     BYTE      P4
      000000B0H   SFRSYM    DATA     BYTE      P3
      000000A0H   SFRSYM    DATA     BYTE      P2
      00000090H   SFRSYM    DATA     BYTE      P1
      00000080H   SFRSYM    DATA     BYTE      P0

      00FF240DH   BLOCK     CODE     ---       LVL=0
      00FF240DH   LINE      CODE     ---       #96
      00FF240DH   LINE      CODE     ---       #98
      00FF2410H   LINE      CODE     ---       #99
      00FF2413H   LINE      CODE     ---       #100
      00FF2417H   LINE      CODE     ---       #101
      00FF241BH   LINE      CODE     ---       #102
      00FF241EH   LINE      CODE     ---       #104
      00FF2421H   LINE      CODE     ---       #106
      00FF2424H   LINE      CODE     ---       #107
      00FF2427H   LINE      CODE     ---       #108
      00FF242AH   LINE      CODE     ---       #110
      00FF242DH   LINE      CODE     ---       #112
      00FF2430H   LINE      CODE     ---       #114
      00FF2433H   LINE      CODE     ---       #117
      00FF243BH   LINE      CODE     ---       #118
      00FF2445H   LINE      CODE     ---       #119
      00FF244BH   LINE      CODE     ---       #120
      00FF244FH   LINE      CODE     ---       #122
      00FF2451H   LINE      CODE     ---       #124
      00FF2451H   LINE      CODE     ---       #126
      00FF2454H   LINE      CODE     ---       #127
      00FF2457H   LINE      CODE     ---       #128
      00FF245AH   LINE      CODE     ---       #129
      00FF245DH   LINE      CODE     ---       #132
      ---         BLOCKEND  ---      ---       LVL=0

      00FF1FC0H   BLOCK     CODE     ---       LVL=0
      00FF1FC0H   LINE      CODE     ---       #135
      00FF1FC4H   LINE      CODE     ---       #137
      00FF1FDAH   LINE      CODE     ---       #138
      00FF1FF0H   LINE      CODE     ---       #139
      00FF2006H   LINE      CODE     ---       #140
      00FF201CH   LINE      CODE     ---       #142
      00FF202CH   LINE      CODE     ---       #144
      00FF2031H   LINE      CODE     ---       #145
      00FF2037H   LINE      CODE     ---       #146
      00FF2037H   LINE      CODE     ---       #148
      00FF2041H   LINE      CODE     ---       #149
      00FF2047H   LINE      CODE     ---       #151
      ---         BLOCKEND  ---      ---       LVL=0

      00FF204CH   BLOCK     CODE     ---       LVL=0
      00FF204CH   LINE      CODE     ---       #154
      00FF204CH   LINE      CODE     ---       #156
      00FF2054H   LINE      CODE     ---       #157
      00FF205CH   LINE      CODE     ---       #159
      00FF2063H   LINE      CODE     ---       #160
      00FF2071H   LINE      CODE     ---       #161
      00FF2075H   LINE      CODE     ---       #163
L251 LINKER/LOCATER V4.66.93.0                                                        08/01/2023  00:54:48  PAGE 15


      00FF2087H   LINE      CODE     ---       #165
      00FF2087H   LINE      CODE     ---       #166
      00FF2094H   LINE      CODE     ---       #167
      00FF2096H   LINE      CODE     ---       #168
      00FF2096H   LINE      CODE     ---       #169
      00FF20A7H   LINE      CODE     ---       #170
      00FF20A8H   LINE      CODE     ---       #171
      00FF20A8H   LINE      CODE     ---       #172
      00FF20B5H   LINE      CODE     ---       #173
      00FF20B7H   LINE      CODE     ---       #174
      00FF20B7H   LINE      CODE     ---       #175
      00FF20C8H   LINE      CODE     ---       #176
      00FF20C8H   LINE      CODE     ---       #177
      00FF20C8H   LINE      CODE     ---       #178
      ---         BLOCKEND  ---      ---       LVL=0

      00FF1929H   BLOCK     CODE     ---       LVL=0
      00FF1929H   LINE      CODE     ---       #181
      00FF1929H   LINE      CODE     ---       #183
      00FF1934H   LINE      CODE     ---       #184
      00FF193CH   LINE      CODE     ---       #186
      00FF1955H   LINE      CODE     ---       #187
      00FF195FH   LINE      CODE     ---       #189
      00FF197EH   LINE      CODE     ---       #190
      00FF1989H   LINE      CODE     ---       #192
      00FF19A0H   LINE      CODE     ---       #193
      00FF19ABH   LINE      CODE     ---       #198
      00FF19C5H   LINE      CODE     ---       #199
      00FF19D0H   LINE      CODE     ---       #201
      00FF19F5H   LINE      CODE     ---       #202
      00FF1A01H   LINE      CODE     ---       #208
      ---         BLOCKEND  ---      ---       LVL=0

      00FF14C5H   BLOCK     CODE     ---       LVL=0
      00FF14C5H   LINE      CODE     ---       #212
      00FF14C7H   LINE      CODE     ---       #214
      00FF14D2H   LINE      CODE     ---       #215
      00FF14DAH   LINE      CODE     ---       #217
      00FF14E1H   LINE      CODE     ---       #218
      00FF14F1H   LINE      CODE     ---       #219
      00FF1501H   LINE      CODE     ---       #220
      00FF1511H   LINE      CODE     ---       #222
      00FF152BH   LINE      CODE     ---       #224
      00FF153DH   LINE      CODE     ---       #225
      00FF154DH   LINE      CODE     ---       #226
      00FF155DH   LINE      CODE     ---       #241
      00FF1579H   LINE      CODE     ---       #242
      00FF1589H   LINE      CODE     ---       #243
      00FF1599H   LINE      CODE     ---       #245
      00FF15B3H   LINE      CODE     ---       #246
      00FF15C5H   LINE      CODE     ---       #247
      00FF15D5H   LINE      CODE     ---       #249
      00FF1619H   LINE      CODE     ---       #251
      00FF1623H   LINE      CODE     ---       #252
      00FF162EH   LINE      CODE     ---       #287
      ---         BLOCKEND  ---      ---       LVL=0

      00FF0B1BH   BLOCK     CODE     ---       LVL=0
      000000D3H   SYMBOL    EDATA    FLOAT     gx
      DR12        REGSYM    ---      FLOAT     gy
      000000D7H   SYMBOL    EDATA    FLOAT     gz
      000000DBH   SYMBOL    EDATA    FLOAT     ax
      000000DFH   SYMBOL    EDATA    FLOAT     ay
      000000E3H   SYMBOL    EDATA    FLOAT     az
      00FF0B23H   BLOCK     CODE     NEAR LAB  LVL=1
L251 LINKER/LOCATER V4.66.93.0                                                        08/01/2023  00:54:48  PAGE 16


      DR28        REGSYM    ---      FLOAT     norm
      00000014H   SYMBOL    IDATA    FLOAT     vx
      DR24        REGSYM    ---      FLOAT     vy
      DR28        REGSYM    ---      FLOAT     vz
      DR16        REGSYM    ---      FLOAT     ex
      DR20        REGSYM    ---      FLOAT     ey
      DR24        REGSYM    ---      FLOAT     ez
      ---         BLOCKEND  ---      ---       LVL=1
      00FF0B1BH   LINE      CODE     ---       #289
      00FF0B23H   LINE      CODE     ---       #290
      00FF0B23H   LINE      CODE     ---       #295
      00FF0B51H   LINE      CODE     ---       #296
      00FF0B5EH   LINE      CODE     ---       #297
      00FF0B6BH   LINE      CODE     ---       #298
      00FF0B78H   LINE      CODE     ---       #304
      00FF0BB1H   LINE      CODE     ---       #305
      00FF0BD3H   LINE      CODE     ---       #306
      00FF0C10H   LINE      CODE     ---       #308
      00FF0C2BH   LINE      CODE     ---       #309
      00FF0C4FH   LINE      CODE     ---       #310
      00FF0C73H   LINE      CODE     ---       #312
      00FF0C8DH   LINE      CODE     ---       #313
      00FF0C9FH   LINE      CODE     ---       #314
      00FF0CB1H   LINE      CODE     ---       #316
      00FF0CD2H   LINE      CODE     ---       #317
      00FF0CE7H   LINE      CODE     ---       #318
      00FF0D00H   LINE      CODE     ---       #320
      00FF0D50H   LINE      CODE     ---       #321
      00FF0D8BH   LINE      CODE     ---       #322
      00FF0DC0H   LINE      CODE     ---       #323
      00FF0DFDH   LINE      CODE     ---       #325
      00FF0E3DH   LINE      CODE     ---       #326
      00FF0E4AH   LINE      CODE     ---       #327
      00FF0E57H   LINE      CODE     ---       #328
      00FF0E64H   LINE      CODE     ---       #329
      00FF0E71H   LINE      CODE     ---       #331
      00FF0EA8H   LINE      CODE     ---       #332
      00FF0EE0H   LINE      CODE     ---       #333
      00FF0F59H   LINE      CODE     ---       #334
      ---         BLOCKEND  ---      ---       LVL=0

      00FF176EH   BLOCK     CODE     ---       LVL=0
      00FF176EH   LINE      CODE     ---       #338
      00FF176EH   LINE      CODE     ---       #340
      00FF1779H   LINE      CODE     ---       #341
      00FF1781H   LINE      CODE     ---       #343
      00FF1788H   LINE      CODE     ---       #345
      00FF1796H   LINE      CODE     ---       #347
      00FF179DH   LINE      CODE     ---       #348
      00FF17A4H   LINE      CODE     ---       #349
      00FF17ABH   LINE      CODE     ---       #350
      00FF17B3H   LINE      CODE     ---       #351
      00FF17B5H   LINE      CODE     ---       #354
      00FF17BBH   LINE      CODE     ---       #355
      00FF17C3H   LINE      CODE     ---       #356
      00FF17C3H   LINE      CODE     ---       #358
      00FF17DCH   LINE      CODE     ---       #359
      00FF17ECH   LINE      CODE     ---       #360
      00FF1803H   LINE      CODE     ---       #362
      00FF1809H   LINE      CODE     ---       #364
      00FF1819H   LINE      CODE     ---       #365
      00FF1829H   LINE      CODE     ---       #366
      00FF182BH   LINE      CODE     ---       #369
      00FF1833H   LINE      CODE     ---       #370
      00FF183BH   LINE      CODE     ---       #374
L251 LINKER/LOCATER V4.66.93.0                                                        08/01/2023  00:54:48  PAGE 17


      00FF1846H   LINE      CODE     ---       #378
      00FF184EH   LINE      CODE     ---       #381
      ---         BLOCKEND  ---      ---       LVL=0

      ---         MODULE    ---      ---       oled
      00FF0003H   PUBLIC    CODE     ---       Get_data_from_ROM
      00FF2361H   PUBLIC    CODE     ---       OLED_Display_16x16
      00FF26F3H   PUBLIC    CODE     ---       OLED_DisplayTurn
      00FF25F9H   PUBLIC    CODE     ---       OLED_Clear_0_2
      00FF1A02H   PUBLIC    CODE     ---       OLED_Init
      00FF1B78H   PUBLIC    CODE     ---       OLED_Display_string_5x7
      00FF271FH   PUBLIC    CODE     ---       OLED_Display_5x7
      00FF274BH   PUBLIC    CODE     ---       OLED_WR_Byte
      00FF2306H   PUBLIC    CODE     ---       OLED_get_data_from_ROM
      00FF28B9H   PUBLIC    CODE     ---       OLED_ColorTurn
      00FF29CCH   PUBLIC    CODE     ---       OLED_DisPlay_Off
      00FF24F9H   PUBLIC    CODE     ---       OLED_Display_128x64
      00FF290FH   PUBLIC    CODE     ---       Send_Command_to_ROM
      00FF0F5CH   PUBLIC    CODE     ---       OLED_16x16
      00FF2944H   PUBLIC    CODE     ---       delay_ms
      00FF23B7H   PUBLIC    CODE     ---       OLED_Display_8x16
      00FF1631H   PUBLIC    CODE     ---       OLED_ShowNum
      00FF29E1H   PUBLIC    CODE     ---       OLED_DisPlay_On
      00FF2630H   PUBLIC    CODE     ---       OLED_Clear
      00FF2776H   PUBLIC    CODE     ---       OLED_address
      0000011CH   PUBLIC    EDATA    DWORD     fontaddr
      000000D0H   SFRSYM    DATA     BYTE      PSW
      0000009DH   SFRSYM    DATA     BYTE      IRCBAND
      00000097H   SFRSYM    DATA     BYTE      AUXR2
      000000EFH   SFRSYM    DATA     BYTE      AUXINTIF
      00000090H.3 SFRSYM    DATA     BIT       OLED_ROM_CS
      000000FDH   SFRSYM    DATA     BYTE      S4CON
      000000C0H.7 SFRSYM    DATA     BIT       OLED_SCL
      000000ACH   SFRSYM    DATA     BYTE      S3CON
      0000009AH   SFRSYM    DATA     BYTE      S2CON
      000000B7H   SFRSYM    DATA     BYTE      IPH
      000000CDH   SFRSYM    DATA     BYTE      SPSTAT
      00000090H.4 SFRSYM    DATA     BIT       OLED_SDA
      000000DDH   SFRSYM    DATA     BYTE      T4T3M
      000000C1H   SFRSYM    DATA     BYTE      WDT_CONTR
      00000090H.7 SFRSYM    DATA     BIT       OLED_READ_FS0
      000000DFH   SFRSYM    DATA     BYTE      IP3
      000000F4H   SFRSYM    DATA     BYTE      USBCON
      000000B5H   SFRSYM    DATA     BYTE      IP2
      000000FFH   SFRSYM    DATA     BYTE      RSTCFG
      000000C7H   SFRSYM    DATA     BYTE      IAP_CONTR
      000000F9H   SFRSYM    DATA     BYTE      LINICR
      0000008EH   SFRSYM    DATA     BYTE      AUXR
      000000AFH   SFRSYM    DATA     BYTE      IE2
      00000088H   SFRSYM    DATA     BYTE      TCON
      00000089H   SFRSYM    DATA     BYTE      TMOD
      00000098H   SFRSYM    DATA     BYTE      SCON
      000000F1H   SFRSYM    DATA     BYTE      CANICR
      00000087H   SFRSYM    DATA     BYTE      PCON
      000000BCH   SFRSYM    DATA     BYTE      ADC_CONTR
      000000E7H   SFRSYM    DATA     BYTE      CMPCR2
      000000E6H   SFRSYM    DATA     BYTE      CMPCR1
      00000090H.6 SFRSYM    DATA     BIT       OLED_CS
      000000DEH   SFRSYM    DATA     BYTE      ADCCFG
      000000B8H   SFRSYM    DATA     BYTE      IP
      0000008FH   SFRSYM    DATA     BYTE      INTCLKO
      000000EEH   SFRSYM    DATA     BYTE      IP3H
      000000B6H   SFRSYM    DATA     BYTE      IP2H
      000000A8H   SFRSYM    DATA     BYTE      IE
      000000BBH   SFRSYM    DATA     BYTE      P_SW3
L251 LINKER/LOCATER V4.66.93.0                                                        08/01/2023  00:54:48  PAGE 18


      000000BAH   SFRSYM    DATA     BYTE      P_SW2
      00000090H.5 SFRSYM    DATA     BIT       OLED_DC
      000000A2H   SFRSYM    DATA     BYTE      P_SW1
      000000CEH   SFRSYM    DATA     BYTE      SPCTL
      000000F8H   SFRSYM    DATA     BYTE      P7
      000000E8H   SFRSYM    DATA     BYTE      P6
      000000C8H   SFRSYM    DATA     BYTE      P5
      000000C0H   SFRSYM    DATA     BYTE      P4
      000000B0H   SFRSYM    DATA     BYTE      P3
      000000A0H   SFRSYM    DATA     BYTE      P2
      00000090H   SFRSYM    DATA     BYTE      P1
      00000080H   SFRSYM    DATA     BYTE      P0

      00FF2944H   BLOCK     CODE     ---       LVL=0
      WR2         REGSYM    ---      WORD      ms
      00FF2946H   BLOCK     CODE     NEAR LAB  LVL=1
      WR0         REGSYM    ---      WORD      a
      ---         BLOCKEND  ---      ---       LVL=1
      00FF2944H   LINE      CODE     ---       #3
      00FF2946H   LINE      CODE     ---       #4
      00FF2946H   LINE      CODE     ---       #6
      00FF2948H   LINE      CODE     ---       #8
      00FF294CH   LINE      CODE     ---       #9
      00FF2954H   LINE      CODE     ---       #10
      00FF2956H   LINE      CODE     ---       #11
      00FF295AH   LINE      CODE     ---       #12
      00FF295AH   LINE      CODE     ---       #13
      ---         BLOCKEND  ---      ---       LVL=0

      00FF28B9H   BLOCK     CODE     ---       LVL=0
      R15         REGSYM    ---      BYTE      i
      00FF28B9H   LINE      CODE     ---       #16
      00FF28BDH   LINE      CODE     ---       #18
      00FF28C1H   LINE      CODE     ---       #20
      00FF28C8H   LINE      CODE     ---       #21
      00FF28C8H   LINE      CODE     ---       #22
      00FF28CDH   LINE      CODE     ---       #24
      00FF28D4H   LINE      CODE     ---       #25
      ---         BLOCKEND  ---      ---       LVL=0

      00FF26F3H   BLOCK     CODE     ---       LVL=0
      R15         REGSYM    ---      BYTE      i
      00FF26F3H   LINE      CODE     ---       #29
      00FF26F7H   LINE      CODE     ---       #31
      00FF26FBH   LINE      CODE     ---       #33
      00FF2702H   LINE      CODE     ---       #34
      00FF2709H   LINE      CODE     ---       #35
      00FF2709H   LINE      CODE     ---       #36
      00FF270EH   LINE      CODE     ---       #38
      00FF2715H   LINE      CODE     ---       #39
      00FF271CH   LINE      CODE     ---       #40
      ---         BLOCKEND  ---      ---       LVL=0

      00FF29E1H   BLOCK     CODE     ---       LVL=0
      00FF29E1H   LINE      CODE     ---       #44
      00FF29E1H   LINE      CODE     ---       #46
      00FF29E8H   LINE      CODE     ---       #47
      00FF29EFH   LINE      CODE     ---       #48
      ---         BLOCKEND  ---      ---       LVL=0

      00FF29CCH   BLOCK     CODE     ---       LVL=0
      00FF29CCH   LINE      CODE     ---       #52
      00FF29CCH   LINE      CODE     ---       #54
      00FF29D3H   LINE      CODE     ---       #55
      00FF29DAH   LINE      CODE     ---       #56
L251 LINKER/LOCATER V4.66.93.0                                                        08/01/2023  00:54:48  PAGE 19


      ---         BLOCKEND  ---      ---       LVL=0

      00FF274BH   BLOCK     CODE     ---       LVL=0
      R6          REGSYM    ---      BYTE      dat
      R7          REGSYM    ---      BYTE      cmd
      00FF274DH   BLOCK     CODE     NEAR LAB  LVL=1
      R7          REGSYM    ---      BYTE      i
      ---         BLOCKEND  ---      ---       LVL=1
      00FF274BH   LINE      CODE     ---       #62
      00FF274DH   LINE      CODE     ---       #63
      00FF274DH   LINE      CODE     ---       #65
      00FF2751H   LINE      CODE     ---       #67
      00FF2753H   LINE      CODE     ---       #68
      00FF2755H   LINE      CODE     ---       #71
      00FF2757H   LINE      CODE     ---       #72
      00FF2757H   LINE      CODE     ---       #73
      00FF2759H   LINE      CODE     ---       #74
      00FF275CH   LINE      CODE     ---       #76
      00FF275EH   LINE      CODE     ---       #77
      00FF2763H   LINE      CODE     ---       #79
      00FF2765H   LINE      CODE     ---       #80
      00FF2767H   LINE      CODE     ---       #83
      00FF2769H   LINE      CODE     ---       #84
      00FF2769H   LINE      CODE     ---       #85
      00FF276BH   LINE      CODE     ---       #86
      00FF276DH   LINE      CODE     ---       #87
      00FF2771H   LINE      CODE     ---       #88
      00FF2773H   LINE      CODE     ---       #89
      00FF2775H   LINE      CODE     ---       #90
      ---         BLOCKEND  ---      ---       LVL=0

      00FF2630H   BLOCK     CODE     ---       LVL=0
      00FF2632H   BLOCK     CODE     NEAR LAB  LVL=1
      R15         REGSYM    ---      BYTE      i
      R14         REGSYM    ---      BYTE      n
      ---         BLOCKEND  ---      ---       LVL=1
      00FF2630H   LINE      CODE     ---       #93
      00FF2632H   LINE      CODE     ---       #94
      00FF2632H   LINE      CODE     ---       #96
      00FF2634H   LINE      CODE     ---       #98
      00FF263FH   LINE      CODE     ---       #99
      00FF2646H   LINE      CODE     ---       #100
      00FF264DH   LINE      CODE     ---       #101
      00FF264FH   LINE      CODE     ---       #103
      00FF2656H   LINE      CODE     ---       #104
      00FF265DH   LINE      CODE     ---       #105
      00FF2664H   LINE      CODE     ---       #106
      ---         BLOCKEND  ---      ---       LVL=0

      00FF25F9H   BLOCK     CODE     ---       LVL=0
      00FF25FBH   BLOCK     CODE     NEAR LAB  LVL=1
      R14         REGSYM    ---      BYTE      i
      R15         REGSYM    ---      BYTE      n
      ---         BLOCKEND  ---      ---       LVL=1
      00FF25F9H   LINE      CODE     ---       #108
      00FF25FBH   LINE      CODE     ---       #109
      00FF25FBH   LINE      CODE     ---       #110
      00FF25FBH   LINE      CODE     ---       #111
      00FF25FDH   LINE      CODE     ---       #112
      00FF2608H   LINE      CODE     ---       #113
      00FF260FH   LINE      CODE     ---       #114
      00FF2616H   LINE      CODE     ---       #115
      00FF2618H   LINE      CODE     ---       #116
      00FF261FH   LINE      CODE     ---       #117
      00FF2626H   LINE      CODE     ---       #118
L251 LINKER/LOCATER V4.66.93.0                                                        08/01/2023  00:54:48  PAGE 20


      00FF262DH   LINE      CODE     ---       #119
      ---         BLOCKEND  ---      ---       LVL=0

      00FF2776H   BLOCK     CODE     ---       LVL=0
      R15         REGSYM    ---      BYTE      x
      R10         REGSYM    ---      BYTE      y
      00FF2776H   LINE      CODE     ---       #121
      00FF277AH   LINE      CODE     ---       #123
      00FF277CH   LINE      CODE     ---       #124
      00FF2787H   LINE      CODE     ---       #125
      00FF2795H   LINE      CODE     ---       #126
      00FF279EH   LINE      CODE     ---       #127
      ---         BLOCKEND  ---      ---       LVL=0

      00FF24F9H   BLOCK     CODE     ---       LVL=0
      REG=3       REGSYM    ---      ---       dp
      00FF24FDH   BLOCK     CODE     NEAR LAB  LVL=1
      00000128H   SYMBOL    EDATA    BYTE      i
      00000129H   SYMBOL    EDATA    BYTE      j
      ---         BLOCKEND  ---      ---       LVL=1
      00FF24F9H   LINE      CODE     ---       #130
      00FF24FDH   LINE      CODE     ---       #131
      00FF24FDH   LINE      CODE     ---       #132
      00FF2502H   LINE      CODE     ---       #133
      00FF2506H   LINE      CODE     ---       #135
      00FF250EH   LINE      CODE     ---       #136
      00FF2513H   LINE      CODE     ---       #138
      00FF251CH   LINE      CODE     ---       #139
      00FF251EH   LINE      CODE     ---       #140
      00FF252AH   LINE      CODE     ---       #141
      00FF253CH   LINE      CODE     ---       #142
      ---         BLOCKEND  ---      ---       LVL=0

      00FF2361H   BLOCK     CODE     ---       LVL=0
      00000109H   SYMBOL    EDATA    BYTE      x
      0000010AH   SYMBOL    EDATA    BYTE      y
      REG=3       REGSYM    ---      ---       dp
      00FF236DH   BLOCK     CODE     NEAR LAB  LVL=1
      0000010BH   SYMBOL    EDATA    BYTE      i
      0000010CH   SYMBOL    EDATA    BYTE      j
      ---         BLOCKEND  ---      ---       LVL=1
      00FF2361H   LINE      CODE     ---       #145
      00FF236DH   LINE      CODE     ---       #146
      00FF236DH   LINE      CODE     ---       #148
      00FF2372H   LINE      CODE     ---       #150
      00FF237DH   LINE      CODE     ---       #151
      00FF2382H   LINE      CODE     ---       #153
      00FF238BH   LINE      CODE     ---       #154
      00FF238DH   LINE      CODE     ---       #155
      00FF2399H   LINE      CODE     ---       #156
      00FF23A2H   LINE      CODE     ---       #157
      00FF23B4H   LINE      CODE     ---       #158
      ---         BLOCKEND  ---      ---       LVL=0

      00FF23B7H   BLOCK     CODE     ---       LVL=0
      00000109H   SYMBOL    EDATA    BYTE      x
      0000010AH   SYMBOL    EDATA    BYTE      y
      REG=3       REGSYM    ---      ---       dp
      00FF23C3H   BLOCK     CODE     NEAR LAB  LVL=1
      0000010BH   SYMBOL    EDATA    BYTE      i
      0000010CH   SYMBOL    EDATA    BYTE      j
      ---         BLOCKEND  ---      ---       LVL=1
      00FF23B7H   LINE      CODE     ---       #161
      00FF23C3H   LINE      CODE     ---       #162
      00FF23C3H   LINE      CODE     ---       #164
L251 LINKER/LOCATER V4.66.93.0                                                        08/01/2023  00:54:48  PAGE 21


      00FF23C8H   LINE      CODE     ---       #166
      00FF23D3H   LINE      CODE     ---       #167
      00FF23D8H   LINE      CODE     ---       #169
      00FF23E1H   LINE      CODE     ---       #170
      00FF23E3H   LINE      CODE     ---       #171
      00FF23EFH   LINE      CODE     ---       #172
      00FF23F8H   LINE      CODE     ---       #173
      00FF240AH   LINE      CODE     ---       #174
      ---         BLOCKEND  ---      ---       LVL=0

      00FF271FH   BLOCK     CODE     ---       LVL=0
      R11         REGSYM    ---      BYTE      x
      R10         REGSYM    ---      BYTE      y
      REG=3       REGSYM    ---      ---       dp
      00FF2723H   BLOCK     CODE     NEAR LAB  LVL=1
      000000E1H   SYMBOL    EDATA    BYTE      i
      ---         BLOCKEND  ---      ---       LVL=1
      00FF271FH   LINE      CODE     ---       #177
      00FF2723H   LINE      CODE     ---       #178
      00FF2723H   LINE      CODE     ---       #180
      00FF2726H   LINE      CODE     ---       #181
      00FF272BH   LINE      CODE     ---       #183
      00FF2734H   LINE      CODE     ---       #184
      00FF2736H   LINE      CODE     ---       #185
      00FF2748H   LINE      CODE     ---       #186
      ---         BLOCKEND  ---      ---       LVL=0

      00FF290FH   BLOCK     CODE     ---       LVL=0
      R6          REGSYM    ---      BYTE      dat
      00FF2911H   BLOCK     CODE     NEAR LAB  LVL=1
      R7          REGSYM    ---      BYTE      i
      ---         BLOCKEND  ---      ---       LVL=1
      00FF290FH   LINE      CODE     ---       #189
      00FF2911H   LINE      CODE     ---       #190
      00FF2911H   LINE      CODE     ---       #192
      00FF2914H   LINE      CODE     ---       #194
      00FF2916H   LINE      CODE     ---       #195
      00FF291BH   LINE      CODE     ---       #197
      00FF291DH   LINE      CODE     ---       #198
      00FF291FH   LINE      CODE     ---       #201
      00FF2921H   LINE      CODE     ---       #202
      00FF2921H   LINE      CODE     ---       #203
      00FF2923H   LINE      CODE     ---       #204
      00FF2925H   LINE      CODE     ---       #205
      00FF2929H   LINE      CODE     ---       #206
      ---         BLOCKEND  ---      ---       LVL=0

      00FF0003H   BLOCK     CODE     ---       LVL=0
      R7          REGSYM    ---      BYTE      i
      R10         REGSYM    ---      BYTE      read
      00FF0003H   LINE      CODE     ---       #209
      00FF0003H   LINE      CODE     ---       #210
      00FF0003H   LINE      CODE     ---       #211
      00FF0005H   LINE      CODE     ---       #212
      00FF0008H   LINE      CODE     ---       #214
      00FF000AH   LINE      CODE     ---       #215
      00FF000CH   LINE      CODE     ---       #216
      00FF000FH   LINE      CODE     ---       #218
      00FF0011H   LINE      CODE     ---       #219
      00FF0011H   LINE      CODE     ---       #220
      00FF0013H   LINE      CODE     ---       #221
      00FF0017H   LINE      CODE     ---       #222
      00FF0019H   LINE      CODE     ---       #223
      ---         BLOCKEND  ---      ---       LVL=0

L251 LINKER/LOCATER V4.66.93.0                                                        08/01/2023  00:54:48  PAGE 22


      00FF2306H   BLOCK     CODE     ---       LVL=0
      00000109H   SYMBOL    EDATA    BYTE      addrHigh
      0000010AH   SYMBOL    EDATA    BYTE      addrMid
      0000010BH   SYMBOL    EDATA    BYTE      addrLow
      REG=3       REGSYM    ---      ---       pbuff
      0000010CH   SYMBOL    EDATA    BYTE      DataLen
      00FF231AH   BLOCK     CODE     NEAR LAB  LVL=1
      0000010DH   SYMBOL    EDATA    BYTE      i
      ---         BLOCKEND  ---      ---       LVL=1
      00FF2306H   LINE      CODE     ---       #228
      00FF231AH   LINE      CODE     ---       #229
      00FF231AH   LINE      CODE     ---       #231
      00FF231CH   LINE      CODE     ---       #232
      00FF2321H   LINE      CODE     ---       #233
      00FF2328H   LINE      CODE     ---       #234
      00FF232FH   LINE      CODE     ---       #235
      00FF2336H   LINE      CODE     ---       #236
      00FF2339H   LINE      CODE     ---       #238
      00FF2349H   LINE      CODE     ---       #239
      00FF235CH   LINE      CODE     ---       #240
      00FF235EH   LINE      CODE     ---       #241
      ---         BLOCKEND  ---      ---       LVL=0

      00FF0F5CH   BLOCK     CODE     ---       LVL=0
      000000D3H   SYMBOL    EDATA    BYTE      x
      000000D4H   SYMBOL    EDATA    BYTE      y
      REG=3       REGSYM    ---      ---       text
      00FF0F68H   BLOCK     CODE     NEAR LAB  LVL=1
      000000D5H   SYMBOL    EDATA    BYTE      i
      000000D6H   SYMBOL    EDATA    BYTE      addrHigh
      000000D7H   SYMBOL    EDATA    BYTE      addrMid
      000000D8H   SYMBOL    EDATA    BYTE      addrLow
      000000D9H   SYMBOL    EDATA    ---       fontbuf
      00FF10F4H   BLOCK     CODE     NEAR LAB  LVL=2
      000000F9H   SYMBOL    EDATA    ---       fontbuf
      ---         BLOCKEND  ---      ---       LVL=2
      ---         BLOCKEND  ---      ---       LVL=1
      00FF0F5CH   LINE      CODE     ---       #246
      00FF0F68H   LINE      CODE     ---       #247
      00FF0F68H   LINE      CODE     ---       #248
      00FF0F69H   LINE      CODE     ---       #251
      00FF0F6CH   LINE      CODE     ---       #253
      00FF0F9CH   LINE      CODE     ---       #258
      00FF0FAFH   LINE      CODE     ---       #259
      00FF0FBDH   LINE      CODE     ---       #260
      00FF0FCCH   LINE      CODE     ---       #262
      00FF0FD6H   LINE      CODE     ---       #263
      00FF0FDCH   LINE      CODE     ---       #264
      00FF0FE2H   LINE      CODE     ---       #266
      00FF0FECH   LINE      CODE     ---       #268
      00FF0FFBH   LINE      CODE     ---       #270
      00FF1005H   LINE      CODE     ---       #271
      00FF100BH   LINE      CODE     ---       #272
      00FF100EH   LINE      CODE     ---       #273
      00FF104EH   LINE      CODE     ---       #276
      00FF106EH   LINE      CODE     ---       #277
      00FF107CH   LINE      CODE     ---       #278
      00FF108BH   LINE      CODE     ---       #280
      00FF1095H   LINE      CODE     ---       #281
      00FF109BH   LINE      CODE     ---       #282
      00FF10A1H   LINE      CODE     ---       #284
      00FF10ABH   LINE      CODE     ---       #285
      00FF10BAH   LINE      CODE     ---       #286
      00FF10C4H   LINE      CODE     ---       #287
      00FF10CAH   LINE      CODE     ---       #288
L251 LINKER/LOCATER V4.66.93.0                                                        08/01/2023  00:54:48  PAGE 23


      00FF10CDH   LINE      CODE     ---       #289
      00FF10F4H   LINE      CODE     ---       #290
      00FF10F4H   LINE      CODE     ---       #292
      00FF110DH   LINE      CODE     ---       #293
      00FF1118H   LINE      CODE     ---       #294
      00FF1124H   LINE      CODE     ---       #296
      00FF112EH   LINE      CODE     ---       #297
      00FF1134H   LINE      CODE     ---       #298
      00FF113AH   LINE      CODE     ---       #300
      00FF1144H   LINE      CODE     ---       #301
      00FF1153H   LINE      CODE     ---       #302
      00FF115DH   LINE      CODE     ---       #303
      00FF1162H   LINE      CODE     ---       #304
      00FF1164H   LINE      CODE     ---       #306
      00FF116DH   LINE      CODE     ---       #307
      00FF1182H   LINE      CODE     ---       #308
      ---         BLOCKEND  ---      ---       LVL=0

      00FF1B78H   BLOCK     CODE     ---       LVL=0
      000000D3H   SYMBOL    EDATA    BYTE      x
      000000D4H   SYMBOL    EDATA    BYTE      y
      REG=3       REGSYM    ---      ---       text
      00FF1B84H   BLOCK     CODE     NEAR LAB  LVL=1
      000000D5H   SYMBOL    EDATA    BYTE      i
      000000D6H   SYMBOL    EDATA    BYTE      addrHigh
      000000D7H   SYMBOL    EDATA    BYTE      addrMid
      000000D8H   SYMBOL    EDATA    BYTE      addrLow
      00FF1B9EH   BLOCK     CODE     NEAR LAB  LVL=2
      000000D9H   SYMBOL    EDATA    ---       fontbuf
      ---         BLOCKEND  ---      ---       LVL=2
      ---         BLOCKEND  ---      ---       LVL=1
      00FF1B78H   LINE      CODE     ---       #310
      00FF1B84H   LINE      CODE     ---       #311
      00FF1B84H   LINE      CODE     ---       #312
      00FF1B85H   LINE      CODE     ---       #314
      00FF1B87H   LINE      CODE     ---       #316
      00FF1B9EH   LINE      CODE     ---       #317
      00FF1B9EH   LINE      CODE     ---       #319
      00FF1BAAH   LINE      CODE     ---       #320
      00FF1BB4H   LINE      CODE     ---       #321
      00FF1BC0H   LINE      CODE     ---       #323
      00FF1BCAH   LINE      CODE     ---       #324
      00FF1BD0H   LINE      CODE     ---       #325
      00FF1BD6H   LINE      CODE     ---       #327
      00FF1BE0H   LINE      CODE     ---       #328
      00FF1BEFH   LINE      CODE     ---       #329
      00FF1BF9H   LINE      CODE     ---       #330
      00FF1BFEH   LINE      CODE     ---       #331
      00FF1C00H   LINE      CODE     ---       #333
      00FF1C09H   LINE      CODE     ---       #334
      00FF1C1EH   LINE      CODE     ---       #335
      ---         BLOCKEND  ---      ---       LVL=0

      00FF1631H   BLOCK     CODE     ---       LVL=0
      R15         REGSYM    ---      BYTE      x
      R14         REGSYM    ---      BYTE      y
      DR28        REGSYM    ---      FLOAT     num1
      R13         REGSYM    ---      BYTE      len
      00FF163BH   BLOCK     CODE     NEAR LAB  LVL=1
      R12         REGSYM    ---      BYTE      i
      00000018H   SYMBOL    EDATA    DWORD     t
      0000001CH   SYMBOL    EDATA    DWORD     num
      ---         BLOCKEND  ---      ---       LVL=1
      00FF1631H   LINE      CODE     ---       #341
      00FF163BH   LINE      CODE     ---       #342
L251 LINKER/LOCATER V4.66.93.0                                                        08/01/2023  00:54:48  PAGE 24


      00FF163BH   LINE      CODE     ---       #343
      00FF163BH   LINE      CODE     ---       #344
      00FF1641H   LINE      CODE     ---       #345
      00FF164FH   LINE      CODE     ---       #346
      00FF1661H   LINE      CODE     ---       #347
      00FF1674H   LINE      CODE     ---       #348
      00FF1679H   LINE      CODE     ---       #350
      00FF168CH   LINE      CODE     ---       #351
      00FF1697H   LINE      CODE     ---       #352
      00FF169AH   LINE      CODE     ---       #353
      00FF16A2H   LINE      CODE     ---       #354
      00FF16D5H   LINE      CODE     ---       #356
      00FF16E3H   LINE      CODE     ---       #357
      00FF16F1H   LINE      CODE     ---       #358
      00FF16FFH   LINE      CODE     ---       #359
      00FF170DH   LINE      CODE     ---       #360
      00FF171BH   LINE      CODE     ---       #361
      00FF1729H   LINE      CODE     ---       #362
      00FF1737H   LINE      CODE     ---       #363
      00FF1745H   LINE      CODE     ---       #364
      00FF1753H   LINE      CODE     ---       #365
      00FF1762H   LINE      CODE     ---       #366
      00FF1762H   LINE      CODE     ---       #367
      00FF176BH   LINE      CODE     ---       #368
      ---         BLOCKEND  ---      ---       LVL=0

      00FF1A02H   BLOCK     CODE     ---       LVL=0
      00FF1A02H   LINE      CODE     ---       #371
      00FF1A02H   LINE      CODE     ---       #374
      00FF1A04H   LINE      CODE     ---       #375
      00FF1A06H   LINE      CODE     ---       #376
      00FF1A0DH   LINE      CODE     ---       #377
      00FF1A14H   LINE      CODE     ---       #378
      00FF1A1BH   LINE      CODE     ---       #379
      00FF1A22H   LINE      CODE     ---       #380
      00FF1A29H   LINE      CODE     ---       #381
      00FF1A30H   LINE      CODE     ---       #382
      00FF1A37H   LINE      CODE     ---       #383
      00FF1A3EH   LINE      CODE     ---       #384
      00FF1A45H   LINE      CODE     ---       #385
      00FF1A4CH   LINE      CODE     ---       #386
      00FF1A53H   LINE      CODE     ---       #387
      00FF1A5AH   LINE      CODE     ---       #388
      00FF1A61H   LINE      CODE     ---       #389
      00FF1A68H   LINE      CODE     ---       #390
      00FF1A6FH   LINE      CODE     ---       #391
      00FF1A76H   LINE      CODE     ---       #392
      00FF1A7DH   LINE      CODE     ---       #393
      00FF1A83H   LINE      CODE     ---       #394
      00FF1A8AH   LINE      CODE     ---       #395
      00FF1A91H   LINE      CODE     ---       #396
      00FF1A98H   LINE      CODE     ---       #397
      00FF1A9FH   LINE      CODE     ---       #398
      00FF1AA6H   LINE      CODE     ---       #399
      00FF1AADH   LINE      CODE     ---       #400
      00FF1AB4H   LINE      CODE     ---       #401
      00FF1ABBH   LINE      CODE     ---       #402
      00FF1ABEH   LINE      CODE     ---       #403
      ---         BLOCKEND  ---      ---       LVL=0

      ---         MODULE    ---      ---       Meun
      00FF2BE2H   PUBLIC    HCONST   ---       set
      00FF1185H   PUBLIC    CODE     ---       Main_Meun
      00FF1C21H   PUBLIC    CODE     ---       Meun_2_control
      00FF1CC0H   PUBLIC    CODE     ---       Meun_2_angle
L251 LINKER/LOCATER V4.66.93.0                                                        08/01/2023  00:54:48  PAGE 25


      00FF1AC5H   PUBLIC    CODE     ---       Memu
      00FF1D5FH   PUBLIC    CODE     ---       Meun_2_speed
      00FF1DFEH   PUBLIC    CODE     ---       Meun_2_Pitching
      0000012AH   PUBLIC    EDATA    INT       page_table
      000000D0H   SFRSYM    DATA     BYTE      PSW
      0000009DH   SFRSYM    DATA     BYTE      IRCBAND
      00000097H   SFRSYM    DATA     BYTE      AUXR2
      000000EFH   SFRSYM    DATA     BYTE      AUXINTIF
      000000FDH   SFRSYM    DATA     BYTE      S4CON
      000000ACH   SFRSYM    DATA     BYTE      S3CON
      0000009AH   SFRSYM    DATA     BYTE      S2CON
      000000B7H   SFRSYM    DATA     BYTE      IPH
      000000CDH   SFRSYM    DATA     BYTE      SPSTAT
      000000DDH   SFRSYM    DATA     BYTE      T4T3M
      000000C1H   SFRSYM    DATA     BYTE      WDT_CONTR
      000000DFH   SFRSYM    DATA     BYTE      IP3
      000000F4H   SFRSYM    DATA     BYTE      USBCON
      000000B5H   SFRSYM    DATA     BYTE      IP2
      000000FFH   SFRSYM    DATA     BYTE      RSTCFG
      000000C7H   SFRSYM    DATA     BYTE      IAP_CONTR
      000000F9H   SFRSYM    DATA     BYTE      LINICR
      0000008EH   SFRSYM    DATA     BYTE      AUXR
      000000AFH   SFRSYM    DATA     BYTE      IE2
      00000088H   SFRSYM    DATA     BYTE      TCON
      00000089H   SFRSYM    DATA     BYTE      TMOD
      00000098H   SFRSYM    DATA     BYTE      SCON
      000000F1H   SFRSYM    DATA     BYTE      CANICR
      00000087H   SFRSYM    DATA     BYTE      PCON
      000000BCH   SFRSYM    DATA     BYTE      ADC_CONTR
      000000E7H   SFRSYM    DATA     BYTE      CMPCR2
      000000E6H   SFRSYM    DATA     BYTE      CMPCR1
      000000DEH   SFRSYM    DATA     BYTE      ADCCFG
      000000B8H   SFRSYM    DATA     BYTE      IP
      0000008FH   SFRSYM    DATA     BYTE      INTCLKO
      000000EEH   SFRSYM    DATA     BYTE      IP3H
      000000B6H   SFRSYM    DATA     BYTE      IP2H
      000000A8H   SFRSYM    DATA     BYTE      IE
      000000BBH   SFRSYM    DATA     BYTE      P_SW3
      000000BAH   SFRSYM    DATA     BYTE      P_SW2
      000000A2H   SFRSYM    DATA     BYTE      P_SW1
      000000CEH   SFRSYM    DATA     BYTE      SPCTL
      000000F8H   SFRSYM    DATA     BYTE      P7
      000000E8H   SFRSYM    DATA     BYTE      P6
      000000C8H   SFRSYM    DATA     BYTE      P5
      000000C0H   SFRSYM    DATA     BYTE      P4
      000000B0H   SFRSYM    DATA     BYTE      P3
      000000A0H   SFRSYM    DATA     BYTE      P2
      00000090H   SFRSYM    DATA     BYTE      P1
      00000080H   SFRSYM    DATA     BYTE      P0

      00FF1AC5H   BLOCK     CODE     ---       LVL=0
      00FF1AC5H   LINE      CODE     ---       #42
      00FF1AC9H   LINE      CODE     ---       #44
      00FF1AD6H   LINE      CODE     ---       #46
      00FF1AD6H   LINE      CODE     ---       #47
      00FF1AD9H   LINE      CODE     ---       #48
      00FF1ADCH   LINE      CODE     ---       #49
      00FF1ADCH   LINE      CODE     ---       #50
      00FF1B03H   LINE      CODE     ---       #51
      00FF1B22H   LINE      CODE     ---       #52
      00FF1B41H   LINE      CODE     ---       #53
      00FF1B63H   LINE      CODE     ---       #54
      00FF1B73H   LINE      CODE     ---       #55
      00FF1B73H   LINE      CODE     ---       #56
      00FF1B73H   LINE      CODE     ---       #57
L251 LINKER/LOCATER V4.66.93.0                                                        08/01/2023  00:54:48  PAGE 26


      ---         BLOCKEND  ---      ---       LVL=0

      00FF1185H   BLOCK     CODE     ---       LVL=0
      00FF1185H   LINE      CODE     ---       #66
      00FF1187H   LINE      CODE     ---       #68
      00FF11A0H   LINE      CODE     ---       #70
      00FF11A8H   LINE      CODE     ---       #71
      00FF11D0H   LINE      CODE     ---       #72
      00FF11F8H   LINE      CODE     ---       #73
      00FF1220H   LINE      CODE     ---       #74
      00FF123EH   LINE      CODE     ---       #75
      00FF1241H   LINE      CODE     ---       #76
      00FF1250H   LINE      CODE     ---       #78
      00FF1253H   LINE      CODE     ---       #79
      00FF1258H   LINE      CODE     ---       #80
      00FF125CH   LINE      CODE     ---       #81
      00FF125FH   LINE      CODE     ---       #82
      00FF1274H   LINE      CODE     ---       #84
      00FF129CH   LINE      CODE     ---       #85
      00FF12C4H   LINE      CODE     ---       #86
      00FF12ECH   LINE      CODE     ---       #87
      00FF1314H   LINE      CODE     ---       #88
      00FF1316H   LINE      CODE     ---       #89
      00FF1325H   LINE      CODE     ---       #91
      00FF1328H   LINE      CODE     ---       #92
      00FF132EH   LINE      CODE     ---       #93
      00FF1336H   LINE      CODE     ---       #94
      00FF1336H   LINE      CODE     ---       #95
      00FF1346H   LINE      CODE     ---       #97
      00FF134DH   LINE      CODE     ---       #98
      ---         BLOCKEND  ---      ---       LVL=0

      00FF1D5FH   BLOCK     CODE     ---       LVL=0
      00FF1D5FH   LINE      CODE     ---       #107
      00FF1D5FH   LINE      CODE     ---       #109
      00FF1D87H   LINE      CODE     ---       #110
      00FF1DAEH   LINE      CODE     ---       #111
      00FF1DD6H   LINE      CODE     ---       #112
      ---         BLOCKEND  ---      ---       LVL=0

      00FF1CC0H   BLOCK     CODE     ---       LVL=0
      00FF1CC0H   LINE      CODE     ---       #115
      00FF1CC0H   LINE      CODE     ---       #117
      00FF1CE8H   LINE      CODE     ---       #118
      00FF1D0FH   LINE      CODE     ---       #119
      00FF1D37H   LINE      CODE     ---       #120
      ---         BLOCKEND  ---      ---       LVL=0

      00FF1DFEH   BLOCK     CODE     ---       LVL=0
      00FF1DFEH   LINE      CODE     ---       #123
      00FF1DFEH   LINE      CODE     ---       #125
      00FF1E26H   LINE      CODE     ---       #126
      00FF1E4DH   LINE      CODE     ---       #127
      00FF1E75H   LINE      CODE     ---       #128
      ---         BLOCKEND  ---      ---       LVL=0

      00FF1C21H   BLOCK     CODE     ---       LVL=0
      00FF1C21H   LINE      CODE     ---       #131
      00FF1C21H   LINE      CODE     ---       #133
      00FF1C49H   LINE      CODE     ---       #134
      00FF1C70H   LINE      CODE     ---       #135
      00FF1C98H   LINE      CODE     ---       #136
      ---         BLOCKEND  ---      ---       LVL=0

      ---         MODULE    ---      ---       Encoders
L251 LINKER/LOCATER V4.66.93.0                                                        08/01/2023  00:54:48  PAGE 27


      00FF2143H   PUBLIC    CODE     ---       add
      00FF21BCH   PUBLIC    CODE     ---       lose
      00FF245FH   PUBLIC    CODE     ---       up_key_detection
      00FF24AEH   PUBLIC    CODE     ---       rotary_encoder
      00FF1E9DH   PUBLIC    CODE     ---       Cancel_determine
      00FF1350H   PUBLIC    CODE     ---       Second_menu_value
      0000010EH   PUBLIC    EDATA    WORD      s_count
      00000110H   PUBLIC    EDATA    ---       adjust
      00000115H   PUBLIC    EDATA    ---       spin
      00000119H   PUBLIC    EDATA    BYTE      part_count
      0000011AH   PUBLIC    EDATA    BYTE      Confirm_exit
      0000011BH   PUBLIC    EDATA    BYTE      part2_count
      00000020H.0 PUBLIC    BIT      BIT       rising_edge
      00000020H.1 PUBLIC    BIT      BIT       arrow_Value
      00000020H.2 PUBLIC    BIT      BIT       add_lose
      00000020H.3 PUBLIC    BIT      BIT       long_short
      00000020H.4 PUBLIC    BIT      BIT       falling_Down
      000000D0H   SFRSYM    DATA     BYTE      PSW
      0000009DH   SFRSYM    DATA     BYTE      IRCBAND
      00000097H   SFRSYM    DATA     BYTE      AUXR2
      000000EFH   SFRSYM    DATA     BYTE      AUXINTIF
      000000FDH   SFRSYM    DATA     BYTE      S4CON
      000000ACH   SFRSYM    DATA     BYTE      S3CON
      0000009AH   SFRSYM    DATA     BYTE      S2CON
      000000B7H   SFRSYM    DATA     BYTE      IPH
      000000CDH   SFRSYM    DATA     BYTE      SPSTAT
      000000DDH   SFRSYM    DATA     BYTE      T4T3M
      000000C1H   SFRSYM    DATA     BYTE      WDT_CONTR
      000000DFH   SFRSYM    DATA     BYTE      IP3
      000000F4H   SFRSYM    DATA     BYTE      USBCON
      000000B5H   SFRSYM    DATA     BYTE      IP2
      000000FFH   SFRSYM    DATA     BYTE      RSTCFG
      000000C7H   SFRSYM    DATA     BYTE      IAP_CONTR
      000000F9H   SFRSYM    DATA     BYTE      LINICR
      0000008EH   SFRSYM    DATA     BYTE      AUXR
      000000AFH   SFRSYM    DATA     BYTE      IE2
      00000088H   SFRSYM    DATA     BYTE      TCON
      00000089H   SFRSYM    DATA     BYTE      TMOD
      00000098H   SFRSYM    DATA     BYTE      SCON
      000000F1H   SFRSYM    DATA     BYTE      CANICR
      00000087H   SFRSYM    DATA     BYTE      PCON
      000000BCH   SFRSYM    DATA     BYTE      ADC_CONTR
      000000E7H   SFRSYM    DATA     BYTE      CMPCR2
      000000E6H   SFRSYM    DATA     BYTE      CMPCR1
      000000DEH   SFRSYM    DATA     BYTE      ADCCFG
      000000B8H   SFRSYM    DATA     BYTE      IP
      0000008FH   SFRSYM    DATA     BYTE      INTCLKO
      000000B0H.4 SFRSYM    DATA     BIT       EC11_K
      000000EEH   SFRSYM    DATA     BYTE      IP3H
      000000B6H   SFRSYM    DATA     BYTE      IP2H
      000000A8H   SFRSYM    DATA     BYTE      IE
      000000BBH   SFRSYM    DATA     BYTE      P_SW3
      000000BAH   SFRSYM    DATA     BYTE      P_SW2
      000000B0H.3 SFRSYM    DATA     BIT       EC11_B
      000000A2H   SFRSYM    DATA     BYTE      P_SW1
      000000B0H.2 SFRSYM    DATA     BIT       EC11_A
      000000CEH   SFRSYM    DATA     BYTE      SPCTL
      000000F8H   SFRSYM    DATA     BYTE      P7
      000000E8H   SFRSYM    DATA     BYTE      P6
      000000C8H   SFRSYM    DATA     BYTE      P5
      000000C0H   SFRSYM    DATA     BYTE      P4
      000000B0H   SFRSYM    DATA     BYTE      P3
      000000A0H   SFRSYM    DATA     BYTE      P2
      00000090H   SFRSYM    DATA     BYTE      P1
      00000080H   SFRSYM    DATA     BYTE      P0
L251 LINKER/LOCATER V4.66.93.0                                                        08/01/2023  00:54:48  PAGE 28



      00FF245FH   BLOCK     CODE     ---       LVL=0
      00FF245FH   LINE      CODE     ---       #18
      00FF2461H   LINE      CODE     ---       #20
      00FF246FH   LINE      CODE     ---       #21
      00FF2476H   LINE      CODE     ---       #23
      00FF247EH   LINE      CODE     ---       #24
      00FF2486H   LINE      CODE     ---       #25
      00FF2494H   LINE      CODE     ---       #27
      00FF2496H   LINE      CODE     ---       #28
      00FF24A4H   LINE      CODE     ---       #29
      00FF24ABH   LINE      CODE     ---       #30
      00FF24ABH   LINE      CODE     ---       #31
      00FF24ABH   LINE      CODE     ---       #32
      ---         BLOCKEND  ---      ---       LVL=0

      00FF24AEH   BLOCK     CODE     ---       LVL=0
      00FF24AEH   LINE      CODE     ---       #38
      00FF24AEH   LINE      CODE     ---       #40
      00FF24BEH   LINE      CODE     ---       #41
      00FF24C5H   LINE      CODE     ---       #43
      00FF24CDH   LINE      CODE     ---       #44
      00FF24D5H   LINE      CODE     ---       #45
      00FF24E1H   LINE      CODE     ---       #47
      00FF24E3H   LINE      CODE     ---       #48
      00FF24EDH   LINE      CODE     ---       #49
      00FF24F6H   LINE      CODE     ---       #50
      00FF24F6H   LINE      CODE     ---       #51
      00FF24F6H   LINE      CODE     ---       #52
      ---         BLOCKEND  ---      ---       LVL=0

      00FF2143H   BLOCK     CODE     ---       LVL=0
      00FF2143H   LINE      CODE     ---       #60
      00FF2143H   LINE      CODE     ---       #62
      00FF2149H   LINE      CODE     ---       #64
      00FF2151H   LINE      CODE     ---       #66
      00FF2167H   LINE      CODE     ---       #67
      00FF2169H   LINE      CODE     ---       #68
      00FF216EH   LINE      CODE     ---       #70
      00FF2184H   LINE      CODE     ---       #71
      00FF2184H   LINE      CODE     ---       #72
      00FF219CH   LINE      CODE     ---       #73
      00FF21B4H   LINE      CODE     ---       #74
      00FF21B7H   LINE      CODE     ---       #75
      00FF21B7H   LINE      CODE     ---       #78
      00FF21B9H   LINE      CODE     ---       #79
      00FF21BCH   LINE      CODE     ---       #80
      00FF21BCH   LINE      CODE     ---       #81
      ---         BLOCKEND  ---      ---       LVL=0

      00FF21BCH   BLOCK     CODE     ---       LVL=0
      00FF21BCH   LINE      CODE     ---       #88
      00FF21BCH   LINE      CODE     ---       #90
      00FF21C2H   LINE      CODE     ---       #92
      00FF21CAH   LINE      CODE     ---       #94
      00FF21E0H   LINE      CODE     ---       #95
      00FF21E2H   LINE      CODE     ---       #96
      00FF21E7H   LINE      CODE     ---       #98
      00FF21FDH   LINE      CODE     ---       #99
      00FF21FDH   LINE      CODE     ---       #100
      00FF2215H   LINE      CODE     ---       #101
      00FF222DH   LINE      CODE     ---       #102
      00FF2230H   LINE      CODE     ---       #103
      00FF2230H   LINE      CODE     ---       #106
      00FF2232H   LINE      CODE     ---       #107
L251 LINKER/LOCATER V4.66.93.0                                                        08/01/2023  00:54:48  PAGE 29


      00FF2235H   LINE      CODE     ---       #108
      00FF2235H   LINE      CODE     ---       #109
      ---         BLOCKEND  ---      ---       LVL=0

      00FF1350H   BLOCK     CODE     ---       LVL=0
      00FF1350H   LINE      CODE     ---       #115
      00FF1350H   LINE      CODE     ---       #117
      00FF136BH   LINE      CODE     ---       #118
      00FF1386H   LINE      CODE     ---       #119
      00FF13B0H   LINE      CODE     ---       #120
      00FF13C3H   LINE      CODE     ---       #122
      00FF13D8H   LINE      CODE     ---       #123
      00FF13F1H   LINE      CODE     ---       #124
      00FF1403H   LINE      CODE     ---       #125
      00FF1416H   LINE      CODE     ---       #127
      00FF142BH   LINE      CODE     ---       #128
      00FF1444H   LINE      CODE     ---       #129
      00FF1455H   LINE      CODE     ---       #130
      00FF1467H   LINE      CODE     ---       #132
      00FF147CH   LINE      CODE     ---       #133
      00FF1495H   LINE      CODE     ---       #134
      00FF14ABH   LINE      CODE     ---       #135
      00FF14C4H   LINE      CODE     ---       #136
      ---         BLOCKEND  ---      ---       LVL=0

      00FF1E9DH   BLOCK     CODE     ---       LVL=0
      00FF1E9DH   LINE      CODE     ---       #143
      00FF1E9DH   LINE      CODE     ---       #144
      00FF1E9DH   LINE      CODE     ---       #146
      00FF1EA9H   LINE      CODE     ---       #148
      00FF1EBAH   LINE      CODE     ---       #150
      00FF1EC0H   LINE      CODE     ---       #151
      00FF1EC3H   LINE      CODE     ---       #152
      00FF1EC5H   LINE      CODE     ---       #153
      00FF1ED7H   LINE      CODE     ---       #154
      00FF1EE0H   LINE      CODE     ---       #155
      00FF1EE6H   LINE      CODE     ---       #156
      00FF1EE7H   LINE      CODE     ---       #157
      00FF1EF8H   LINE      CODE     ---       #159
      00FF1EFEH   LINE      CODE     ---       #160
      00FF1F01H   LINE      CODE     ---       #161
      00FF1F03H   LINE      CODE     ---       #162
      00FF1F05H   LINE      CODE     ---       #163
      00FF1F0AH   LINE      CODE     ---       #164
      00FF1F0EH   LINE      CODE     ---       #165
      00FF1F12H   LINE      CODE     ---       #166
      00FF1F16H   LINE      CODE     ---       #167
      00FF1F17H   LINE      CODE     ---       #168
      00FF1F28H   LINE      CODE     ---       #170
      00FF1F2EH   LINE      CODE     ---       #171
      00FF1F2EH   LINE      CODE     ---       #173
      ---         BLOCKEND  ---      ---       LVL=0

      ---         MODULE    ---      ---       key
      00FF2A7CH   PUBLIC    CODE     ---       Key_Init
      00FF2667H   PUBLIC    CODE     ---       Key_Rvalue
      000000D0H   SFRSYM    DATA     BYTE      PSW
      0000009DH   SFRSYM    DATA     BYTE      IRCBAND
      00000097H   SFRSYM    DATA     BYTE      AUXR2
      000000EFH   SFRSYM    DATA     BYTE      AUXINTIF
      000000FDH   SFRSYM    DATA     BYTE      S4CON
      000000ACH   SFRSYM    DATA     BYTE      S3CON
      0000009AH   SFRSYM    DATA     BYTE      S2CON
      000000B7H   SFRSYM    DATA     BYTE      IPH
      000000CDH   SFRSYM    DATA     BYTE      SPSTAT
L251 LINKER/LOCATER V4.66.93.0                                                        08/01/2023  00:54:48  PAGE 30


      000000DDH   SFRSYM    DATA     BYTE      T4T3M
      000000C1H   SFRSYM    DATA     BYTE      WDT_CONTR
      000000DFH   SFRSYM    DATA     BYTE      IP3
      000000F4H   SFRSYM    DATA     BYTE      USBCON
      000000B5H   SFRSYM    DATA     BYTE      IP2
      000000FFH   SFRSYM    DATA     BYTE      RSTCFG
      000000C7H   SFRSYM    DATA     BYTE      IAP_CONTR
      000000F9H   SFRSYM    DATA     BYTE      LINICR
      0000008EH   SFRSYM    DATA     BYTE      AUXR
      000000AFH   SFRSYM    DATA     BYTE      IE2
      000000F8H.3 SFRSYM    DATA     BIT       P73
      000000C0H.4 SFRSYM    DATA     BIT       P44
      000000A0H.4 SFRSYM    DATA     BIT       P24
      000000C0H.2 SFRSYM    DATA     BIT       P42
      00000088H   SFRSYM    DATA     BYTE      TCON
      00000089H   SFRSYM    DATA     BYTE      TMOD
      00000098H   SFRSYM    DATA     BYTE      SCON
      000000F1H   SFRSYM    DATA     BYTE      CANICR
      00000087H   SFRSYM    DATA     BYTE      PCON
      000000BCH   SFRSYM    DATA     BYTE      ADC_CONTR
      000000E7H   SFRSYM    DATA     BYTE      CMPCR2
      000000E6H   SFRSYM    DATA     BYTE      CMPCR1
      000000DEH   SFRSYM    DATA     BYTE      ADCCFG
      000000B8H   SFRSYM    DATA     BYTE      IP
      0000008FH   SFRSYM    DATA     BYTE      INTCLKO
      000000EEH   SFRSYM    DATA     BYTE      IP3H
      000000B6H   SFRSYM    DATA     BYTE      IP2H
      000000A8H   SFRSYM    DATA     BYTE      IE
      000000BBH   SFRSYM    DATA     BYTE      P_SW3
      000000BAH   SFRSYM    DATA     BYTE      P_SW2
      000000A2H   SFRSYM    DATA     BYTE      P_SW1
      000000CEH   SFRSYM    DATA     BYTE      SPCTL
      000000F8H   SFRSYM    DATA     BYTE      P7
      000000E8H   SFRSYM    DATA     BYTE      P6
      000000C8H   SFRSYM    DATA     BYTE      P5
      000000C0H   SFRSYM    DATA     BYTE      P4
      000000B0H   SFRSYM    DATA     BYTE      P3
      000000A0H   SFRSYM    DATA     BYTE      P2
      00000090H   SFRSYM    DATA     BYTE      P1
      00000080H   SFRSYM    DATA     BYTE      P0

      00FF2667H   BLOCK     CODE     ---       LVL=0
      R10         REGSYM    ---      BYTE      value
      00FF2667H   LINE      CODE     ---       #3
      00FF2667H   LINE      CODE     ---       #4
      00FF2667H   LINE      CODE     ---       #5
      00FF2669H   LINE      CODE     ---       #7
      00FF2674H   LINE      CODE     ---       #8
      00FF267FH   LINE      CODE     ---       #9
      00FF268AH   LINE      CODE     ---       #10
      00FF2693H   LINE      CODE     ---       #12
      00FF2695H   LINE      CODE     ---       #13
      ---         BLOCKEND  ---      ---       LVL=0

      00FF2A7CH   BLOCK     CODE     ---       LVL=0
      00FF2A7CH   LINE      CODE     ---       #15
      00FF2A7CH   LINE      CODE     ---       #17
      00FF2A7EH   LINE      CODE     ---       #18
      00FF2A80H   LINE      CODE     ---       #19
      00FF2A82H   LINE      CODE     ---       #20
      00FF2A84H   LINE      CODE     ---       #21
      ---         BLOCKEND  ---      ---       LVL=0

      ---         MODULE    ---      ---       timer
      00FF2A2FH   PUBLIC    CODE     ---       delay
L251 LINKER/LOCATER V4.66.93.0                                                        08/01/2023  00:54:48  PAGE 31


      00FF29F6H   PUBLIC    CODE     ---       Timer1Init
      0000012CH   PUBLIC    EDATA    WORD      delay_cnt
      000000D0H   SFRSYM    DATA     BYTE      PSW
      0000009DH   SFRSYM    DATA     BYTE      IRCBAND
      00000097H   SFRSYM    DATA     BYTE      AUXR2
      000000EFH   SFRSYM    DATA     BYTE      AUXINTIF
      000000FDH   SFRSYM    DATA     BYTE      S4CON
      000000ACH   SFRSYM    DATA     BYTE      S3CON
      0000009AH   SFRSYM    DATA     BYTE      S2CON
      000000B7H   SFRSYM    DATA     BYTE      IPH
      000000CDH   SFRSYM    DATA     BYTE      SPSTAT
      000000DDH   SFRSYM    DATA     BYTE      T4T3M
      000000C1H   SFRSYM    DATA     BYTE      WDT_CONTR
      00000088H.6 SFRSYM    DATA     BIT       TR1
      0000008BH   SFRSYM    DATA     BYTE      TL1
      0000008DH   SFRSYM    DATA     BYTE      TH1
      000000DFH   SFRSYM    DATA     BYTE      IP3
      000000F4H   SFRSYM    DATA     BYTE      USBCON
      00000088H.7 SFRSYM    DATA     BIT       TF1
      000000B5H   SFRSYM    DATA     BYTE      IP2
      000000FFH   SFRSYM    DATA     BYTE      RSTCFG
      000000A8H.3 SFRSYM    DATA     BIT       ET1
      000000C7H   SFRSYM    DATA     BYTE      IAP_CONTR
      000000F9H   SFRSYM    DATA     BYTE      LINICR
      0000008EH   SFRSYM    DATA     BYTE      AUXR
      000000AFH   SFRSYM    DATA     BYTE      IE2
      00000088H   SFRSYM    DATA     BYTE      TCON
      00000089H   SFRSYM    DATA     BYTE      TMOD
      00000098H   SFRSYM    DATA     BYTE      SCON
      000000F1H   SFRSYM    DATA     BYTE      CANICR
      00000087H   SFRSYM    DATA     BYTE      PCON
      000000BCH   SFRSYM    DATA     BYTE      ADC_CONTR
      000000E7H   SFRSYM    DATA     BYTE      CMPCR2
      000000E6H   SFRSYM    DATA     BYTE      CMPCR1
      000000DEH   SFRSYM    DATA     BYTE      ADCCFG
      000000B8H   SFRSYM    DATA     BYTE      IP
      0000008FH   SFRSYM    DATA     BYTE      INTCLKO
      000000EEH   SFRSYM    DATA     BYTE      IP3H
      000000B6H   SFRSYM    DATA     BYTE      IP2H
      000000A8H   SFRSYM    DATA     BYTE      IE
      000000BBH   SFRSYM    DATA     BYTE      P_SW3
      000000BAH   SFRSYM    DATA     BYTE      P_SW2
      000000A2H   SFRSYM    DATA     BYTE      P_SW1
      000000CEH   SFRSYM    DATA     BYTE      SPCTL
      000000F8H   SFRSYM    DATA     BYTE      P7
      000000A8H.7 SFRSYM    DATA     BIT       EA
      000000E8H   SFRSYM    DATA     BYTE      P6
      000000C8H   SFRSYM    DATA     BYTE      P5
      000000C0H   SFRSYM    DATA     BYTE      P4
      000000B0H   SFRSYM    DATA     BYTE      P3
      000000A0H   SFRSYM    DATA     BYTE      P2
      00000090H   SFRSYM    DATA     BYTE      P1
      00000080H   SFRSYM    DATA     BYTE      P0

      00FF29F6H   BLOCK     CODE     ---       LVL=0
      00FF29F6H   LINE      CODE     ---       #3
      00FF29F6H   LINE      CODE     ---       #5
      00FF29F9H   LINE      CODE     ---       #6
      00FF29FCH   LINE      CODE     ---       #7
      00FF29FFH   LINE      CODE     ---       #8
      00FF2A02H   LINE      CODE     ---       #9
      00FF2A04H   LINE      CODE     ---       #10
      00FF2A06H   LINE      CODE     ---       #11
      00FF2A08H   LINE      CODE     ---       #12
      00FF2A0AH   LINE      CODE     ---       #13
L251 LINKER/LOCATER V4.66.93.0                                                        08/01/2023  00:54:48  PAGE 32


      ---         BLOCKEND  ---      ---       LVL=0

      00FF2A2FH   BLOCK     CODE     ---       LVL=0
      WR6         REGSYM    ---      WORD      delay
      00FF2A2FH   LINE      CODE     ---       #19
      00FF2A2FH   LINE      CODE     ---       #21
      00FF2A33H   LINE      CODE     ---       #22
      00FF2A3DH   LINE      CODE     ---       #23
      ---         BLOCKEND  ---      ---       LVL=0

      ---         MODULE    ---      ---       Uart
      00FF295BH   PUBLIC    CODE     ---       UartInit
      00FF2A72H   PUBLIC    CODE     ---       Uart1_Isr
      00FF2A85H   PUBLIC    CODE     ---       Uart_sendbyte
      00FF29A0H   PUBLIC    CODE     ---       Uart_String
      000000D0H   SFRSYM    DATA     BYTE      PSW
      0000009DH   SFRSYM    DATA     BYTE      IRCBAND
      00000097H   SFRSYM    DATA     BYTE      AUXR2
      000000EFH   SFRSYM    DATA     BYTE      AUXINTIF
      000000FDH   SFRSYM    DATA     BYTE      S4CON
      000000ACH   SFRSYM    DATA     BYTE      S3CON
      0000009AH   SFRSYM    DATA     BYTE      S2CON
      000000B7H   SFRSYM    DATA     BYTE      IPH
      000000CDH   SFRSYM    DATA     BYTE      SPSTAT
      000000DDH   SFRSYM    DATA     BYTE      T4T3M
      000000C1H   SFRSYM    DATA     BYTE      WDT_CONTR
      000000D7H   SFRSYM    DATA     BYTE      T2L
      000000D6H   SFRSYM    DATA     BYTE      T2H
      000000DFH   SFRSYM    DATA     BYTE      IP3
      000000F4H   SFRSYM    DATA     BYTE      USBCON
      000000B5H   SFRSYM    DATA     BYTE      IP2
      000000FFH   SFRSYM    DATA     BYTE      RSTCFG
      000000C7H   SFRSYM    DATA     BYTE      IAP_CONTR
      000000F9H   SFRSYM    DATA     BYTE      LINICR
      0000008EH   SFRSYM    DATA     BYTE      AUXR
      000000AFH   SFRSYM    DATA     BYTE      IE2
      00000088H   SFRSYM    DATA     BYTE      TCON
      00000089H   SFRSYM    DATA     BYTE      TMOD
      00000098H   SFRSYM    DATA     BYTE      SCON
      000000F1H   SFRSYM    DATA     BYTE      CANICR
      00000087H   SFRSYM    DATA     BYTE      PCON
      00000099H   SFRSYM    DATA     BYTE      SBUF
      000000BCH   SFRSYM    DATA     BYTE      ADC_CONTR
      000000E7H   SFRSYM    DATA     BYTE      CMPCR2
      000000E6H   SFRSYM    DATA     BYTE      CMPCR1
      00000098H.1 SFRSYM    DATA     BIT       TI
      00000098H.0 SFRSYM    DATA     BIT       RI
      000000DEH   SFRSYM    DATA     BYTE      ADCCFG
      000000B8H   SFRSYM    DATA     BYTE      IP
      000000A8H.4 SFRSYM    DATA     BIT       ES
      0000008FH   SFRSYM    DATA     BYTE      INTCLKO
      000000EEH   SFRSYM    DATA     BYTE      IP3H
      000000B6H   SFRSYM    DATA     BYTE      IP2H
      000000A8H   SFRSYM    DATA     BYTE      IE
      000000BBH   SFRSYM    DATA     BYTE      P_SW3
      000000BAH   SFRSYM    DATA     BYTE      P_SW2
      000000A2H   SFRSYM    DATA     BYTE      P_SW1
      000000CEH   SFRSYM    DATA     BYTE      SPCTL
      000000F8H   SFRSYM    DATA     BYTE      P7
      000000A8H.7 SFRSYM    DATA     BIT       EA
      000000E8H   SFRSYM    DATA     BYTE      P6
      000000C8H   SFRSYM    DATA     BYTE      P5
      000000C0H   SFRSYM    DATA     BYTE      P4
      000000B0H   SFRSYM    DATA     BYTE      P3
      000000A0H   SFRSYM    DATA     BYTE      P2
L251 LINKER/LOCATER V4.66.93.0                                                        08/01/2023  00:54:48  PAGE 33


      00000090H   SFRSYM    DATA     BYTE      P1
      00000080H   SFRSYM    DATA     BYTE      P0

      00FF295BH   BLOCK     CODE     ---       LVL=0
      00FF295BH   LINE      CODE     ---       #2
      00FF295BH   LINE      CODE     ---       #4
      00FF295EH   LINE      CODE     ---       #5
      00FF2961H   LINE      CODE     ---       #6
      00FF2964H   LINE      CODE     ---       #7
      00FF2967H   LINE      CODE     ---       #8
      00FF296AH   LINE      CODE     ---       #9
      00FF296DH   LINE      CODE     ---       #10
      00FF296FH   LINE      CODE     ---       #11
      00FF2971H   LINE      CODE     ---       #12
      ---         BLOCKEND  ---      ---       LVL=0

      00FF2A85H   BLOCK     CODE     ---       LVL=0
      R11         REGSYM    ---      BYTE      byte
      00FF2A85H   LINE      CODE     ---       #14
      00FF2A85H   LINE      CODE     ---       #16
      00FF2A88H   LINE      CODE     ---       #17
      00FF2A8BH   LINE      CODE     ---       #18
      00FF2A8DH   LINE      CODE     ---       #19
      ---         BLOCKEND  ---      ---       LVL=0

      00FF29A0H   BLOCK     CODE     ---       LVL=0
      REG=3       REGSYM    ---      ---       p
      00FF29A0H   LINE      CODE     ---       #21
      00FF29A4H   LINE      CODE     ---       #23
      00FF29A6H   LINE      CODE     ---       #25
      00FF29AEH   LINE      CODE     ---       #26
      00FF29B3H   LINE      CODE     ---       #27
      ---         BLOCKEND  ---      ---       LVL=0

      00FF2A72H   BLOCK     CODE     ---       LVL=0
      00FF2A72H   LINE      CODE     ---       #29
      00FF2A74H   LINE      CODE     ---       #31
      00FF2A77H   LINE      CODE     ---       #33
      00FF2A79H   LINE      CODE     ---       #34
      ---         BLOCKEND  ---      ---       LVL=0

      ---         MODULE    ---      ---       iic
      00FF2A5BH   PUBLIC    CODE     ---       IIC_Delay
      00FF2A1EH   PUBLIC    CODE     ---       IIC_Start
      00FF2696H   PUBLIC    CODE     ---       Hall_element
      00FF2972H   PUBLIC    CODE     ---       IIC_SendAck
      00FF26C5H   PUBLIC    CODE     ---       IIC_SendByte
      00FF2A0BH   PUBLIC    CODE     ---       IIC_WaitAck
      00FF2A4DH   PUBLIC    CODE     ---       IIC_Stop
      00FF27A1H   PUBLIC    CODE     ---       IIC_RecByte
      00000020H.5 PUBLIC    BIT      BIT       ?IIC_SendAck?BIT
      000000D0H   SFRSYM    DATA     BYTE      PSW
      0000009DH   SFRSYM    DATA     BYTE      IRCBAND
      00000097H   SFRSYM    DATA     BYTE      AUXR2
      000000EFH   SFRSYM    DATA     BYTE      AUXINTIF
      000000FDH   SFRSYM    DATA     BYTE      S4CON
      000000ACH   SFRSYM    DATA     BYTE      S3CON
      0000009AH   SFRSYM    DATA     BYTE      S2CON
      000000A0H   SFRSYM    ---      BIT       SCL
      000000B7H   SFRSYM    DATA     BYTE      IPH
      000000CDH   SFRSYM    DATA     BYTE      SPSTAT
      000000DDH   SFRSYM    DATA     BYTE      T4T3M
      000000C1H   SFRSYM    DATA     BYTE      WDT_CONTR
      000000A0H.2 SFRSYM    ---      BIT       SDA
      000000DFH   SFRSYM    DATA     BYTE      IP3
L251 LINKER/LOCATER V4.66.93.0                                                        08/01/2023  00:54:48  PAGE 34


      000000F4H   SFRSYM    DATA     BYTE      USBCON
      000000B5H   SFRSYM    DATA     BYTE      IP2
      000000FFH   SFRSYM    DATA     BYTE      RSTCFG
      000000C7H   SFRSYM    DATA     BYTE      IAP_CONTR
      000000F9H   SFRSYM    DATA     BYTE      LINICR
      0000008EH   SFRSYM    DATA     BYTE      AUXR
      000000AFH   SFRSYM    DATA     BYTE      IE2
      00000088H   SFRSYM    DATA     BYTE      TCON
      00000089H   SFRSYM    DATA     BYTE      TMOD
      00000098H   SFRSYM    DATA     BYTE      SCON
      000000F1H   SFRSYM    DATA     BYTE      CANICR
      00000087H   SFRSYM    DATA     BYTE      PCON
      000000BCH   SFRSYM    DATA     BYTE      ADC_CONTR
      000000E7H   SFRSYM    DATA     BYTE      CMPCR2
      000000E6H   SFRSYM    DATA     BYTE      CMPCR1
      000000DEH   SFRSYM    DATA     BYTE      ADCCFG
      000000B8H   SFRSYM    DATA     BYTE      IP
      0000008FH   SFRSYM    DATA     BYTE      INTCLKO
      000000EEH   SFRSYM    DATA     BYTE      IP3H
      000000B6H   SFRSYM    DATA     BYTE      IP2H
      000000A8H   SFRSYM    DATA     BYTE      IE
      000000BBH   SFRSYM    DATA     BYTE      P_SW3
      000000BAH   SFRSYM    DATA     BYTE      P_SW2
      000000A2H   SFRSYM    DATA     BYTE      P_SW1
      000000CEH   SFRSYM    DATA     BYTE      SPCTL
      000000F8H   SFRSYM    DATA     BYTE      P7
      000000E8H   SFRSYM    DATA     BYTE      P6
      000000C8H   SFRSYM    DATA     BYTE      P5
      000000C0H   SFRSYM    DATA     BYTE      P4
      000000B0H   SFRSYM    DATA     BYTE      P3
      000000A0H   SFRSYM    DATA     BYTE      P2
      00000090H   SFRSYM    DATA     BYTE      P1
      00000080H   SFRSYM    DATA     BYTE      P0

      00FF2A5BH   BLOCK     CODE     ---       LVL=0
      R7          REGSYM    ---      BYTE      i
      00FF2A5BH   LINE      CODE     ---       #8
      00FF2A5DH   LINE      CODE     ---       #10
      00FF2A66H   LINE      CODE     ---       #12
      ---         BLOCKEND  ---      ---       LVL=0

      00FF2A1EH   BLOCK     CODE     ---       LVL=0
      00FF2A1EH   LINE      CODE     ---       #15
      00FF2A1EH   LINE      CODE     ---       #17
      00FF2A20H   LINE      CODE     ---       #18
      00FF2A22H   LINE      CODE     ---       #19
      00FF2A27H   LINE      CODE     ---       #20
      00FF2A29H   LINE      CODE     ---       #21
      00FF2A2CH   LINE      CODE     ---       #22
      00FF2A2EH   LINE      CODE     ---       #23
      ---         BLOCKEND  ---      ---       LVL=0

      00FF2A4DH   BLOCK     CODE     ---       LVL=0
      00FF2A4DH   LINE      CODE     ---       #26
      00FF2A4DH   LINE      CODE     ---       #28
      00FF2A4FH   LINE      CODE     ---       #29
      00FF2A51H   LINE      CODE     ---       #30
      00FF2A56H   LINE      CODE     ---       #31
      00FF2A58H   LINE      CODE     ---       #32
      ---         BLOCKEND  ---      ---       LVL=0

      00FF2972H   BLOCK     CODE     ---       LVL=0
      00000020H.5 SYMBOL    BIT      BIT       ackbit
      00FF2972H   LINE      CODE     ---       #36
      00FF2972H   LINE      CODE     ---       #38
L251 LINKER/LOCATER V4.66.93.0                                                        08/01/2023  00:54:48  PAGE 35


      00FF2974H   LINE      CODE     ---       #39
      00FF2978H   LINE      CODE     ---       #40
      00FF297DH   LINE      CODE     ---       #41
      00FF297FH   LINE      CODE     ---       #42
      00FF2982H   LINE      CODE     ---       #43
      00FF2984H   LINE      CODE     ---       #44
      00FF2986H   LINE      CODE     ---       #45
      ---         BLOCKEND  ---      ---       LVL=0

      00FF2A0BH   BLOCK     CODE     ---       LVL=0
      00000020H.6 SYMBOL    BIT      BIT       ackbit
      00FF2A0BH   LINE      CODE     ---       #49
      00FF2A0BH   LINE      CODE     ---       #50
      00FF2A0BH   LINE      CODE     ---       #52
      00FF2A0DH   LINE      CODE     ---       #53
      00FF2A12H   LINE      CODE     ---       #54
      00FF2A16H   LINE      CODE     ---       #55
      00FF2A18H   LINE      CODE     ---       #56
      00FF2A1BH   LINE      CODE     ---       #57
      00FF2A1DH   LINE      CODE     ---       #58
      ---         BLOCKEND  ---      ---       LVL=0

      00FF26C5H   BLOCK     CODE     ---       LVL=0
      R15         REGSYM    ---      BYTE      byt
      00FF26C9H   BLOCK     CODE     NEAR LAB  LVL=1
      R14         REGSYM    ---      BYTE      i
      ---         BLOCKEND  ---      ---       LVL=1
      00FF26C5H   LINE      CODE     ---       #61
      00FF26C9H   LINE      CODE     ---       #62
      00FF26C9H   LINE      CODE     ---       #63
      00FF26C9H   LINE      CODE     ---       #64
      00FF26CCH   LINE      CODE     ---       #66
      00FF26CEH   LINE      CODE     ---       #67
      00FF26D3H   LINE      CODE     ---       #68
      00FF26DCH   LINE      CODE     ---       #69
      00FF26DEH   LINE      CODE     ---       #70
      00FF26E3H   LINE      CODE     ---       #71
      00FF26E5H   LINE      CODE     ---       #72
      00FF26E7H   LINE      CODE     ---       #73
      00FF26EAH   LINE      CODE     ---       #74
      00FF26EEH   LINE      CODE     ---       #75
      00FF26F0H   LINE      CODE     ---       #76
      ---         BLOCKEND  ---      ---       LVL=0

      00FF27A1H   BLOCK     CODE     ---       LVL=0
      00FF27A3H   BLOCK     CODE     NEAR LAB  LVL=1
      R14         REGSYM    ---      BYTE      i
      R15         REGSYM    ---      BYTE      da
      ---         BLOCKEND  ---      ---       LVL=1
      00FF27A1H   LINE      CODE     ---       #79
      00FF27A3H   LINE      CODE     ---       #80
      00FF27A3H   LINE      CODE     ---       #81
      00FF27A5H   LINE      CODE     ---       #82
      00FF27A8H   LINE      CODE     ---       #84
      00FF27AAH   LINE      CODE     ---       #85
      00FF27AFH   LINE      CODE     ---       #86
      00FF27B1H   LINE      CODE     ---       #87
      00FF27B7H   LINE      CODE     ---       #88
      00FF27B9H   LINE      CODE     ---       #89
      00FF27BEH   LINE      CODE     ---       #90
      00FF27C2H   LINE      CODE     ---       #91
      00FF27C4H   LINE      CODE     ---       #92
      ---         BLOCKEND  ---      ---       LVL=0

      00FF2696H   BLOCK     CODE     ---       LVL=0
L251 LINKER/LOCATER V4.66.93.0                                                        08/01/2023  00:54:48  PAGE 36


      R15         REGSYM    ---      BYTE      readaddr
      00FF269AH   BLOCK     CODE     NEAR LAB  LVL=1
      R15         REGSYM    ---      BYTE      temp
      ---         BLOCKEND  ---      ---       LVL=1
      00FF2696H   LINE      CODE     ---       #93
      00FF269AH   LINE      CODE     ---       #94
      00FF269AH   LINE      CODE     ---       #95
      00FF269AH   LINE      CODE     ---       #96
      00FF269DH   LINE      CODE     ---       #97
      00FF26A2H   LINE      CODE     ---       #98
      00FF26A5H   LINE      CODE     ---       #99
      00FF26AAH   LINE      CODE     ---       #100
      00FF26ADH   LINE      CODE     ---       #102
      00FF26B0H   LINE      CODE     ---       #103
      00FF26B5H   LINE      CODE     ---       #104
      00FF26B8H   LINE      CODE     ---       #105
      00FF26BDH   LINE      CODE     ---       #106
      00FF26C0H   LINE      CODE     ---       #107
      00FF26C2H   LINE      CODE     ---       #108
      ---         BLOCKEND  ---      ---       LVL=0

      ---         MODULE    ---      ---       pwm
      00FF22A3H   PUBLIC    CODE     ---       Update_duty
      00FF1F2FH   PUBLIC    CODE     ---       PWMA_Config
      00000120H   PUBLIC    EDATA    INT       dutyL
      00000122H   PUBLIC    EDATA    INT       dutyR
      000000D0H   SFRSYM    DATA     BYTE      PSW
      0000009DH   SFRSYM    DATA     BYTE      IRCBAND
      00000097H   SFRSYM    DATA     BYTE      AUXR2
      000000EFH   SFRSYM    DATA     BYTE      AUXINTIF
      000000FDH   SFRSYM    DATA     BYTE      S4CON
      000000ACH   SFRSYM    DATA     BYTE      S3CON
      0000009AH   SFRSYM    DATA     BYTE      S2CON
      000000B7H   SFRSYM    DATA     BYTE      IPH
      000000CDH   SFRSYM    DATA     BYTE      SPSTAT
      000000DDH   SFRSYM    DATA     BYTE      T4T3M
      000000C1H   SFRSYM    DATA     BYTE      WDT_CONTR
      000000DFH   SFRSYM    DATA     BYTE      IP3
      000000F4H   SFRSYM    DATA     BYTE      USBCON
      000000B5H   SFRSYM    DATA     BYTE      IP2
      000000FFH   SFRSYM    DATA     BYTE      RSTCFG
      000000C7H   SFRSYM    DATA     BYTE      IAP_CONTR
      000000F9H   SFRSYM    DATA     BYTE      LINICR
      0000008EH   SFRSYM    DATA     BYTE      AUXR
      000000AFH   SFRSYM    DATA     BYTE      IE2
      00000088H   SFRSYM    DATA     BYTE      TCON
      00000089H   SFRSYM    DATA     BYTE      TMOD
      00000098H   SFRSYM    DATA     BYTE      SCON
      000000F1H   SFRSYM    DATA     BYTE      CANICR
      00000087H   SFRSYM    DATA     BYTE      PCON
      000000BCH   SFRSYM    DATA     BYTE      ADC_CONTR
      000000E7H   SFRSYM    DATA     BYTE      CMPCR2
      000000E6H   SFRSYM    DATA     BYTE      CMPCR1
      000000DEH   SFRSYM    DATA     BYTE      ADCCFG
      000000B8H   SFRSYM    DATA     BYTE      IP
      0000008FH   SFRSYM    DATA     BYTE      INTCLKO
      000000EEH   SFRSYM    DATA     BYTE      IP3H
      000000B6H   SFRSYM    DATA     BYTE      IP2H
      000000A8H   SFRSYM    DATA     BYTE      IE
      000000BBH   SFRSYM    DATA     BYTE      P_SW3
      000000BAH   SFRSYM    DATA     BYTE      P_SW2
      000000A2H   SFRSYM    DATA     BYTE      P_SW1
      000000CEH   SFRSYM    DATA     BYTE      SPCTL
      000000F8H   SFRSYM    DATA     BYTE      P7
      000000E8H   SFRSYM    DATA     BYTE      P6
L251 LINKER/LOCATER V4.66.93.0                                                        08/01/2023  00:54:48  PAGE 37


      000000C8H   SFRSYM    DATA     BYTE      P5
      000000C0H   SFRSYM    DATA     BYTE      P4
      000000B0H   SFRSYM    DATA     BYTE      P3
      000000A0H   SFRSYM    DATA     BYTE      P2
      00000090H   SFRSYM    DATA     BYTE      P1
      00000080H   SFRSYM    DATA     BYTE      P0

      00FF1F2FH   BLOCK     CODE     ---       LVL=0
      00FF1F2FH   LINE      CODE     ---       #9
      00FF1F2FH   LINE      CODE     ---       #11
      00FF1F3CH   LINE      CODE     ---       #13
      00FF1F44H   LINE      CODE     ---       #14
      00FF1F4DH   LINE      CODE     ---       #16
      00FF1F55H   LINE      CODE     ---       #17
      00FF1F62H   LINE      CODE     ---       #18
      00FF1F69H   LINE      CODE     ---       #19
      00FF1F6EH   LINE      CODE     ---       #21
      00FF1F77H   LINE      CODE     ---       #22
      00FF1F80H   LINE      CODE     ---       #24
      00FF1F89H   LINE      CODE     ---       #25
      00FF1F92H   LINE      CODE     ---       #27
      00FF1F9BH   LINE      CODE     ---       #28
      00FF1FA4H   LINE      CODE     ---       #30
      00FF1FADH   LINE      CODE     ---       #31
      00FF1FB6H   LINE      CODE     ---       #33
      00FF1FBFH   LINE      CODE     ---       #34
      ---         BLOCKEND  ---      ---       LVL=0

      00FF22A3H   BLOCK     CODE     ---       LVL=0
      R7          REGSYM    ---      BYTE      sw
      WR12        REGSYM    ---      INT       PWMR
      WR14        REGSYM    ---      INT       PWML
      00FF22A3H   LINE      CODE     ---       #41
      00FF22ABH   LINE      CODE     ---       #44
      00FF22AFH   LINE      CODE     ---       #46
      00FF22B3H   LINE      CODE     ---       #47
      00FF22B3H   LINE      CODE     ---       #48
      00FF22B3H   LINE      CODE     ---       #50
      00FF22B9H   LINE      CODE     ---       #52
      00FF22C1H   LINE      CODE     ---       #53
      00FF22C4H   LINE      CODE     ---       #54
      00FF22C6H   LINE      CODE     ---       #56
      00FF22C9H   LINE      CODE     ---       #58
      00FF22CFH   LINE      CODE     ---       #60
      00FF22D7H   LINE      CODE     ---       #61
      00FF22DAH   LINE      CODE     ---       #62
      00FF22DCH   LINE      CODE     ---       #64
      00FF22DFH   LINE      CODE     ---       #67
      00FF22ECH   LINE      CODE     ---       #68
      00FF22F3H   LINE      CODE     ---       #70
      00FF22FCH   LINE      CODE     ---       #71
      00FF2303H   LINE      CODE     ---       #72
      ---         BLOCKEND  ---      ---       LVL=0

      ---         MODULE    ---      ---       GPIO
      00FF25BFH   PUBLIC    CODE     ---       GPIO_init
      00000094H   SFRSYM    DATA     BYTE      P0M0
      000000D0H   SFRSYM    DATA     BYTE      PSW
      000000BAH.7 SFRSYM    DATA     BIT       EAXFR
      0000009DH   SFRSYM    DATA     BYTE      IRCBAND
      00000097H   SFRSYM    DATA     BYTE      AUXR2
      000000EAH   SFRSYM    DATA     BYTE      CKCON
      000000EFH   SFRSYM    DATA     BYTE      AUXINTIF
      000000FDH   SFRSYM    DATA     BYTE      S4CON
      000000ACH   SFRSYM    DATA     BYTE      S3CON
L251 LINKER/LOCATER V4.66.93.0                                                        08/01/2023  00:54:48  PAGE 38


      0000009AH   SFRSYM    DATA     BYTE      S2CON
      000000B7H   SFRSYM    DATA     BYTE      IPH
      000000CDH   SFRSYM    DATA     BYTE      SPSTAT
      000000DDH   SFRSYM    DATA     BYTE      T4T3M
      000000C1H   SFRSYM    DATA     BYTE      WDT_CONTR
      000000E9H   SFRSYM    DATA     BYTE      WTST
      000000DFH   SFRSYM    DATA     BYTE      IP3
      000000F4H   SFRSYM    DATA     BYTE      USBCON
      000000B5H   SFRSYM    DATA     BYTE      IP2
      000000FFH   SFRSYM    DATA     BYTE      RSTCFG
      000000C7H   SFRSYM    DATA     BYTE      IAP_CONTR
      000000F9H   SFRSYM    DATA     BYTE      LINICR
      0000008EH   SFRSYM    DATA     BYTE      AUXR
      000000AFH   SFRSYM    DATA     BYTE      IE2
      00000088H   SFRSYM    DATA     BYTE      TCON
      00000089H   SFRSYM    DATA     BYTE      TMOD
      00000098H   SFRSYM    DATA     BYTE      SCON
      000000F1H   SFRSYM    DATA     BYTE      CANICR
      00000087H   SFRSYM    DATA     BYTE      PCON
      000000BCH   SFRSYM    DATA     BYTE      ADC_CONTR
      000000E7H   SFRSYM    DATA     BYTE      CMPCR2
      000000E6H   SFRSYM    DATA     BYTE      CMPCR1
      000000DEH   SFRSYM    DATA     BYTE      ADCCFG
      000000B8H   SFRSYM    DATA     BYTE      IP
      0000008FH   SFRSYM    DATA     BYTE      INTCLKO
      000000EEH   SFRSYM    DATA     BYTE      IP3H
      000000B6H   SFRSYM    DATA     BYTE      IP2H
      000000A8H   SFRSYM    DATA     BYTE      IE
      000000BBH   SFRSYM    DATA     BYTE      P_SW3
      000000BAH   SFRSYM    DATA     BYTE      P_SW2
      000000A2H   SFRSYM    DATA     BYTE      P_SW1
      000000CEH   SFRSYM    DATA     BYTE      SPCTL
      000000F8H   SFRSYM    DATA     BYTE      P7
      000000E1H   SFRSYM    DATA     BYTE      P7M1
      000000E8H   SFRSYM    DATA     BYTE      P6
      000000C8H   SFRSYM    DATA     BYTE      P5
      000000CBH   SFRSYM    DATA     BYTE      P6M1
      000000E2H   SFRSYM    DATA     BYTE      P7M0
      000000C0H   SFRSYM    DATA     BYTE      P4
      000000C9H   SFRSYM    DATA     BYTE      P5M1
      000000CCH   SFRSYM    DATA     BYTE      P6M0
      000000B0H   SFRSYM    DATA     BYTE      P3
      000000B3H   SFRSYM    DATA     BYTE      P4M1
      000000CAH   SFRSYM    DATA     BYTE      P5M0
      000000A0H   SFRSYM    DATA     BYTE      P2
      000000B1H   SFRSYM    DATA     BYTE      P3M1
      000000B4H   SFRSYM    DATA     BYTE      P4M0
      00000090H   SFRSYM    DATA     BYTE      P1
      00000095H   SFRSYM    DATA     BYTE      P2M1
      000000B2H   SFRSYM    DATA     BYTE      P3M0
      00000080H   SFRSYM    DATA     BYTE      P0
      00000091H   SFRSYM    DATA     BYTE      P1M1
      00000096H   SFRSYM    DATA     BYTE      P2M0
      00000092H   SFRSYM    DATA     BYTE      P1M0
      00000093H   SFRSYM    DATA     BYTE      P0M1

      00FF25BFH   BLOCK     CODE     ---       LVL=0
      00FF25BFH   LINE      CODE     ---       #3
      00FF25BFH   LINE      CODE     ---       #5
      00FF25C2H   LINE      CODE     ---       #6
      00FF25C5H   LINE      CODE     ---       #7
      00FF25C8H   LINE      CODE     ---       #9
      00FF25CEH   LINE      CODE     ---       #10
      00FF25D4H   LINE      CODE     ---       #11
      00FF25DAH   LINE      CODE     ---       #12
L251 LINKER/LOCATER V4.66.93.0                                                        08/01/2023  00:54:48  PAGE 39


      00FF25E0H   LINE      CODE     ---       #13
      00FF25E6H   LINE      CODE     ---       #14
      00FF25ECH   LINE      CODE     ---       #15
      00FF25F2H   LINE      CODE     ---       #16
      00FF25F8H   LINE      CODE     ---       #17
      ---         BLOCKEND  ---      ---       LVL=0

      ---         MODULE    ---      ---       motor
      00FF2A8EH   PUBLIC    CODE     ---       Motor_Init
      00FF2899H   PUBLIC    CODE     ---       Motor_FRcontrol
      00FF001EH   PUBLIC    CODE     ---       MotorL_Forward
      00FF2A97H   PUBLIC    CODE     ---       MotorR_Forward
      00FF2A9CH   PUBLIC    CODE     ---       MotorL_Reverse
      00FF2AA1H   PUBLIC    CODE     ---       MotorR_Reverse
      00000080H.1 SFRSYM    DATA     BIT       MOTOR_AIN1
      000000D0H   SFRSYM    DATA     BYTE      PSW
      0000009DH   SFRSYM    DATA     BYTE      IRCBAND
      00000097H   SFRSYM    DATA     BYTE      AUXR2
      000000EFH   SFRSYM    DATA     BYTE      AUXINTIF
      000000FDH   SFRSYM    DATA     BYTE      S4CON
      000000ACH   SFRSYM    DATA     BYTE      S3CON
      0000009AH   SFRSYM    DATA     BYTE      S2CON
      000000B7H   SFRSYM    DATA     BYTE      IPH
      000000CDH   SFRSYM    DATA     BYTE      SPSTAT
      000000DDH   SFRSYM    DATA     BYTE      T4T3M
      000000C1H   SFRSYM    DATA     BYTE      WDT_CONTR
      000000DFH   SFRSYM    DATA     BYTE      IP3
      000000F4H   SFRSYM    DATA     BYTE      USBCON
      000000B5H   SFRSYM    DATA     BYTE      IP2
      000000FFH   SFRSYM    DATA     BYTE      RSTCFG
      000000C7H   SFRSYM    DATA     BYTE      IAP_CONTR
      000000F9H   SFRSYM    DATA     BYTE      LINICR
      0000008EH   SFRSYM    DATA     BYTE      AUXR
      000000AFH   SFRSYM    DATA     BYTE      IE2
      00000088H   SFRSYM    DATA     BYTE      TCON
      00000089H   SFRSYM    DATA     BYTE      TMOD
      00000098H   SFRSYM    DATA     BYTE      SCON
      000000F1H   SFRSYM    DATA     BYTE      CANICR
      00000087H   SFRSYM    DATA     BYTE      PCON
      000000BCH   SFRSYM    DATA     BYTE      ADC_CONTR
      000000E7H   SFRSYM    DATA     BYTE      CMPCR2
      000000E6H   SFRSYM    DATA     BYTE      CMPCR1
      000000DEH   SFRSYM    DATA     BYTE      ADCCFG
      000000B8H   SFRSYM    DATA     BYTE      IP
      0000008FH   SFRSYM    DATA     BYTE      INTCLKO
      000000EEH   SFRSYM    DATA     BYTE      IP3H
      000000B6H   SFRSYM    DATA     BYTE      IP2H
      000000A8H   SFRSYM    DATA     BYTE      IE
      000000BBH   SFRSYM    DATA     BYTE      P_SW3
      000000BAH   SFRSYM    DATA     BYTE      P_SW2
      000000A2H   SFRSYM    DATA     BYTE      P_SW1
      000000CEH   SFRSYM    DATA     BYTE      SPCTL
      000000F8H   SFRSYM    DATA     BYTE      P7
      000000E8H   SFRSYM    DATA     BYTE      P6
      000000C8H   SFRSYM    DATA     BYTE      P5
      000000C0H   SFRSYM    DATA     BYTE      P4
      000000B0H   SFRSYM    DATA     BYTE      P3
      000000A0H   SFRSYM    DATA     BYTE      P2
      00000090H   SFRSYM    DATA     BYTE      P1
      00000080H   SFRSYM    DATA     BYTE      P0
      00000080H.4 SFRSYM    DATA     BIT       MOTOR_BIN2
      00000080H.2 SFRSYM    DATA     BIT       MOTOR_AIN2
      00000080H.3 SFRSYM    DATA     BIT       MOTOR_BIN1

      00FF2A8EH   BLOCK     CODE     ---       LVL=0
L251 LINKER/LOCATER V4.66.93.0                                                        08/01/2023  00:54:48  PAGE 40


      00FF2A8EH   LINE      CODE     ---       #3
      00FF2A8EH   LINE      CODE     ---       #5
      00FF2A91H   LINE      CODE     ---       #6
      00FF2A94H   LINE      CODE     ---       #7
      ---         BLOCKEND  ---      ---       LVL=0

      00FF001EH   BLOCK     CODE     ---       LVL=0
      00FF001EH   LINE      CODE     ---       #10
      00FF001EH   LINE      CODE     ---       #12
      00FF0020H   LINE      CODE     ---       #13
      00FF0022H   LINE      CODE     ---       #14
      ---         BLOCKEND  ---      ---       LVL=0

      00FF2A9CH   BLOCK     CODE     ---       LVL=0
      00FF2A9CH   LINE      CODE     ---       #16
      00FF2A9CH   LINE      CODE     ---       #18
      00FF2A9EH   LINE      CODE     ---       #19
      00FF2AA0H   LINE      CODE     ---       #20
      ---         BLOCKEND  ---      ---       LVL=0

      00FF2A97H   BLOCK     CODE     ---       LVL=0
      00FF2A97H   LINE      CODE     ---       #22
      00FF2A97H   LINE      CODE     ---       #24
      00FF2A99H   LINE      CODE     ---       #25
      00FF2A9BH   LINE      CODE     ---       #26
      ---         BLOCKEND  ---      ---       LVL=0

      00FF2AA1H   BLOCK     CODE     ---       LVL=0
      00FF2AA1H   LINE      CODE     ---       #28
      00FF2AA1H   LINE      CODE     ---       #30
      00FF2AA3H   LINE      CODE     ---       #31
      00FF2AA5H   LINE      CODE     ---       #32
      ---         BLOCKEND  ---      ---       LVL=0

      00FF2899H   BLOCK     CODE     ---       LVL=0
      WR6         REGSYM    ---      INT       motor1
      WR4         REGSYM    ---      INT       motor2
      00FF2899H   LINE      CODE     ---       #40
      00FF2899H   LINE      CODE     ---       #42
      00FF289FH   LINE      CODE     ---       #44
      00FF28A1H   LINE      CODE     ---       #45
      00FF28A3H   LINE      CODE     ---       #46
      00FF28A5H   LINE      CODE     ---       #49
      00FF28A7H   LINE      CODE     ---       #50
      00FF28A9H   LINE      CODE     ---       #51
      00FF28A9H   LINE      CODE     ---       #53
      00FF28AFH   LINE      CODE     ---       #55
      00FF28B1H   LINE      CODE     ---       #56
      00FF28B3H   LINE      CODE     ---       #57
      00FF28B4H   LINE      CODE     ---       #60
      00FF28B6H   LINE      CODE     ---       #61
      00FF28B8H   LINE      CODE     ---       #62
      00FF28B8H   LINE      CODE     ---       #63
      ---         BLOCKEND  ---      ---       LVL=0

      ---         MODULE    ---      ---       ADC
      00FF2836H   PUBLIC    CODE     ---       ADC_Readchannel_1
      00FF2857H   PUBLIC    CODE     ---       ADC_Readchannel_2
      00FF28D7H   PUBLIC    CODE     ---       ADC_Readchannel_3
      00FF27C7H   PUBLIC    CODE     ---       ADC_Read
      00FF2989H   PUBLIC    CODE     ---       ADC_Init
      0000011CH   PUBLIC    EDATA    BYTE      ?ADC_Read?BYTE
      000000D0H   SFRSYM    DATA     BYTE      PSW
      0000009DH   SFRSYM    DATA     BYTE      IRCBAND
      00000097H   SFRSYM    DATA     BYTE      AUXR2
L251 LINKER/LOCATER V4.66.93.0                                                        08/01/2023  00:54:48  PAGE 41


      000000EFH   SFRSYM    DATA     BYTE      AUXINTIF
      000000FDH   SFRSYM    DATA     BYTE      S4CON
      000000ACH   SFRSYM    DATA     BYTE      S3CON
      0000009AH   SFRSYM    DATA     BYTE      S2CON
      000000B7H   SFRSYM    DATA     BYTE      IPH
      000000CDH   SFRSYM    DATA     BYTE      SPSTAT
      000000BEH   SFRSYM    DATA     BYTE      ADC_RESL
      000000DDH   SFRSYM    DATA     BYTE      T4T3M
      000000C1H   SFRSYM    DATA     BYTE      WDT_CONTR
      000000DFH   SFRSYM    DATA     BYTE      IP3
      000000F4H   SFRSYM    DATA     BYTE      USBCON
      000000B5H   SFRSYM    DATA     BYTE      IP2
      000000FFH   SFRSYM    DATA     BYTE      RSTCFG
      000000BCH.5 SFRSYM    DATA     BIT       ADC_FLAG
      000000C7H   SFRSYM    DATA     BYTE      IAP_CONTR
      000000F9H   SFRSYM    DATA     BYTE      LINICR
      0000008EH   SFRSYM    DATA     BYTE      AUXR
      000000AFH   SFRSYM    DATA     BYTE      IE2
      000000BCH.6 SFRSYM    DATA     BIT       ADC_START
      000000BCH.7 SFRSYM    DATA     BIT       ADC_POWER
      00000088H   SFRSYM    DATA     BYTE      TCON
      00000089H   SFRSYM    DATA     BYTE      TMOD
      00000098H   SFRSYM    DATA     BYTE      SCON
      000000F1H   SFRSYM    DATA     BYTE      CANICR
      00000087H   SFRSYM    DATA     BYTE      PCON
      000000BCH   SFRSYM    DATA     BYTE      ADC_CONTR
      000000E7H   SFRSYM    DATA     BYTE      CMPCR2
      000000E6H   SFRSYM    DATA     BYTE      CMPCR1
      000000DEH   SFRSYM    DATA     BYTE      ADCCFG
      000000B8H   SFRSYM    DATA     BYTE      IP
      0000008FH   SFRSYM    DATA     BYTE      INTCLKO
      000000EEH   SFRSYM    DATA     BYTE      IP3H
      000000B6H   SFRSYM    DATA     BYTE      IP2H
      000000BDH   SFRSYM    DATA     BYTE      ADC_RES
      000000A8H   SFRSYM    DATA     BYTE      IE
      000000BBH   SFRSYM    DATA     BYTE      P_SW3
      000000BAH   SFRSYM    DATA     BYTE      P_SW2
      000000A2H   SFRSYM    DATA     BYTE      P_SW1
      000000CEH   SFRSYM    DATA     BYTE      SPCTL
      000000F8H   SFRSYM    DATA     BYTE      P7
      000000E8H   SFRSYM    DATA     BYTE      P6
      000000C8H   SFRSYM    DATA     BYTE      P5
      000000C0H   SFRSYM    DATA     BYTE      P4
      000000B0H   SFRSYM    DATA     BYTE      P3
      000000A0H   SFRSYM    DATA     BYTE      P2
      00000090H   SFRSYM    DATA     BYTE      P1
      00000080H   SFRSYM    DATA     BYTE      P0

      00FF2989H   BLOCK     CODE     ---       LVL=0
      00FF2989H   LINE      CODE     ---       #3
      00FF2989H   LINE      CODE     ---       #5
      00FF2996H   LINE      CODE     ---       #6
      00FF2999H   LINE      CODE     ---       #7
      00FF299CH   LINE      CODE     ---       #8
      00FF299FH   LINE      CODE     ---       #9
      ---         BLOCKEND  ---      ---       LVL=0

      00FF27C7H   BLOCK     CODE     ---       LVL=0
      REG=7       REGSYM    ---      ---       channel1
      00FF27C9H   BLOCK     CODE     NEAR LAB  LVL=1
      WR6         REGSYM    ---      WORD      value
      ---         BLOCKEND  ---      ---       LVL=1
      00FF27C7H   LINE      CODE     ---       #11
      00FF27C9H   LINE      CODE     ---       #12
      00FF27C9H   LINE      CODE     ---       #13
L251 LINKER/LOCATER V4.66.93.0                                                        08/01/2023  00:54:48  PAGE 42


      00FF27C9H   LINE      CODE     ---       #14
      00FF27C9H   LINE      CODE     ---       #16
      00FF27CCH   LINE      CODE     ---       #17
      00FF27CDH   LINE      CODE     ---       #18
      00FF27CEH   LINE      CODE     ---       #20
      00FF27D2H   LINE      CODE     ---       #21
      00FF27D5H   LINE      CODE     ---       #23
      00FF27E1H   LINE      CODE     ---       #25
      00FF27E1H   LINE      CODE     ---       #26
      00FF27E1H   LINE      CODE     ---       #28
      00FF27E1H   LINE      CODE     ---       #30
      00FF27E9H   LINE      CODE     ---       #32
      00FF27ECH   LINE      CODE     ---       #34
      00FF27ECH   LINE      CODE     ---       #35
      00FF27ECH   LINE      CODE     ---       #37
      00FF27ECH   LINE      CODE     ---       #41
      00FF27ECH   LINE      CODE     ---       #43
      00FF27ECH   LINE      CODE     ---       #47
      00FF27ECH   LINE      CODE     ---       #48
      00FF27ECH   LINE      CODE     ---       #49
      ---         BLOCKEND  ---      ---       LVL=0

      00FF2836H   BLOCK     CODE     ---       LVL=0
      WR6         REGSYM    ---      WORD      value
      00FF2836H   LINE      CODE     ---       #51
      00FF2836H   LINE      CODE     ---       #52
      00FF2836H   LINE      CODE     ---       #53
      00FF2836H   LINE      CODE     ---       #55
      00FF283EH   LINE      CODE     ---       #58
      00FF2841H   LINE      CODE     ---       #59
      00FF2842H   LINE      CODE     ---       #60
      00FF2843H   LINE      CODE     ---       #62
      00FF2847H   LINE      CODE     ---       #63
      00FF284AH   LINE      CODE     ---       #65
      00FF2856H   LINE      CODE     ---       #66
      00FF2856H   LINE      CODE     ---       #67
      ---         BLOCKEND  ---      ---       LVL=0

      00FF2857H   BLOCK     CODE     ---       LVL=0
      WR6         REGSYM    ---      WORD      value
      00FF2857H   LINE      CODE     ---       #69
      00FF2857H   LINE      CODE     ---       #70
      00FF2857H   LINE      CODE     ---       #71
      00FF2857H   LINE      CODE     ---       #73
      00FF285FH   LINE      CODE     ---       #75
      00FF2862H   LINE      CODE     ---       #76
      00FF2863H   LINE      CODE     ---       #77
      00FF2864H   LINE      CODE     ---       #79
      00FF2868H   LINE      CODE     ---       #80
      00FF286BH   LINE      CODE     ---       #82
      00FF2877H   LINE      CODE     ---       #83
      00FF2877H   LINE      CODE     ---       #84
      ---         BLOCKEND  ---      ---       LVL=0

      00FF28D7H   BLOCK     CODE     ---       LVL=0
      WR6         REGSYM    ---      WORD      value
      00FF28D7H   LINE      CODE     ---       #86
      00FF28D7H   LINE      CODE     ---       #87
      00FF28D7H   LINE      CODE     ---       #88
      00FF28D7H   LINE      CODE     ---       #90
      00FF28DAH   LINE      CODE     ---       #92
      00FF28DDH   LINE      CODE     ---       #93
      00FF28DEH   LINE      CODE     ---       #94
      00FF28DFH   LINE      CODE     ---       #96
      00FF28E3H   LINE      CODE     ---       #97
L251 LINKER/LOCATER V4.66.93.0                                                        08/01/2023  00:54:48  PAGE 43


      00FF28E6H   LINE      CODE     ---       #99
      00FF28F2H   LINE      CODE     ---       #100
      00FF28F2H   LINE      CODE     ---       #101
      ---         BLOCKEND  ---      ---       LVL=0

      ---         MODULE    ---      ---       LineFollower
      00FF184FH   PUBLIC    CODE     ---       ReadLine
      0000012EH   PUBLIC    EDATA    BYTE      read_value
      000000D0H   SFRSYM    DATA     BYTE      PSW
      0000009DH   SFRSYM    DATA     BYTE      IRCBAND
      00000097H   SFRSYM    DATA     BYTE      AUXR2
      000000C8H.2 SFRSYM    DATA     BIT       det_R
      000000EFH   SFRSYM    DATA     BYTE      AUXINTIF
      00000080H.6 SFRSYM    DATA     BIT       det_L
      000000FDH   SFRSYM    DATA     BYTE      S4CON
      000000ACH   SFRSYM    DATA     BYTE      S3CON
      0000009AH   SFRSYM    DATA     BYTE      S2CON
      000000B7H   SFRSYM    DATA     BYTE      IPH
      000000CDH   SFRSYM    DATA     BYTE      SPSTAT
      00000080H.7 SFRSYM    DATA     BIT       det_C
      000000DDH   SFRSYM    DATA     BYTE      T4T3M
      000000C1H   SFRSYM    DATA     BYTE      WDT_CONTR
      000000DFH   SFRSYM    DATA     BYTE      IP3
      000000F4H   SFRSYM    DATA     BYTE      USBCON
      000000B5H   SFRSYM    DATA     BYTE      IP2
      000000FFH   SFRSYM    DATA     BYTE      RSTCFG
      000000C7H   SFRSYM    DATA     BYTE      IAP_CONTR
      000000F9H   SFRSYM    DATA     BYTE      LINICR
      0000008EH   SFRSYM    DATA     BYTE      AUXR
      000000AFH   SFRSYM    DATA     BYTE      IE2
      00000088H   SFRSYM    DATA     BYTE      TCON
      00000089H   SFRSYM    DATA     BYTE      TMOD
      00000098H   SFRSYM    DATA     BYTE      SCON
      000000C8H.3 SFRSYM    DATA     BIT       det_CR
      000000F1H   SFRSYM    DATA     BYTE      CANICR
      00000087H   SFRSYM    DATA     BYTE      PCON
      000000BCH   SFRSYM    DATA     BYTE      ADC_CONTR
      00000080H.5 SFRSYM    DATA     BIT       det_CL
      000000E7H   SFRSYM    DATA     BYTE      CMPCR2
      000000E6H   SFRSYM    DATA     BYTE      CMPCR1
      000000DEH   SFRSYM    DATA     BYTE      ADCCFG
      000000B8H   SFRSYM    DATA     BYTE      IP
      0000008FH   SFRSYM    DATA     BYTE      INTCLKO
      000000EEH   SFRSYM    DATA     BYTE      IP3H
      000000B6H   SFRSYM    DATA     BYTE      IP2H
      000000A8H   SFRSYM    DATA     BYTE      IE
      000000BBH   SFRSYM    DATA     BYTE      P_SW3
      000000BAH   SFRSYM    DATA     BYTE      P_SW2
      000000A2H   SFRSYM    DATA     BYTE      P_SW1
      000000CEH   SFRSYM    DATA     BYTE      SPCTL
      000000F8H   SFRSYM    DATA     BYTE      P7
      000000E8H   SFRSYM    DATA     BYTE      P6
      000000C8H   SFRSYM    DATA     BYTE      P5
      000000C0H   SFRSYM    DATA     BYTE      P4
      000000B0H   SFRSYM    DATA     BYTE      P3
      000000A0H   SFRSYM    DATA     BYTE      P2
      00000090H   SFRSYM    DATA     BYTE      P1
      00000080H   SFRSYM    DATA     BYTE      P0

      00FF184FH   BLOCK     CODE     ---       LVL=0
      R10         REGSYM    ---      BYTE      read_value
      R11         REGSYM    ---      CHAR      return_value
      00FF184FH   LINE      CODE     ---       #4
      00FF184FH   LINE      CODE     ---       #5
      00FF184FH   LINE      CODE     ---       #6
L251 LINKER/LOCATER V4.66.93.0                                                        08/01/2023  00:54:48  PAGE 44


      00FF184FH   LINE      CODE     ---       #7
      00FF184FH   LINE      CODE     ---       #9
      00FF1856H   LINE      CODE     ---       #10
      00FF185BH   LINE      CODE     ---       #12
      00FF185DH   LINE      CODE     ---       #14
      00FF1864H   LINE      CODE     ---       #15
      00FF1869H   LINE      CODE     ---       #17
      00FF186CH   LINE      CODE     ---       #19
      00FF1873H   LINE      CODE     ---       #20
      00FF1878H   LINE      CODE     ---       #22
      00FF187BH   LINE      CODE     ---       #24
      00FF1882H   LINE      CODE     ---       #25
      00FF1887H   LINE      CODE     ---       #27
      00FF188AH   LINE      CODE     ---       #29
      00FF1891H   LINE      CODE     ---       #30
      00FF1896H   LINE      CODE     ---       #32
      00FF1899H   LINE      CODE     ---       #34
      00FF1909H   LINE      CODE     ---       #36
      00FF1909H   LINE      CODE     ---       #37
      00FF190AH   LINE      CODE     ---       #38
      00FF190BH   LINE      CODE     ---       #39
      00FF190BH   LINE      CODE     ---       #40
      00FF190DH   LINE      CODE     ---       #41
      00FF190EH   LINE      CODE     ---       #42
      00FF190EH   LINE      CODE     ---       #43
      00FF1910H   LINE      CODE     ---       #44
      00FF1911H   LINE      CODE     ---       #45
      00FF1911H   LINE      CODE     ---       #46
      00FF1913H   LINE      CODE     ---       #47
      00FF1914H   LINE      CODE     ---       #48
      00FF1914H   LINE      CODE     ---       #49
      00FF1916H   LINE      CODE     ---       #50
      00FF1917H   LINE      CODE     ---       #51
      00FF1917H   LINE      CODE     ---       #52
      00FF1919H   LINE      CODE     ---       #53
      00FF191AH   LINE      CODE     ---       #54
      00FF191AH   LINE      CODE     ---       #55
      00FF191CH   LINE      CODE     ---       #56
      00FF191DH   LINE      CODE     ---       #57
      00FF191DH   LINE      CODE     ---       #58
      00FF191FH   LINE      CODE     ---       #59
      00FF1920H   LINE      CODE     ---       #60
      00FF1920H   LINE      CODE     ---       #61
      00FF1922H   LINE      CODE     ---       #62
      00FF1923H   LINE      CODE     ---       #63
      00FF1923H   LINE      CODE     ---       #64
      00FF1925H   LINE      CODE     ---       #65
      00FF1926H   LINE      CODE     ---       #66
      00FF1926H   LINE      CODE     ---       #67
      00FF1928H   LINE      CODE     ---       #68
      00FF1928H   LINE      CODE     ---       #69
      00FF1928H   LINE      CODE     ---       #71
      00FF1928H   LINE      CODE     ---       #72
      ---         BLOCKEND  ---      ---       LVL=0

      ---         MODULE    ---      ---       MPU6050
      00FF29B6H   PUBLIC    CODE     ---       I2C_RecvACK
      00FF2A67H   PUBLIC    CODE     ---       Delay2us
      00FF28F3H   PUBLIC    CODE     ---       Single_WriteI2C
      00FF2235H   PUBLIC    CODE     ---       Read_MPU6050
      00FF292AH   PUBLIC    CODE     ---       I2C_Start
      00FF2878H   PUBLIC    CODE     ---       Delay50ms
      00FF2813H   PUBLIC    CODE     ---       I2C_SendByte
      00FF2A3EH   PUBLIC    CODE     ---       I2C_Stop
      00FF27EDH   PUBLIC    CODE     ---       I2C_RecvByte
L251 LINKER/LOCATER V4.66.93.0                                                        08/01/2023  00:54:48  PAGE 45


      00FF2584H   PUBLIC    CODE     ---       InitMPU6050
      000000D0H   SFRSYM    DATA     BYTE      PSW
      0000009DH   SFRSYM    DATA     BYTE      IRCBAND
      00000097H   SFRSYM    DATA     BYTE      AUXR2
      000000EFH   SFRSYM    DATA     BYTE      AUXINTIF
      000000FDH   SFRSYM    DATA     BYTE      S4CON
      000000ACH   SFRSYM    DATA     BYTE      S3CON
      0000009AH   SFRSYM    DATA     BYTE      S2CON
      000000A0H   SFRSYM    ---      BIT       SCL
      000000B7H   SFRSYM    DATA     BYTE      IPH
      000000CDH   SFRSYM    DATA     BYTE      SPSTAT
      000000DDH   SFRSYM    DATA     BYTE      T4T3M
      000000C1H   SFRSYM    DATA     BYTE      WDT_CONTR
      000000A0H.2 SFRSYM    ---      BIT       SDA
      000000DFH   SFRSYM    DATA     BYTE      IP3
      000000F4H   SFRSYM    DATA     BYTE      USBCON
      000000B5H   SFRSYM    DATA     BYTE      IP2
      000000FFH   SFRSYM    DATA     BYTE      RSTCFG
      000000C7H   SFRSYM    DATA     BYTE      IAP_CONTR
      000000F9H   SFRSYM    DATA     BYTE      LINICR
      0000008EH   SFRSYM    DATA     BYTE      AUXR
      000000AFH   SFRSYM    DATA     BYTE      IE2
      00000088H   SFRSYM    DATA     BYTE      TCON
      00000089H   SFRSYM    DATA     BYTE      TMOD
      00000098H   SFRSYM    DATA     BYTE      SCON
      000000F1H   SFRSYM    DATA     BYTE      CANICR
      00000087H   SFRSYM    DATA     BYTE      PCON
      000000BCH   SFRSYM    DATA     BYTE      ADC_CONTR
      000000E7H   SFRSYM    DATA     BYTE      CMPCR2
      000000E6H   SFRSYM    DATA     BYTE      CMPCR1
      000000D0H.7 SFRSYM    DATA     BIT       CY
      000000DEH   SFRSYM    DATA     BYTE      ADCCFG
      000000B8H   SFRSYM    DATA     BYTE      IP
      0000008FH   SFRSYM    DATA     BYTE      INTCLKO
      000000EEH   SFRSYM    DATA     BYTE      IP3H
      000000B6H   SFRSYM    DATA     BYTE      IP2H
      000000A8H   SFRSYM    DATA     BYTE      IE
      000000BBH   SFRSYM    DATA     BYTE      P_SW3
      000000BAH   SFRSYM    DATA     BYTE      P_SW2
      000000A2H   SFRSYM    DATA     BYTE      P_SW1
      000000CEH   SFRSYM    DATA     BYTE      SPCTL
      000000F8H   SFRSYM    DATA     BYTE      P7
      000000E8H   SFRSYM    DATA     BYTE      P6
      000000C8H   SFRSYM    DATA     BYTE      P5
      000000C0H   SFRSYM    DATA     BYTE      P4
      000000B0H   SFRSYM    DATA     BYTE      P3
      000000A0H   SFRSYM    DATA     BYTE      P2
      00000090H   SFRSYM    DATA     BYTE      P1
      00000080H   SFRSYM    DATA     BYTE      P0

      00FF2A67H   BLOCK     CODE     ---       LVL=0
      R10         REGSYM    ---      BYTE      i
      00FF2A67H   LINE      CODE     ---       #25
      00FF2A67H   LINE      CODE     ---       #26
      00FF2A67H   LINE      CODE     ---       #28
      00FF2A6AH   LINE      CODE     ---       #29
      00FF2A71H   LINE      CODE     ---       #30
      ---         BLOCKEND  ---      ---       LVL=0

      00FF2878H   BLOCK     CODE     ---       LVL=0
      R10         REGSYM    ---      BYTE      i
      R7          REGSYM    ---      BYTE      j
      R6          REGSYM    ---      BYTE      k
      00FF2878H   LINE      CODE     ---       #32
      00FF2878H   LINE      CODE     ---       #33
L251 LINKER/LOCATER V4.66.93.0                                                        08/01/2023  00:54:48  PAGE 46


      00FF2878H   LINE      CODE     ---       #36
      00FF2879H   LINE      CODE     ---       #37
      00FF287AH   LINE      CODE     ---       #38
      00FF287DH   LINE      CODE     ---       #39
      00FF2880H   LINE      CODE     ---       #40
      00FF2883H   LINE      CODE     ---       #41
      00FF2883H   LINE      CODE     ---       #43
      00FF2883H   LINE      CODE     ---       #45
      00FF288AH   LINE      CODE     ---       #46
      00FF2891H   LINE      CODE     ---       #47
      00FF2898H   LINE      CODE     ---       #48
      ---         BLOCKEND  ---      ---       LVL=0

      00FF292AH   BLOCK     CODE     ---       LVL=0
      00FF292AH   LINE      CODE     ---       #55
      00FF292AH   LINE      CODE     ---       #57
      00FF292DH   LINE      CODE     ---       #58
      00FF2930H   LINE      CODE     ---       #59
      00FF2932H   LINE      CODE     ---       #60
      00FF2934H   LINE      CODE     ---       #61
      00FF2937H   LINE      CODE     ---       #62
      00FF293AH   LINE      CODE     ---       #63
      00FF293CH   LINE      CODE     ---       #64
      00FF293FH   LINE      CODE     ---       #65
      00FF2941H   LINE      CODE     ---       #66
      ---         BLOCKEND  ---      ---       LVL=0

      00FF2A3EH   BLOCK     CODE     ---       LVL=0
      00FF2A3EH   LINE      CODE     ---       #72
      00FF2A3EH   LINE      CODE     ---       #74
      00FF2A41H   LINE      CODE     ---       #75
      00FF2A43H   LINE      CODE     ---       #76
      00FF2A45H   LINE      CODE     ---       #77
      00FF2A48H   LINE      CODE     ---       #78
      00FF2A4AH   LINE      CODE     ---       #79
      ---         BLOCKEND  ---      ---       LVL=0

      00FF29B6H   BLOCK     CODE     ---       LVL=0
      00FF29B6H   LINE      CODE     ---       #85
      00FF29B6H   LINE      CODE     ---       #87
      00FF29B8H   LINE      CODE     ---       #88
      00FF29BBH   LINE      CODE     ---       #89
      00FF29BDH   LINE      CODE     ---       #90
      00FF29C0H   LINE      CODE     ---       #91
      00FF29C4H   LINE      CODE     ---       #92
      00FF29C6H   LINE      CODE     ---       #93
      00FF29C9H   LINE      CODE     ---       #94
      00FF29CBH   LINE      CODE     ---       #95
      ---         BLOCKEND  ---      ---       LVL=0

      00FF2813H   BLOCK     CODE     ---       LVL=0
      R15         REGSYM    ---      BYTE      dat
      00FF2817H   BLOCK     CODE     NEAR LAB  LVL=1
      R14         REGSYM    ---      BYTE      i
      ---         BLOCKEND  ---      ---       LVL=1
      00FF2813H   LINE      CODE     ---       #100
      00FF2817H   LINE      CODE     ---       #101
      00FF2817H   LINE      CODE     ---       #103
      00FF2819H   LINE      CODE     ---       #105
      00FF281BH   LINE      CODE     ---       #106
      00FF281FH   LINE      CODE     ---       #107
      00FF2821H   LINE      CODE     ---       #108
      00FF2824H   LINE      CODE     ---       #109
      00FF2826H   LINE      CODE     ---       #110
      00FF2829H   LINE      CODE     ---       #111
L251 LINKER/LOCATER V4.66.93.0                                                        08/01/2023  00:54:48  PAGE 47


      00FF2830H   LINE      CODE     ---       #112
      00FF2833H   LINE      CODE     ---       #113
      ---         BLOCKEND  ---      ---       LVL=0

      00FF27EDH   BLOCK     CODE     ---       LVL=0
      00FF27EFH   BLOCK     CODE     NEAR LAB  LVL=1
      R14         REGSYM    ---      BYTE      i
      R15         REGSYM    ---      BYTE      dat
      ---         BLOCKEND  ---      ---       LVL=1
      00FF27EDH   LINE      CODE     ---       #118
      00FF27EFH   LINE      CODE     ---       #119
      00FF27EFH   LINE      CODE     ---       #121
      00FF27F1H   LINE      CODE     ---       #122
      00FF27F3H   LINE      CODE     ---       #123
      00FF27F5H   LINE      CODE     ---       #125
      00FF27F7H   LINE      CODE     ---       #126
      00FF27F9H   LINE      CODE     ---       #127
      00FF27FCH   LINE      CODE     ---       #128
      00FF2802H   LINE      CODE     ---       #129
      00FF2804H   LINE      CODE     ---       #130
      00FF2807H   LINE      CODE     ---       #131
      00FF280EH   LINE      CODE     ---       #132
      00FF2810H   LINE      CODE     ---       #133
      ---         BLOCKEND  ---      ---       LVL=0

      00FF28F3H   BLOCK     CODE     ---       LVL=0
      R14         REGSYM    ---      BYTE      REG_Address
      R15         REGSYM    ---      BYTE      REG_data
      00FF28F3H   LINE      CODE     ---       #138
      00FF28F7H   LINE      CODE     ---       #140
      00FF28FAH   LINE      CODE     ---       #141
      00FF28FFH   LINE      CODE     ---       #142
      00FF2904H   LINE      CODE     ---       #143
      00FF2909H   LINE      CODE     ---       #144
      00FF290CH   LINE      CODE     ---       #145
      ---         BLOCKEND  ---      ---       LVL=0

      00FF2584H   BLOCK     CODE     ---       LVL=0
      00FF2584H   LINE      CODE     ---       #174
      00FF2584H   LINE      CODE     ---       #177
      00FF2587H   LINE      CODE     ---       #178
      00FF258AH   LINE      CODE     ---       #179
      00FF258DH   LINE      CODE     ---       #180
      00FF2590H   LINE      CODE     ---       #182
      00FF2598H   LINE      CODE     ---       #183
      00FF259BH   LINE      CODE     ---       #184
      00FF25A2H   LINE      CODE     ---       #185
      00FF25AAH   LINE      CODE     ---       #186
      00FF25B2H   LINE      CODE     ---       #187
      00FF25BAH   LINE      CODE     ---       #188
      ---         BLOCKEND  ---      ---       LVL=0

      00FF2235H   BLOCK     CODE     ---       LVL=0
      REG=3       REGSYM    ---      ---       buf
      00FF2239H   BLOCK     CODE     NEAR LAB  LVL=1
      000000D3H   SYMBOL    EDATA    BYTE      i
      ---         BLOCKEND  ---      ---       LVL=1
      00FF2235H   LINE      CODE     ---       #205
      00FF2239H   LINE      CODE     ---       #206
      00FF2239H   LINE      CODE     ---       #209
      00FF223CH   LINE      CODE     ---       #210
      00FF2241H   LINE      CODE     ---       #211
      00FF2246H   LINE      CODE     ---       #212
      00FF2249H   LINE      CODE     ---       #213
      00FF224EH   LINE      CODE     ---       #214
L251 LINKER/LOCATER V4.66.93.0                                                        08/01/2023  00:54:48  PAGE 48


      00FF2253H   LINE      CODE     ---       #216
      00FF2263H   LINE      CODE     ---       #217
      00FF2265H   LINE      CODE     ---       #218
      00FF2267H   LINE      CODE     ---       #219
      00FF226AH   LINE      CODE     ---       #220
      00FF226CH   LINE      CODE     ---       #221
      00FF226FH   LINE      CODE     ---       #222
      00FF2281H   LINE      CODE     ---       #223
      00FF2291H   LINE      CODE     ---       #224
      00FF2293H   LINE      CODE     ---       #225
      00FF2295H   LINE      CODE     ---       #226
      00FF2298H   LINE      CODE     ---       #227
      00FF229AH   LINE      CODE     ---       #228
      00FF229DH   LINE      CODE     ---       #229
      00FF22A0H   LINE      CODE     ---       #230
      ---         BLOCKEND  ---      ---       LVL=0

      ---         MODULE    ---      ---       ?C?FPADD
      00FF002CH   PUBLIC    CODE     ---       ?C?FPADD
      00FF0029H   PUBLIC    CODE     ---       ?C?FPSUB

      ---         MODULE    ---      ---       ?C?FPMUL
      00FF00E4H   PUBLIC    CODE     ---       ?C?FPMUL

      ---         MODULE    ---      ---       ?C?FPDIV
      00FF0184H   PUBLIC    CODE     ---       ?C?FPDIV

      ---         MODULE    ---      ---       ?C?FPNEG
      00FF0205H   PUBLIC    CODE     ---       ?C?FPNEG

      ---         MODULE    ---      ---       ?C?FCAST
      00FF021DH   PUBLIC    CODE     NEAR LAB  ?C?FCASTC
      00FF0218H   PUBLIC    CODE     NEAR LAB  ?C?FCASTI
      00FF0213H   PUBLIC    CODE     NEAR LAB  ?C?FCASTL

      ---         MODULE    ---      ---       ?C?CASTF
      00FF0250H   PUBLIC    CODE     NEAR LAB  ?C?CASTF

      ---         MODULE    ---      ---       SPRINTF
      000000FBH   PUBLIC    EDATA    ---       ?SPRINTF?BYTE
      00FF028DH   PUBLIC    CODE     NEAR LAB  SPRINTF

      ---         MODULE    ---      ---       SQRT?_
      00FF02ADH   PUBLIC    CODE     ---       SQRT?_

      ---         MODULE    ---      ---       ASIN?_
      00FF033DH   PUBLIC    CODE     ---       ASIN?_

      ---         MODULE    ---      ---       atan2
      00FF253FH   PUBLIC    CODE     ---       atan2?_

      ---         MODULE    ---      ---       ?C?FPGETOPN
      00FF035DH   PUBLIC    CODE     ---       ?C?FPGETOPN2
      00FF039AH   PUBLIC    CODE     ---       ?C?FPNANRESULT
      00FF03A2H   PUBLIC    CODE     ---       ?C?FPOVERFLOW
      00FF0376H   PUBLIC    CODE     ---       ?C?FPRESULT
      00FF038CH   PUBLIC    CODE     ---       ?C?FPRESULT2
      00FF039FH   PUBLIC    CODE     ---       ?C?FPUNDERFLOW

      ---         MODULE    ---      ---       ?C?FPCMP
      00FF03B0H   PUBLIC    CODE     ---       ?C?FPCMP
      00FF03AEH   PUBLIC    CODE     ---       ?C?FPCMP3

      ---         MODULE    ---      ---       ?C?PRNFMT
      00FF0421H   PUBLIC    CODE     ---       ?C?PRNFMT
L251 LINKER/LOCATER V4.66.93.0                                                        08/01/2023  00:54:48  PAGE 49



      ---         MODULE    ---      ---       ATAN?_
      00FF0850H   PUBLIC    CODE     ---       ATAN?_

      ---         MODULE    ---      ---       ?C?FPCONVERT
      00FF0930H   PUBLIC    CODE     ---       ?C?FPCONVERT
      00FF09E8H   PUBLIC    CODE     ---       ?C?FPROUND

      ---         MODULE    ---      ---       ?C?FPSERIES
      00FF0A2BH   PUBLIC    CODE     ---       ?C?FP2SERIES
      00FF0A34H   PUBLIC    CODE     ---       ?C?FPSERIES

      ---         MODULE    ---      ---       ?C?FTNPWR
      00FF0A88H   PUBLIC    CODE     ---       ?C?FTNPWR

      ---         MODULE    ---      ---       ?C_START
      00FF0000H   PUBLIC    CODE     ---       ?C?STARTUP
      00FF0000H   PUBLIC    CODE     ---       ?C_STARTUP

      ---         MODULE    ---      ---       ?C?INITEDATA
      00FF20E6H   PUBLIC    CODE     ---       ?C?INITEDATA

      ---         MODULE    ---      ---       ?C?INITHDATA
      00FF210FH   PUBLIC    CODE     ---       ?C?INITHDATA

      ---         MODULE    ---      ---       ?C?LIMUL
      00FF0ABFH   PUBLIC    CODE     ---       ?C?LIMUL

      ---         MODULE    ---      ---       ?C?ULDIV
      00FF0ACAH   PUBLIC    CODE     NEAR LAB  ?C?ULDIV
      00FF0AC8H   PUBLIC    CODE     NEAR LAB  ?C?ULIDIV

      ---         MODULE    ---      ---       ?C?INITEDATA_END
      00FF2B95H   PUBLIC    HCONST   WORD      ?C?INITEDATA_END

      ---         MODULE    ---      ---       ?C?INITHDATA_END
      00FF2CCBH   PUBLIC    HCONST   WORD      ?C?INITHDATA_END



*** WARNING L46: SFR SYMBOL HAS DIFFERENT VALUES
    SYMBOL:  SCL
    MODULE:  MPU6050.obj (MPU6050)
   DEFINED:  iic.obj (iic)

*** WARNING L46: SFR SYMBOL HAS DIFFERENT VALUES
    SYMBOL:  SDA
    MODULE:  MPU6050.obj (MPU6050)
   DEFINED:  iic.obj (iic)

*** WARNING L57: UNCALLED FUNCTION, IGNORED FOR OVERLAY PROCESS
    NAME:    OLED_DisPlay_Off/oled

*** WARNING L57: UNCALLED FUNCTION, IGNORED FOR OVERLAY PROCESS
    NAME:    OLED_Display_128x64/oled

*** WARNING L57: UNCALLED FUNCTION, IGNORED FOR OVERLAY PROCESS
    NAME:    OLED_DisPlay_On/oled

*** WARNING L57: UNCALLED FUNCTION, IGNORED FOR OVERLAY PROCESS
    NAME:    Meun_2_control/Meun

*** WARNING L57: UNCALLED FUNCTION, IGNORED FOR OVERLAY PROCESS
    NAME:    Meun_2_angle/Meun

L251 LINKER/LOCATER V4.66.93.0                                                        08/01/2023  00:54:48  PAGE 50


*** WARNING L57: UNCALLED FUNCTION, IGNORED FOR OVERLAY PROCESS
    NAME:    Memu/Meun

*** WARNING L57: UNCALLED FUNCTION, IGNORED FOR OVERLAY PROCESS
    NAME:    Meun_2_speed/Meun

*** WARNING L57: UNCALLED FUNCTION, IGNORED FOR OVERLAY PROCESS
    NAME:    Meun_2_Pitching/Meun

*** WARNING L57: UNCALLED FUNCTION, IGNORED FOR OVERLAY PROCESS
    NAME:    rotary_encoder/Encoders

*** WARNING L57: UNCALLED FUNCTION, IGNORED FOR OVERLAY PROCESS
    NAME:    Cancel_determine/Encoders

*** WARNING L57: UNCALLED FUNCTION, IGNORED FOR OVERLAY PROCESS
    NAME:    Key_Init/key

*** WARNING L57: UNCALLED FUNCTION, IGNORED FOR OVERLAY PROCESS
    NAME:    delay/timer

*** WARNING L57: UNCALLED FUNCTION, IGNORED FOR OVERLAY PROCESS
    NAME:    Uart_String/Uart

*** WARNING L57: UNCALLED FUNCTION, IGNORED FOR OVERLAY PROCESS
    NAME:    Hall_element/iic

*** WARNING L57: UNCALLED FUNCTION, IGNORED FOR OVERLAY PROCESS
    NAME:    IIC_SendAck/iic

*** WARNING L57: UNCALLED FUNCTION, IGNORED FOR OVERLAY PROCESS
    NAME:    Motor_FRcontrol/motor

*** WARNING L57: UNCALLED FUNCTION, IGNORED FOR OVERLAY PROCESS
    NAME:    ADC_Readchannel_1/ADC

*** WARNING L57: UNCALLED FUNCTION, IGNORED FOR OVERLAY PROCESS
    NAME:    ADC_Readchannel_2/ADC

*** WARNING L57: UNCALLED FUNCTION, IGNORED FOR OVERLAY PROCESS
    NAME:    ADC_Readchannel_3/ADC

*** WARNING L57: UNCALLED FUNCTION, IGNORED FOR OVERLAY PROCESS
    NAME:    ADC_Read/ADC

*** WARNING L57: UNCALLED FUNCTION, IGNORED FOR OVERLAY PROCESS
    NAME:    ADC_Init/ADC

Program Size: data=24.7 edata+hdata=534 xdata=14 const=573 code=10917
L251 RUN COMPLETE.  23 WARNING(S),  0 ERROR(S)
