L251 LINKER/LOCATER V4.66.93.0                                                          07/19/2023  21:16:02  PAGE 1


L251 LINKER/LOCATER V4.66.93.0, INVOKED BY:
D:\SOFTWARE\WORKSOFTWARE\KEIL5_C251\C251\BIN\L251.EXE main.obj, oled.obj, Meun.obj, Encoders.obj, timer.obj, Uart.obj, i
>> ic.obj, pwm.obj, GPIO.obj, motor.obj, ADC.obj TO LED CASE CLASSES (EDATA (0X0-0XFFF), HDATA (0X0-0XFFF))


CPU MODE:     251 SOURCE MODE
INTR FRAME:   2 BYTES SAVED ON INTERRUPT
MEMORY MODEL: XSMALL WITH FLOATING POINT ARITHMETIC


INPUT MODULES INCLUDED:
  main.obj (main)
         COMMENT TYPE 0: C251 V5.60.0
  oled.obj (oled)
         COMMENT TYPE 0: C251 V5.60.0
  Meun.obj (Meun)
         COMMENT TYPE 0: C251 V5.60.0
  Encoders.obj (Encoders)
         COMMENT TYPE 0: C251 V5.60.0
  timer.obj (timer)
         COMMENT TYPE 0: C251 V5.60.0
  Uart.obj (Uart)
         COMMENT TYPE 0: C251 V5.60.0
  iic.obj (iic)
         COMMENT TYPE 0: C251 V5.60.0
  pwm.obj (pwm)
         COMMENT TYPE 0: C251 V5.60.0
  GPIO.obj (GPIO)
         COMMENT TYPE 0: C251 V5.60.0
  motor.obj (motor)
         COMMENT TYPE 0: C251 V5.60.0
  ADC.obj (ADC)
         COMMENT TYPE 0: C251 V5.60.0
  D:\SOFTWARE\WORKSOFTWARE\KEIL5_C251\C251\LIB\C2SFPXS.LIB (?C?FPMUL)
         COMMENT TYPE 0: A251 V4.69.6.0
  D:\SOFTWARE\WORKSOFTWARE\KEIL5_C251\C251\LIB\C2SFPXS.LIB (?C?FPDIV)
         COMMENT TYPE 0: A251 V4.69.6.0
  D:\SOFTWARE\WORKSOFTWARE\KEIL5_C251\C251\LIB\C2SFPXS.LIB (?C?FCAST)
         COMMENT TYPE 0: A251 V4.69.6.0
  D:\SOFTWARE\WORKSOFTWARE\KEIL5_C251\C251\LIB\C2SFPXS.LIB (?C?CASTF)
         COMMENT TYPE 0: A251 V4.69.6.0
  D:\SOFTWARE\WORKSOFTWARE\KEIL5_C251\C251\LIB\C2SFPXS.LIB (SPRINTF)
         COMMENT TYPE 0: A251 V4.69.6.0
  D:\SOFTWARE\WORKSOFTWARE\KEIL5_C251\C251\LIB\C2SFPXS.LIB (?C?FPGETOPN)
         COMMENT TYPE 0: A251 V4.69.6.0
  D:\SOFTWARE\WORKSOFTWARE\KEIL5_C251\C251\LIB\C2SFPXS.LIB (?C?PRNFMT)
         COMMENT TYPE 0: A251 V4.69.6.0
  D:\SOFTWARE\WORKSOFTWARE\KEIL5_C251\C251\LIB\C2SFPXS.LIB (?C?FPCONVERT)
         COMMENT TYPE 0: A251 V4.69.6.0
  D:\SOFTWARE\WORKSOFTWARE\KEIL5_C251\C251\LIB\C2SFPXS.LIB (?C?FTNPWR)
         COMMENT TYPE 0: A251 V4.69.6.0
  D:\SOFTWARE\WORKSOFTWARE\KEIL5_C251\C251\LIB\C2SXS.LIB (?C_START)
         COMMENT TYPE 0: A251 V4.69.6.0
  D:\SOFTWARE\WORKSOFTWARE\KEIL5_C251\C251\LIB\C2SXS.LIB (?C?INITEDATA)
         COMMENT TYPE 0: A251 V4.69.6.0
  D:\SOFTWARE\WORKSOFTWARE\KEIL5_C251\C251\LIB\C2SXS.LIB (?C?LIMUL)
         COMMENT TYPE 0: A251 V4.69.6.0
  D:\SOFTWARE\WORKSOFTWARE\KEIL5_C251\C251\LIB\C2SXS.LIB (?C?ULDIV)
         COMMENT TYPE 0: A251 V4.69.6.0
  D:\SOFTWARE\WORKSOFTWARE\KEIL5_C251\C251\LIB\C2SXS.LIB (?C?INITEDATA_END)
         COMMENT TYPE 0: A251 V4.69.6.0


ACTIVE MEMORY CLASSES OF MODULE:  LED (main)

BASE        START       END         USED      MEMORY CLASS
L251 LINKER/LOCATER V4.66.93.0                                                        07/19/2023  21:16:02  PAGE 2


==========================================================
000000H     000000H     000FFFH     0001BBH   EDATA
000000H     000000H     000FFFH               HDATA
000000H     FF0000H     FFFFFFH     000139H   HCONST
FF0000H     FF0000H     FFFFFFH     001C12H   CODE
000020H.0   000020H.0   00002FH.7   000000H.7 BIT
FF0000H     FF0000H     FFFFFFH     000004H   CONST
000000H     000000H     00007FH     000008H   DATA


MEMORY MAP OF MODULE:  LED (main)


START     STOP      LENGTH    ALIGN  RELOC    MEMORY CLASS   SEGMENT NAME
=========================================================================
000000H   000007H   000008H   ---    AT..     DATA           "REG BANK 0"
000008H   000015H   00000EH   BYTE   UNIT     EDATA          ?ED?OLED_DISPLAY_STRING_5X7?OLED
000016H   00001DH   000008H   BYTE   UNIT     EDATA          ?ED?OLED_SHOWNUM?OLED
00001EH   00001FH   000002H   BYTE   UNIT     EDATA          ?ED?OLED_DISPLAY_128X64?OLED
000020H.0 000020H.4 000000H.5 BIT    UNIT     BIT            ?BI?ENCODERS
000020H.5 000020H.5 000000H.1 BIT    UNIT     BIT            ?BI?IIC_SENDACK?IIC
000020H.6 000020H.6 000000H.1 BIT    UNIT     BIT            ?BI?IIC_WAITACK?IIC
000020H.7 000020H   000000H.1 ---    ---      **GAP**
000021H   000056H   000036H   BYTE   UNIT     EDATA          ?ED?OLED_16X16?OLED
000057H   00007EH   000028H   BYTE   UNIT     EDATA          _EDATA_GROUP_
00007FH   00009AH   00001CH   BYTE   UNIT     EDATA          ?ED?MAIN
00009BH   0000A8H   00000EH   BYTE   UNIT     EDATA          ?ED?ENCODERS
0000A9H   0000ADH   000005H   BYTE   UNIT     EDATA          ?ED?OLED_GET_DATA_FROM_ROM?OLED
0000AEH   0000B1H   000004H   BYTE   UNIT     EDATA          ?ED?OLED
0000B2H   0000B5H   000004H   BYTE   UNIT     EDATA          ?ED?OLED_DISPLAY_16X16?OLED
0000B6H   0000B9H   000004H   BYTE   UNIT     EDATA          ?ED?OLED_DISPLAY_8X16?OLED
0000BAH   0000BDH   000004H   BYTE   UNIT     EDATA          ?ED?PWM
0000BEH   0000BFH   000002H   BYTE   UNIT     EDATA          ?ED?MEUN
0000C0H   0000C1H   000002H   BYTE   UNIT     EDATA          ?ED?TIMER
0000C2H   0000C2H   000001H   BYTE   UNIT     EDATA          ?ED?OLED_DISPLAY_5X7?OLED
0000C3H   0000C3H   000001H   BYTE   UNIT     EDATA          ?ED?ADC
0000C4H   0001C3H   000100H   BYTE   UNIT     EDATA          ?STACK
0001C4H   FEFFFFH   FEFE3CH   ---    ---      **GAP**
FF0000H   FF0002H   000003H   ---    OFFS..   CODE           ?CO?start251?4
FF0003H   FF0019H   000017H   BYTE   INSEG    CODE           ?PR?GET_DATA_FROM_ROM?OLED
FF001AH   FF001AH   000001H   ---    ---      **GAP**
FF001BH   FF001DH   000003H   ---    OFFS..   CODE           ?PR?IV?3
FF001EH   FF0021H   000004H   BYTE   UNIT     CONST          ?CO?PRINTF
FF0022H   FF0022H   000001H   ---    ---      **GAP**
FF0023H   FF0025H   000003H   ---    OFFS..   CODE           ?PR?IV?4
FF0026H   FF0839H   000814H   BYTE   UNIT     CODE           ?C?LIB_CODE
FF083AH   FF0A62H   000229H   BYTE   INSEG    CODE           ?PR?OLED_16X16?OLED
FF0A63H   FF0C2DH   0001CBH   BYTE   INSEG    CODE           ?PR?MAIN_MEUN?MEUN
FF0C2EH   FF0DA2H   000175H   BYTE   INSEG    CODE           ?PR?SECOND_MENU_VALUE?ENCODERS
FF0DA3H   FF0EDFH   00013DH   BYTE   INSEG    CODE           ?PR?OLED_SHOWNUM?OLED
FF0EE0H   FF0FA2H   0000C3H   BYTE   INSEG    CODE           ?PR?OLED_INIT?OLED
FF0FA3H   FF1055H   0000B3H   BYTE   INSEG    CODE           ?PR?MEMU?MEUN
FF1056H   FF10FEH   0000A9H   BYTE   INSEG    CODE           ?PR?OLED_DISPLAY_STRING_5X7?OLED
FF10FFH   FF119DH   00009FH   BYTE   INSEG    CODE           ?PR?MEUN_2_CONTROL?MEUN
FF119EH   FF123CH   00009FH   BYTE   INSEG    CODE           ?PR?MEUN_2_ANGLE?MEUN
FF123DH   FF12DBH   00009FH   BYTE   INSEG    CODE           ?PR?MEUN_2_SPEED?MEUN
FF12DCH   FF137AH   00009FH   BYTE   INSEG    CODE           ?PR?MEUN_2_PITCHING?MEUN
FF137BH   FF140CH   000092H   BYTE   INSEG    CODE           ?PR?CANCEL_DETERMINE?ENCODERS
FF140DH   FF149DH   000091H   BYTE   INSEG    CODE           ?PR?PWMA_CONFIG?PWM
FF149EH   FF151CH   00007FH   BYTE   INSEG    CODE           ?PR?MAIN?MAIN
FF151DH   FF1595H   000079H   BYTE   INSEG    CODE           ?PR?ADD?ENCODERS
FF1596H   FF160EH   000079H   BYTE   INSEG    CODE           ?PR?LOSE?ENCODERS
FF160FH   FF1669H   00005BH   BYTE   INSEG    CODE           ?PR?OLED_GET_DATA_FROM_ROM?OLED
FF166AH   FF16BFH   000056H   BYTE   INSEG    CODE           ?PR?OLED_DISPLAY_16X16?OLED
FF16C0H   FF1715H   000056H   BYTE   INSEG    CODE           ?PR?OLED_DISPLAY_8X16?OLED
L251 LINKER/LOCATER V4.66.93.0                                                        07/19/2023  21:16:02  PAGE 3


FF1716H   FF1764H   00004FH   BYTE   INSEG    CODE           ?PR?UP_KEY_DETECTION?ENCODERS
FF1765H   FF17AFH   00004BH   BYTE   INSEG    CODE           ?PR?ROTARY_ENCODER?ENCODERS
FF17B0H   FF17C2H   000013H   BYTE   UNIT     CODE           ?C_C51STARTUP
FF17C3H   FF17CCH   00000AH   BYTE   UNIT     CODE           ?C_C51STARTUP?1
FF17CDH   FF17F5H   000029H   BYTE   UNIT     CODE           ?C_C51STARTUP?2
FF17F6H   FF17F8H   000003H   BYTE   UNIT     CODE           ?C_C51STARTUP?3
FF17F9H   FF183FH   000047H   BYTE   INSEG    CODE           ?PR?ADC_READ?ADC
FF1840H   FF1885H   000046H   BYTE   INSEG    CODE           ?PR?TIMER1?MAIN
FF1886H   FF18CBH   000046H   BYTE   INSEG    CODE           ?PR?OLED_DISPLAY_128X64?OLED
FF18CCH   FF1905H   00003AH   BYTE   INSEG    CODE           ?PR?GPIO_INIT?GPIO
FF1906H   FF193CH   000037H   BYTE   INSEG    CODE           ?PR?OLED_CLEAR_0_2?OLED
FF193DH   FF1973H   000037H   BYTE   INSEG    CODE           ?PR?OLED_CLEAR?OLED
FF1974H   FF19A2H   00002FH   BYTE   INSEG    CODE           ?PR?HALL_ELEMENT?IIC
FF19A3H   FF19D0H   00002EH   BYTE   INSEG    CODE           ?PR?IIC_SENDBYTE?IIC
FF19D1H   FF19FCH   00002CH   BYTE   INSEG    CODE           ?PR?OLED_DISPLAYTURN?OLED
FF19FDH   FF1A28H   00002CH   BYTE   INSEG    CODE           ?PR?OLED_DISPLAY_5X7?OLED
FF1A29H   FF1A53H   00002BH   BYTE   INSEG    CODE           ?PR?OLED_WR_BYTE?OLED
FF1A54H   FF1A7EH   00002BH   BYTE   INSEG    CODE           ?PR?OLED_ADDRESS?OLED
FF1A7FH   FF1AA7H   000029H   BYTE   INSEG    CODE           ?PR?UPDATE_DUTY?PWM
FF1AA8H   FF1ACDH   000026H   BYTE   INSEG    CODE           ?PR?IIC_RECBYTE?IIC
FF1ACEH   FF1AEBH   00001EH   BYTE   INSEG    CODE           ?PR?OLED_COLORTURN?OLED
FF1AECH   FF1B06H   00001BH   BYTE   INSEG    CODE           ?PR?SEND_COMMAND_TO_ROM?OLED
FF1B07H   FF1B1DH   000017H   BYTE   INSEG    CODE           ?PR?DELAY_MS?OLED
FF1B1EH   FF1B34H   000017H   BYTE   INSEG    CODE           ?PR?UARTINIT?UART
FF1B35H   FF1B4BH   000017H   BYTE   INSEG    CODE           ?PR?IIC_SENDACK?IIC
FF1B4CH   FF1B62H   000017H   BYTE   INSEG    CODE           ?PR?ADC_INIT?ADC
FF1B63H   FF1B78H   000016H   BYTE   INSEG    CODE           ?PR?UART_STRING?UART
FF1B79H   FF1B8DH   000015H   BYTE   INSEG    CODE           ?PR?OLED_DISPLAY_OFF?OLED
FF1B8EH   FF1BA2H   000015H   BYTE   INSEG    CODE           ?PR?OLED_DISPLAY_ON?OLED
FF1BA3H   FF1BB7H   000015H   BYTE   INSEG    CODE           ?PR?TIMER1INIT?TIMER
FF1BB8H   FF1BCAH   000013H   BYTE   INSEG    CODE           ?PR?IIC_WAITACK?IIC
FF1BCBH   FF1BDBH   000011H   BYTE   INSEG    CODE           ?PR?IIC_START?IIC
FF1BDCH   FF1BEAH   00000FH   BYTE   INSEG    CODE           ?PR?DELAY?TIMER
FF1BEBH   FF1BF8H   00000EH   BYTE   INSEG    CODE           ?PR?IIC_STOP?IIC
FF1BF9H   FF1C04H   00000CH   BYTE   INSEG    CODE           ?PR?IIC_DELAY?IIC
FF1C05H   FF1C0EH   00000AH   BYTE   INSEG    CODE           ?PR?UART1_ISR?UART
FF1C0FH   FF1C17H   000009H   BYTE   INSEG    CODE           ?PR?UART_SENDBYTE?UART
FF1C18H   FF1CF2H   0000DBH   BYTE   UNIT     HCONST         ?HC?MEUN
FF1CF3H   FF1D2EH   00003CH   BYTE   UNIT     HCONST         ?C_INITEDATA
FF1D2FH   FF1D44H   000016H   BYTE   UNIT     HCONST         ?HC?OLED
FF1D45H   FF1D50H   00000CH   BYTE   UNIT     HCONST         ?HC?MAIN



OVERLAY MAP OF MODULE:   LED (main)


FUNCTION/MODULE                   EDATA_GROUP
--> CALLED FUNCTION/MODULE        START  STOP
=============================================
timer1/main                       ----- -----

*** NEW ROOT ********************

?C_C51STARTUP?1                   ----- -----

*** NEW ROOT ********************

Uart1_Isr/Uart                    ----- -----

*** NEW ROOT ********************

?C_C51STARTUP                     ----- -----

*** NEW ROOT ********************
L251 LINKER/LOCATER V4.66.93.0                                                        07/19/2023  21:16:02  PAGE 4



?C_C51STARTUP?3                   ----- -----
  +--> main/main

main/main                         ----- -----
  +--> GPIO_init/GPIO
  +--> OLED_Init/oled
  +--> OLED_ColorTurn/oled
  +--> OLED_DisplayTurn/oled
  +--> OLED_Clear/oled
  +--> Timer1Init/timer
  +--> UartInit/Uart
  +--> PWMA_Config/pwm
  +--> ADC_Init/ADC
  +--> ADC_Read/ADC
  +--> SPRINTF/SPRINTF
  +--> Uart_String/Uart
  +--> delay/timer
  +--> Update_duty/pwm

GPIO_init/GPIO                    ----- -----

OLED_Init/oled                    ----- -----
  +--> delay_ms/oled
  +--> OLED_WR_Byte/oled
  +--> OLED_Clear/oled

delay_ms/oled                     ----- -----

OLED_WR_Byte/oled                 ----- -----

OLED_Clear/oled                   ----- -----
  +--> OLED_WR_Byte/oled

OLED_ColorTurn/oled               ----- -----
  +--> OLED_WR_Byte/oled

OLED_DisplayTurn/oled             ----- -----
  +--> OLED_WR_Byte/oled

Timer1Init/timer                  ----- -----

UartInit/Uart                     ----- -----

PWMA_Config/pwm                   ----- -----

ADC_Init/ADC                      ----- -----

ADC_Read/ADC                      ----- -----

SPRINTF/SPRINTF                   0057H 007EH
  +--> OUT/SPRINTF

OUT/SPRINTF                       ----- -----
  +--> PUTCH/SPRINTF

PUTCH/SPRINTF                     ----- -----

Uart_String/Uart                  ----- -----
  +--> Uart_sendbyte/Uart

Uart_sendbyte/Uart                ----- -----

delay/timer                       ----- -----

L251 LINKER/LOCATER V4.66.93.0                                                        07/19/2023  21:16:02  PAGE 5


Update_duty/pwm                   ----- -----

*** NEW ROOT ********************

?C_C51STARTUP?2                   ----- -----



PUBLIC SYMBOLS OF MODULE:  LED (main)


      VALUE       CLASS    TYPE      PUBLIC SYMBOL NAME
      =================================================
      00FF0184H   CODE     NEAR LAB  ?C?CASTF
      000000FFH   NUMBER   ---       ?C?CODESEG
      00FF0151H   CODE     NEAR LAB  ?C?FCASTC
      00FF014CH   CODE     NEAR LAB  ?C?FCASTI
      00FF0147H   CODE     NEAR LAB  ?C?FCASTL
      00FF067CH   CODE     ---       ?C?FPCONVERT
      00FF00C6H   CODE     ---       ?C?FPDIV
      00FF01E1H   CODE     ---       ?C?FPGETOPN2
      00FF0026H   CODE     ---       ?C?FPMUL
      00FF021EH   CODE     ---       ?C?FPNANRESULT
      00FF0226H   CODE     ---       ?C?FPOVERFLOW
      00FF01FAH   CODE     ---       ?C?FPRESULT
      00FF0210H   CODE     ---       ?C?FPRESULT2
      00FF0734H   CODE     ---       ?C?FPROUND
      00FF0223H   CODE     ---       ?C?FPUNDERFLOW
      00FF07A7H   CODE     ---       ?C?FTNPWR
      00FF17CDH   CODE     ---       ?C?INITEDATA
      00FF1D2DH   HCONST   WORD      ?C?INITEDATA_END
      00FF07DEH   CODE     ---       ?C?LIMUL
      00FF025FH   CODE     ---       ?C?PRNFMT
      00FF0000H   CODE     ---       ?C?STARTUP
      00FF07E9H   CODE     NEAR LAB  ?C?ULDIV
      00FF07E7H   CODE     NEAR LAB  ?C?ULIDIV
      00000001H   NUMBER   ---       ?C?XDATASEG
      00FF0000H   CODE     ---       ?C_STARTUP
      00000020H.5 BIT      BIT       ?IIC_SendAck?BIT
      0000007FH   EDATA    ---       ?sprintf?BYTE
*SFR* 000000BCH   DATA     BYTE      ADC_CONTR
*SFR* 000000BCH.5 DATA     BIT       ADC_FLAG
      00FF1B4CH   CODE     ---       ADC_Init
*SFR* 000000BCH.7 DATA     BIT       ADC_POWER
      00FF17F9H   CODE     ---       ADC_Read
*SFR* 000000BDH   DATA     BYTE      ADC_RES
*SFR* 000000BEH   DATA     BYTE      ADC_RESL
*SFR* 000000BCH.6 DATA     BIT       ADC_START
*SFR* 000000DEH   DATA     BYTE      ADCCFG
      00000095H   EDATA    WORD      ADCP00
      00000097H   EDATA    WORD      ADCP10
      00000099H   EDATA    WORD      ADCP11
      00FF151DH   CODE     ---       add
      00000020H.2 BIT      BIT       add_lose
      0000009DH   EDATA    ---       adjust
      00000020H.1 BIT      BIT       arrow_Value
*SFR* 000000EFH   DATA     BYTE      AUXINTIF
*SFR* 0000008EH   DATA     BYTE      AUXR
*SFR* 00000097H   DATA     BYTE      AUXR2
      00FF137BH   CODE     ---       Cancel_determine
*SFR* 000000F1H   DATA     BYTE      CANICR
*SFR* 000000EAH   DATA     BYTE      CKCON
*SFR* 000000E6H   DATA     BYTE      CMPCR1
*SFR* 000000E7H   DATA     BYTE      CMPCR2
      000000A7H   EDATA    BYTE      Confirm_exit
L251 LINKER/LOCATER V4.66.93.0                                                        07/19/2023  21:16:02  PAGE 6


      00FF1BDCH   CODE     ---       delay
      000000C0H   EDATA    WORD      delay_cnt
      00FF1B07H   CODE     ---       delay_ms
      000000BAH   EDATA    WORD      duty
      000000BCH   EDATA    WORD      duty2
*SFR* 000000A8H.7 DATA     BIT       EA
*SFR* 000000BAH.7 DATA     BIT       EAXFR
*SFR* 000000B0H.2 DATA     BIT       EC11_A
*SFR* 000000B0H.3 DATA     BIT       EC11_B
*SFR* 000000B0H.4 DATA     BIT       EC11_K
*SFR* 000000A8H.4 DATA     BIT       ES
*SFR* 000000A8H.3 DATA     BIT       ET1
      00000020H.4 BIT      BIT       falling_Down
      000000AEH   EDATA    DWORD     fontaddr
      00FF0003H   CODE     ---       Get_data_from_ROM
      00FF18CCH   CODE     ---       GPIO_init
      00FF1974H   CODE     ---       Hall_element
*SFR* 000000C7H   DATA     BYTE      IAP_CONTR
*SFR* 000000A8H   DATA     BYTE      IE
*SFR* 000000AFH   DATA     BYTE      IE2
      00FF1BF9H   CODE     ---       IIC_Delay
      00FF1AA8H   CODE     ---       IIC_RecByte
      00FF1B35H   CODE     ---       IIC_SendAck
      00FF19A3H   CODE     ---       IIC_SendByte
      00FF1BCBH   CODE     ---       IIC_Start
      00FF1BEBH   CODE     ---       IIC_Stop
      00FF1BB8H   CODE     ---       IIC_WaitAck
*SFR* 0000008FH   DATA     BYTE      INTCLKO
*SFR* 000000B8H   DATA     BYTE      IP
*SFR* 000000B5H   DATA     BYTE      IP2
*SFR* 000000B6H   DATA     BYTE      IP2H
*SFR* 000000DFH   DATA     BYTE      IP3
*SFR* 000000EEH   DATA     BYTE      IP3H
*SFR* 000000B7H   DATA     BYTE      IPH
*SFR* 0000009DH   DATA     BYTE      IRCBAND
*SFR* 000000F9H   DATA     BYTE      LINICR
      00000020H.3 BIT      BIT       long_short
      00FF1596H   CODE     ---       lose
      00FF149EH   CODE     ---       main
      00FF0A63H   CODE     ---       Main_Meun
      00FF0FA3H   CODE     ---       Memu
      00FF119EH   CODE     ---       Meun_2_angle
      00FF10FFH   CODE     ---       Meun_2_control
      00FF12DCH   CODE     ---       Meun_2_Pitching
      00FF123DH   CODE     ---       Meun_2_speed
*SFR* 00000080H.2 DATA     BIT       MOTOR_AIN1
*SFR* 00000080H.1 DATA     BIT       MOTOR_AIN2
*SFR* 00000080H.3 DATA     BIT       MOTOR_BIN1
*SFR* 00000080H.4 DATA     BIT       MOTOR_BIN2
      00FF083AH   CODE     ---       OLED_16x16
      00FF1A54H   CODE     ---       OLED_address
      00FF193DH   CODE     ---       OLED_Clear
      00FF1906H   CODE     ---       OLED_Clear_0_2
      00FF1ACEH   CODE     ---       OLED_ColorTurn
*SFR* 00000090H.6 DATA     BIT       OLED_CS
*SFR* 00000090H.5 DATA     BIT       OLED_DC
      00FF1886H   CODE     ---       OLED_Display_128x64
      00FF166AH   CODE     ---       OLED_Display_16x16
      00FF19FDH   CODE     ---       OLED_Display_5x7
      00FF16C0H   CODE     ---       OLED_Display_8x16
      00FF1B79H   CODE     ---       OLED_DisPlay_Off
      00FF1B8EH   CODE     ---       OLED_DisPlay_On
      00FF1056H   CODE     ---       OLED_Display_string_5x7
      00FF19D1H   CODE     ---       OLED_DisplayTurn
      00FF160FH   CODE     ---       OLED_get_data_from_ROM
L251 LINKER/LOCATER V4.66.93.0                                                        07/19/2023  21:16:02  PAGE 7


      00FF0EE0H   CODE     ---       OLED_Init
*SFR* 00000090H.7 DATA     BIT       OLED_READ_FS0
*SFR* 00000090H.3 DATA     BIT       OLED_ROM_CS
*SFR* 000000C0H.7 DATA     BIT       OLED_SCL
*SFR* 00000090H.4 DATA     BIT       OLED_SDA
      00FF0DA3H   CODE     ---       OLED_ShowNum
      00FF1A29H   CODE     ---       OLED_WR_Byte
*SFR* 00000080H   DATA     BYTE      P0
*SFR* 00000094H   DATA     BYTE      P0M0
*SFR* 00000093H   DATA     BYTE      P0M1
*SFR* 00000090H   DATA     BYTE      P1
*SFR* 00000092H   DATA     BYTE      P1M0
*SFR* 00000091H   DATA     BYTE      P1M1
*SFR* 000000A0H   DATA     BYTE      P2
*SFR* 00000096H   DATA     BYTE      P2M0
*SFR* 00000095H   DATA     BYTE      P2M1
*SFR* 000000B0H   DATA     BYTE      P3
*SFR* 000000B2H   DATA     BYTE      P3M0
*SFR* 000000B1H   DATA     BYTE      P3M1
*SFR* 000000C0H   DATA     BYTE      P4
*SFR* 000000B4H   DATA     BYTE      P4M0
*SFR* 000000B3H   DATA     BYTE      P4M1
*SFR* 000000C8H   DATA     BYTE      P5
*SFR* 000000FFH.4 DATA     BIT       P54RST
*SFR* 000000CAH   DATA     BYTE      P5M0
*SFR* 000000C9H   DATA     BYTE      P5M1
*SFR* 000000E8H   DATA     BYTE      P6
*SFR* 000000CCH   DATA     BYTE      P6M0
*SFR* 000000CBH   DATA     BYTE      P6M1
*SFR* 000000F8H   DATA     BYTE      P7
*SFR* 000000E2H   DATA     BYTE      P7M0
*SFR* 000000E1H   DATA     BYTE      P7M1
*SFR* 000000A2H   DATA     BYTE      P_SW1
*SFR* 000000BAH   DATA     BYTE      P_SW2
*SFR* 000000BBH   DATA     BYTE      P_SW3
      000000BEH   EDATA    INT       page_table
      000000A8H   EDATA    BYTE      part2_count
      000000A6H   EDATA    BYTE      part_count
*SFR* 00000087H   DATA     BYTE      PCON
*SFR* 000000D0H   DATA     BYTE      PSW
      00FF140DH   CODE     ---       PWMA_Config
*SFR* 00000098H.0 DATA     BIT       RI
      00000020H.0 BIT      BIT       rising_edge
      00FF1765H   CODE     ---       rotary_encoder
*SFR* 000000FFH   DATA     BYTE      RSTCFG
*SFR* 000000A2H.6 DATA     BIT       S1_S0
*SFR* 000000A2H.7 DATA     BIT       S1_S1
*SFR* 0000009AH   DATA     BYTE      S2CON
*SFR* 000000ACH   DATA     BYTE      S3CON
*SFR* 000000FDH   DATA     BYTE      S4CON
      0000009BH   EDATA    WORD      s_count
*SFR* 00000099H   DATA     BYTE      SBUF
*SFR* 000000A0H.0 DATA     BIT       SCL
*SFR* 00000098H   DATA     BYTE      SCON
*SFR* 000000A0H.2 DATA     BIT       SDA
      00FF0C2EH   CODE     ---       Second_menu_value
      00FF1AECH   CODE     ---       Send_Command_to_ROM
      00FF1C63H   HCONST   ---       set
*SFR* 000000CEH   DATA     BYTE      SPCTL
      000000A2H   EDATA    ---       spin
      00FF01C1H   CODE     NEAR LAB  sprintf
*SFR* 000000CDH   DATA     BYTE      SPSTAT
      000000C3H   EDATA    BYTE      Switching_channel
*SFR* 000000D6H   DATA     BYTE      T2H
*SFR* 000000D7H   DATA     BYTE      T2L
L251 LINKER/LOCATER V4.66.93.0                                                        07/19/2023  21:16:02  PAGE 8


*SFR* 000000DDH   DATA     BYTE      T4T3M
*SFR* 00000088H   DATA     BYTE      TCON
*SFR* 00000088H.7 DATA     BIT       TF1
*SFR* 0000008DH   DATA     BYTE      TH1
*SFR* 00000098H.1 DATA     BIT       TI
      00FF1840H   CODE     ---       timer1
      00FF1BA3H   CODE     ---       Timer1Init
      0000007FH   EDATA    WORD      timer_delay
*SFR* 0000008BH   DATA     BYTE      TL1
*SFR* 00000089H   DATA     BYTE      TMOD
*SFR* 00000088H.6 DATA     BIT       TR1
      00000081H   EDATA    ---       txbuf
      00FF1C05H   CODE     ---       Uart1_Isr
      00FF1C0FH   CODE     ---       Uart_sendbyte
      00FF1B63H   CODE     ---       Uart_String
      00FF1B1EH   CODE     ---       UartInit
      00FF1716H   CODE     ---       up_key_detection
      00FF1A7FH   CODE     ---       Update_duty
*SFR* 000000F4H   DATA     BYTE      USBCON
*SFR* 000000C1H   DATA     BYTE      WDT_CONTR
*SFR* 000000E9H   DATA     BYTE      WTST



SYMBOL TABLE OF MODULE:  LED (main)

      VALUE       REP       CLASS    TYPE      SYMBOL NAME
      ====================================================
      ---         MODULE    ---      ---       main
      00FF149EH   PUBLIC    CODE     ---       main
      00FF1840H   PUBLIC    CODE     ---       timer1
      0000007FH   PUBLIC    EDATA    WORD      timer_delay
      00000081H   PUBLIC    EDATA    ---       txbuf
      00000095H   PUBLIC    EDATA    WORD      ADCP00
      00000097H   PUBLIC    EDATA    WORD      ADCP10
      00000099H   PUBLIC    EDATA    WORD      ADCP11
      00000080H.2 SFRSYM    DATA     BIT       MOTOR_AIN1
      000000D0H   SFRSYM    DATA     BYTE      PSW
      0000009DH   SFRSYM    DATA     BYTE      IRCBAND
      00000097H   SFRSYM    DATA     BYTE      AUXR2
      000000EFH   SFRSYM    DATA     BYTE      AUXINTIF
      000000A2H.7 SFRSYM    DATA     BIT       S1_S1
      000000FDH   SFRSYM    DATA     BYTE      S4CON
      000000A2H.6 SFRSYM    DATA     BIT       S1_S0
      000000ACH   SFRSYM    DATA     BYTE      S3CON
      0000009AH   SFRSYM    DATA     BYTE      S2CON
      000000B7H   SFRSYM    DATA     BYTE      IPH
      000000CDH   SFRSYM    DATA     BYTE      SPSTAT
      000000DDH   SFRSYM    DATA     BYTE      T4T3M
      000000C1H   SFRSYM    DATA     BYTE      WDT_CONTR
      000000DFH   SFRSYM    DATA     BYTE      IP3
      000000F4H   SFRSYM    DATA     BYTE      USBCON
      000000B5H   SFRSYM    DATA     BYTE      IP2
      000000FFH   SFRSYM    DATA     BYTE      RSTCFG
      000000C7H   SFRSYM    DATA     BYTE      IAP_CONTR
      000000F9H   SFRSYM    DATA     BYTE      LINICR
      0000008EH   SFRSYM    DATA     BYTE      AUXR
      000000AFH   SFRSYM    DATA     BYTE      IE2
      00000088H   SFRSYM    DATA     BYTE      TCON
      00000089H   SFRSYM    DATA     BYTE      TMOD
      00000098H   SFRSYM    DATA     BYTE      SCON
      000000FFH.4 SFRSYM    DATA     BIT       P54RST
      000000F1H   SFRSYM    DATA     BYTE      CANICR
      00000087H   SFRSYM    DATA     BYTE      PCON
      000000BCH   SFRSYM    DATA     BYTE      ADC_CONTR
L251 LINKER/LOCATER V4.66.93.0                                                        07/19/2023  21:16:02  PAGE 9


      000000E7H   SFRSYM    DATA     BYTE      CMPCR2
      000000E6H   SFRSYM    DATA     BYTE      CMPCR1
      000000DEH   SFRSYM    DATA     BYTE      ADCCFG
      000000B8H   SFRSYM    DATA     BYTE      IP
      0000008FH   SFRSYM    DATA     BYTE      INTCLKO
      000000B0H.4 SFRSYM    DATA     BIT       EC11_K
      000000EEH   SFRSYM    DATA     BYTE      IP3H
      000000B6H   SFRSYM    DATA     BYTE      IP2H
      000000A8H   SFRSYM    DATA     BYTE      IE
      000000BBH   SFRSYM    DATA     BYTE      P_SW3
      000000BAH   SFRSYM    DATA     BYTE      P_SW2
      000000A2H   SFRSYM    DATA     BYTE      P_SW1
      000000CEH   SFRSYM    DATA     BYTE      SPCTL
      000000F8H   SFRSYM    DATA     BYTE      P7
      000000E8H   SFRSYM    DATA     BYTE      P6
      000000C8H   SFRSYM    DATA     BYTE      P5
      000000C0H   SFRSYM    DATA     BYTE      P4
      000000B0H   SFRSYM    DATA     BYTE      P3
      000000A0H   SFRSYM    DATA     BYTE      P2
      00000090H   SFRSYM    DATA     BYTE      P1
      00000080H   SFRSYM    DATA     BYTE      P0
      00000080H.4 SFRSYM    DATA     BIT       MOTOR_BIN2
      00000080H.1 SFRSYM    DATA     BIT       MOTOR_AIN2
      00000080H.3 SFRSYM    DATA     BIT       MOTOR_BIN1

      00FF149EH   BLOCK     CODE     ---       LVL=0
      00FF149EH   LINE      CODE     ---       #29
      00FF149EH   LINE      CODE     ---       #31
      00FF14A1H   LINE      CODE     ---       #32
      00FF14A4H   LINE      CODE     ---       #33
      00FF14A8H   LINE      CODE     ---       #34
      00FF14ACH   LINE      CODE     ---       #35
      00FF14AFH   LINE      CODE     ---       #37
      00FF14B2H   LINE      CODE     ---       #38
      00FF14B5H   LINE      CODE     ---       #39
      00FF14BBH   LINE      CODE     ---       #40
      00FF14BEH   LINE      CODE     ---       #42
      00FF14C1H   LINE      CODE     ---       #44
      00FF14C4H   LINE      CODE     ---       #46
      00FF14C6H   LINE      CODE     ---       #47
      00FF14C8H   LINE      CODE     ---       #49
      00FF14CAH   LINE      CODE     ---       #50
      00FF14CCH   LINE      CODE     ---       #52
      00FF14D4H   LINE      CODE     ---       #53
      00FF14D8H   LINE      CODE     ---       #55
      00FF14D8H   LINE      CODE     ---       #63
      00FF150AH   LINE      CODE     ---       #64
      00FF1511H   LINE      CODE     ---       #66
      00FF1518H   LINE      CODE     ---       #73
      00FF151BH   LINE      CODE     ---       #74
      ---         BLOCKEND  ---      ---       LVL=0

      00FF1840H   BLOCK     CODE     ---       LVL=0
      00FF1840H   LINE      CODE     ---       #76
      00FF1846H   LINE      CODE     ---       #78
      00FF1850H   LINE      CODE     ---       #79
      00FF1856H   LINE      CODE     ---       #81
      00FF1866H   LINE      CODE     ---       #83
      00FF186CH   LINE      CODE     ---       #85
      00FF186EH   LINE      CODE     ---       #86
      00FF186EH   LINE      CODE     ---       #87
      00FF1875H   LINE      CODE     ---       #89
      00FF187FH   LINE      CODE     ---       #90
      ---         BLOCKEND  ---      ---       LVL=0

L251 LINKER/LOCATER V4.66.93.0                                                        07/19/2023  21:16:02  PAGE 10


      ---         MODULE    ---      ---       oled
      00FF0003H   PUBLIC    CODE     ---       Get_data_from_ROM
      00FF166AH   PUBLIC    CODE     ---       OLED_Display_16x16
      00FF19D1H   PUBLIC    CODE     ---       OLED_DisplayTurn
      00FF1906H   PUBLIC    CODE     ---       OLED_Clear_0_2
      00FF0EE0H   PUBLIC    CODE     ---       OLED_Init
      00FF1056H   PUBLIC    CODE     ---       OLED_Display_string_5x7
      00FF19FDH   PUBLIC    CODE     ---       OLED_Display_5x7
      00FF1A29H   PUBLIC    CODE     ---       OLED_WR_Byte
      00FF160FH   PUBLIC    CODE     ---       OLED_get_data_from_ROM
      00FF1ACEH   PUBLIC    CODE     ---       OLED_ColorTurn
      00FF1B79H   PUBLIC    CODE     ---       OLED_DisPlay_Off
      00FF1886H   PUBLIC    CODE     ---       OLED_Display_128x64
      00FF1AECH   PUBLIC    CODE     ---       Send_Command_to_ROM
      00FF083AH   PUBLIC    CODE     ---       OLED_16x16
      00FF1B07H   PUBLIC    CODE     ---       delay_ms
      00FF16C0H   PUBLIC    CODE     ---       OLED_Display_8x16
      00FF0DA3H   PUBLIC    CODE     ---       OLED_ShowNum
      00FF1B8EH   PUBLIC    CODE     ---       OLED_DisPlay_On
      00FF193DH   PUBLIC    CODE     ---       OLED_Clear
      00FF1A54H   PUBLIC    CODE     ---       OLED_address
      000000AEH   PUBLIC    EDATA    DWORD     fontaddr
      000000D0H   SFRSYM    DATA     BYTE      PSW
      0000009DH   SFRSYM    DATA     BYTE      IRCBAND
      00000097H   SFRSYM    DATA     BYTE      AUXR2
      000000EFH   SFRSYM    DATA     BYTE      AUXINTIF
      00000090H.3 SFRSYM    DATA     BIT       OLED_ROM_CS
      000000FDH   SFRSYM    DATA     BYTE      S4CON
      000000C0H.7 SFRSYM    DATA     BIT       OLED_SCL
      000000ACH   SFRSYM    DATA     BYTE      S3CON
      0000009AH   SFRSYM    DATA     BYTE      S2CON
      000000B7H   SFRSYM    DATA     BYTE      IPH
      000000CDH   SFRSYM    DATA     BYTE      SPSTAT
      00000090H.4 SFRSYM    DATA     BIT       OLED_SDA
      000000DDH   SFRSYM    DATA     BYTE      T4T3M
      000000C1H   SFRSYM    DATA     BYTE      WDT_CONTR
      00000090H.7 SFRSYM    DATA     BIT       OLED_READ_FS0
      000000DFH   SFRSYM    DATA     BYTE      IP3
      000000F4H   SFRSYM    DATA     BYTE      USBCON
      000000B5H   SFRSYM    DATA     BYTE      IP2
      000000FFH   SFRSYM    DATA     BYTE      RSTCFG
      000000C7H   SFRSYM    DATA     BYTE      IAP_CONTR
      000000F9H   SFRSYM    DATA     BYTE      LINICR
      0000008EH   SFRSYM    DATA     BYTE      AUXR
      000000AFH   SFRSYM    DATA     BYTE      IE2
      00000088H   SFRSYM    DATA     BYTE      TCON
      00000089H   SFRSYM    DATA     BYTE      TMOD
      00000098H   SFRSYM    DATA     BYTE      SCON
      000000F1H   SFRSYM    DATA     BYTE      CANICR
      00000087H   SFRSYM    DATA     BYTE      PCON
      000000BCH   SFRSYM    DATA     BYTE      ADC_CONTR
      000000E7H   SFRSYM    DATA     BYTE      CMPCR2
      000000E6H   SFRSYM    DATA     BYTE      CMPCR1
      00000090H.6 SFRSYM    DATA     BIT       OLED_CS
      000000DEH   SFRSYM    DATA     BYTE      ADCCFG
      000000B8H   SFRSYM    DATA     BYTE      IP
      0000008FH   SFRSYM    DATA     BYTE      INTCLKO
      000000EEH   SFRSYM    DATA     BYTE      IP3H
      000000B6H   SFRSYM    DATA     BYTE      IP2H
      000000A8H   SFRSYM    DATA     BYTE      IE
      000000BBH   SFRSYM    DATA     BYTE      P_SW3
      000000BAH   SFRSYM    DATA     BYTE      P_SW2
      00000090H.5 SFRSYM    DATA     BIT       OLED_DC
      000000A2H   SFRSYM    DATA     BYTE      P_SW1
      000000CEH   SFRSYM    DATA     BYTE      SPCTL
L251 LINKER/LOCATER V4.66.93.0                                                        07/19/2023  21:16:02  PAGE 11


      000000F8H   SFRSYM    DATA     BYTE      P7
      000000E8H   SFRSYM    DATA     BYTE      P6
      000000C8H   SFRSYM    DATA     BYTE      P5
      000000C0H   SFRSYM    DATA     BYTE      P4
      000000B0H   SFRSYM    DATA     BYTE      P3
      000000A0H   SFRSYM    DATA     BYTE      P2
      00000090H   SFRSYM    DATA     BYTE      P1
      00000080H   SFRSYM    DATA     BYTE      P0

      00FF1B07H   BLOCK     CODE     ---       LVL=0
      WR2         REGSYM    ---      WORD      ms
      00FF1B09H   BLOCK     CODE     NEAR LAB  LVL=1
      WR0         REGSYM    ---      WORD      a
      ---         BLOCKEND  ---      ---       LVL=1
      00FF1B07H   LINE      CODE     ---       #3
      00FF1B09H   LINE      CODE     ---       #4
      00FF1B09H   LINE      CODE     ---       #6
      00FF1B0BH   LINE      CODE     ---       #8
      00FF1B0FH   LINE      CODE     ---       #9
      00FF1B17H   LINE      CODE     ---       #10
      00FF1B19H   LINE      CODE     ---       #11
      00FF1B1DH   LINE      CODE     ---       #12
      00FF1B1DH   LINE      CODE     ---       #13
      ---         BLOCKEND  ---      ---       LVL=0

      00FF1ACEH   BLOCK     CODE     ---       LVL=0
      R15         REGSYM    ---      BYTE      i
      00FF1ACEH   LINE      CODE     ---       #16
      00FF1AD2H   LINE      CODE     ---       #18
      00FF1AD6H   LINE      CODE     ---       #20
      00FF1ADDH   LINE      CODE     ---       #21
      00FF1ADDH   LINE      CODE     ---       #22
      00FF1AE2H   LINE      CODE     ---       #24
      00FF1AE9H   LINE      CODE     ---       #25
      ---         BLOCKEND  ---      ---       LVL=0

      00FF19D1H   BLOCK     CODE     ---       LVL=0
      R15         REGSYM    ---      BYTE      i
      00FF19D1H   LINE      CODE     ---       #29
      00FF19D5H   LINE      CODE     ---       #31
      00FF19D9H   LINE      CODE     ---       #33
      00FF19E0H   LINE      CODE     ---       #34
      00FF19E7H   LINE      CODE     ---       #35
      00FF19E7H   LINE      CODE     ---       #36
      00FF19ECH   LINE      CODE     ---       #38
      00FF19F3H   LINE      CODE     ---       #39
      00FF19FAH   LINE      CODE     ---       #40
      ---         BLOCKEND  ---      ---       LVL=0

      00FF1B8EH   BLOCK     CODE     ---       LVL=0
      00FF1B8EH   LINE      CODE     ---       #44
      00FF1B8EH   LINE      CODE     ---       #46
      00FF1B95H   LINE      CODE     ---       #47
      00FF1B9CH   LINE      CODE     ---       #48
      ---         BLOCKEND  ---      ---       LVL=0

      00FF1B79H   BLOCK     CODE     ---       LVL=0
      00FF1B79H   LINE      CODE     ---       #52
      00FF1B79H   LINE      CODE     ---       #54
      00FF1B80H   LINE      CODE     ---       #55
      00FF1B87H   LINE      CODE     ---       #56
      ---         BLOCKEND  ---      ---       LVL=0

      00FF1A29H   BLOCK     CODE     ---       LVL=0
      R6          REGSYM    ---      BYTE      dat
L251 LINKER/LOCATER V4.66.93.0                                                        07/19/2023  21:16:02  PAGE 12


      R7          REGSYM    ---      BYTE      cmd
      00FF1A2BH   BLOCK     CODE     NEAR LAB  LVL=1
      R7          REGSYM    ---      BYTE      i
      ---         BLOCKEND  ---      ---       LVL=1
      00FF1A29H   LINE      CODE     ---       #62
      00FF1A2BH   LINE      CODE     ---       #63
      00FF1A2BH   LINE      CODE     ---       #65
      00FF1A2FH   LINE      CODE     ---       #67
      00FF1A31H   LINE      CODE     ---       #68
      00FF1A33H   LINE      CODE     ---       #71
      00FF1A35H   LINE      CODE     ---       #72
      00FF1A35H   LINE      CODE     ---       #73
      00FF1A37H   LINE      CODE     ---       #74
      00FF1A3AH   LINE      CODE     ---       #76
      00FF1A3CH   LINE      CODE     ---       #77
      00FF1A41H   LINE      CODE     ---       #79
      00FF1A43H   LINE      CODE     ---       #80
      00FF1A45H   LINE      CODE     ---       #83
      00FF1A47H   LINE      CODE     ---       #84
      00FF1A47H   LINE      CODE     ---       #85
      00FF1A49H   LINE      CODE     ---       #86
      00FF1A4BH   LINE      CODE     ---       #87
      00FF1A4FH   LINE      CODE     ---       #88
      00FF1A51H   LINE      CODE     ---       #89
      00FF1A53H   LINE      CODE     ---       #90
      ---         BLOCKEND  ---      ---       LVL=0

      00FF193DH   BLOCK     CODE     ---       LVL=0
      00FF193FH   BLOCK     CODE     NEAR LAB  LVL=1
      R15         REGSYM    ---      BYTE      i
      R14         REGSYM    ---      BYTE      n
      ---         BLOCKEND  ---      ---       LVL=1
      00FF193DH   LINE      CODE     ---       #93
      00FF193FH   LINE      CODE     ---       #94
      00FF193FH   LINE      CODE     ---       #96
      00FF1941H   LINE      CODE     ---       #98
      00FF194CH   LINE      CODE     ---       #99
      00FF1953H   LINE      CODE     ---       #100
      00FF195AH   LINE      CODE     ---       #101
      00FF195CH   LINE      CODE     ---       #103
      00FF1963H   LINE      CODE     ---       #104
      00FF196AH   LINE      CODE     ---       #105
      00FF1971H   LINE      CODE     ---       #106
      ---         BLOCKEND  ---      ---       LVL=0

      00FF1906H   BLOCK     CODE     ---       LVL=0
      00FF1908H   BLOCK     CODE     NEAR LAB  LVL=1
      R14         REGSYM    ---      BYTE      i
      R15         REGSYM    ---      BYTE      n
      ---         BLOCKEND  ---      ---       LVL=1
      00FF1906H   LINE      CODE     ---       #108
      00FF1908H   LINE      CODE     ---       #109
      00FF1908H   LINE      CODE     ---       #110
      00FF1908H   LINE      CODE     ---       #111
      00FF190AH   LINE      CODE     ---       #112
      00FF1915H   LINE      CODE     ---       #113
      00FF191CH   LINE      CODE     ---       #114
      00FF1923H   LINE      CODE     ---       #115
      00FF1925H   LINE      CODE     ---       #116
      00FF192CH   LINE      CODE     ---       #117
      00FF1933H   LINE      CODE     ---       #118
      00FF193AH   LINE      CODE     ---       #119
      ---         BLOCKEND  ---      ---       LVL=0

      00FF1A54H   BLOCK     CODE     ---       LVL=0
L251 LINKER/LOCATER V4.66.93.0                                                        07/19/2023  21:16:02  PAGE 13


      R15         REGSYM    ---      BYTE      x
      R10         REGSYM    ---      BYTE      y
      00FF1A54H   LINE      CODE     ---       #121
      00FF1A58H   LINE      CODE     ---       #123
      00FF1A5AH   LINE      CODE     ---       #124
      00FF1A65H   LINE      CODE     ---       #125
      00FF1A73H   LINE      CODE     ---       #126
      00FF1A7CH   LINE      CODE     ---       #127
      ---         BLOCKEND  ---      ---       LVL=0

      00FF1886H   BLOCK     CODE     ---       LVL=0
      REG=3       REGSYM    ---      ---       dp
      00FF188AH   BLOCK     CODE     NEAR LAB  LVL=1
      0000001EH   SYMBOL    EDATA    BYTE      i
      0000001FH   SYMBOL    EDATA    BYTE      j
      ---         BLOCKEND  ---      ---       LVL=1
      00FF1886H   LINE      CODE     ---       #130
      00FF188AH   LINE      CODE     ---       #131
      00FF188AH   LINE      CODE     ---       #132
      00FF188FH   LINE      CODE     ---       #133
      00FF1893H   LINE      CODE     ---       #135
      00FF189BH   LINE      CODE     ---       #136
      00FF18A0H   LINE      CODE     ---       #138
      00FF18A9H   LINE      CODE     ---       #139
      00FF18ABH   LINE      CODE     ---       #140
      00FF18B7H   LINE      CODE     ---       #141
      00FF18C9H   LINE      CODE     ---       #142
      ---         BLOCKEND  ---      ---       LVL=0

      00FF166AH   BLOCK     CODE     ---       LVL=0
      000000B2H   SYMBOL    EDATA    BYTE      x
      000000B3H   SYMBOL    EDATA    BYTE      y
      REG=3       REGSYM    ---      ---       dp
      00FF1676H   BLOCK     CODE     NEAR LAB  LVL=1
      000000B4H   SYMBOL    EDATA    BYTE      i
      000000B5H   SYMBOL    EDATA    BYTE      j
      ---         BLOCKEND  ---      ---       LVL=1
      00FF166AH   LINE      CODE     ---       #145
      00FF1676H   LINE      CODE     ---       #146
      00FF1676H   LINE      CODE     ---       #148
      00FF167BH   LINE      CODE     ---       #150
      00FF1686H   LINE      CODE     ---       #151
      00FF168BH   LINE      CODE     ---       #153
      00FF1694H   LINE      CODE     ---       #154
      00FF1696H   LINE      CODE     ---       #155
      00FF16A2H   LINE      CODE     ---       #156
      00FF16ABH   LINE      CODE     ---       #157
      00FF16BDH   LINE      CODE     ---       #158
      ---         BLOCKEND  ---      ---       LVL=0

      00FF16C0H   BLOCK     CODE     ---       LVL=0
      000000B6H   SYMBOL    EDATA    BYTE      x
      000000B7H   SYMBOL    EDATA    BYTE      y
      REG=3       REGSYM    ---      ---       dp
      00FF16CCH   BLOCK     CODE     NEAR LAB  LVL=1
      000000B8H   SYMBOL    EDATA    BYTE      i
      000000B9H   SYMBOL    EDATA    BYTE      j
      ---         BLOCKEND  ---      ---       LVL=1
      00FF16C0H   LINE      CODE     ---       #161
      00FF16CCH   LINE      CODE     ---       #162
      00FF16CCH   LINE      CODE     ---       #164
      00FF16D1H   LINE      CODE     ---       #166
      00FF16DCH   LINE      CODE     ---       #167
      00FF16E1H   LINE      CODE     ---       #169
      00FF16EAH   LINE      CODE     ---       #170
L251 LINKER/LOCATER V4.66.93.0                                                        07/19/2023  21:16:02  PAGE 14


      00FF16ECH   LINE      CODE     ---       #171
      00FF16F8H   LINE      CODE     ---       #172
      00FF1701H   LINE      CODE     ---       #173
      00FF1713H   LINE      CODE     ---       #174
      ---         BLOCKEND  ---      ---       LVL=0

      00FF19FDH   BLOCK     CODE     ---       LVL=0
      R11         REGSYM    ---      BYTE      x
      R10         REGSYM    ---      BYTE      y
      REG=3       REGSYM    ---      ---       dp
      00FF1A01H   BLOCK     CODE     NEAR LAB  LVL=1
      000000C2H   SYMBOL    EDATA    BYTE      i
      ---         BLOCKEND  ---      ---       LVL=1
      00FF19FDH   LINE      CODE     ---       #177
      00FF1A01H   LINE      CODE     ---       #178
      00FF1A01H   LINE      CODE     ---       #180
      00FF1A04H   LINE      CODE     ---       #181
      00FF1A09H   LINE      CODE     ---       #183
      00FF1A12H   LINE      CODE     ---       #184
      00FF1A14H   LINE      CODE     ---       #185
      00FF1A26H   LINE      CODE     ---       #186
      ---         BLOCKEND  ---      ---       LVL=0

      00FF1AECH   BLOCK     CODE     ---       LVL=0
      R6          REGSYM    ---      BYTE      dat
      00FF1AEEH   BLOCK     CODE     NEAR LAB  LVL=1
      R7          REGSYM    ---      BYTE      i
      ---         BLOCKEND  ---      ---       LVL=1
      00FF1AECH   LINE      CODE     ---       #189
      00FF1AEEH   LINE      CODE     ---       #190
      00FF1AEEH   LINE      CODE     ---       #192
      00FF1AF1H   LINE      CODE     ---       #194
      00FF1AF3H   LINE      CODE     ---       #195
      00FF1AF8H   LINE      CODE     ---       #197
      00FF1AFAH   LINE      CODE     ---       #198
      00FF1AFCH   LINE      CODE     ---       #201
      00FF1AFEH   LINE      CODE     ---       #202
      00FF1AFEH   LINE      CODE     ---       #203
      00FF1B00H   LINE      CODE     ---       #204
      00FF1B02H   LINE      CODE     ---       #205
      00FF1B06H   LINE      CODE     ---       #206
      ---         BLOCKEND  ---      ---       LVL=0

      00FF0003H   BLOCK     CODE     ---       LVL=0
      R7          REGSYM    ---      BYTE      i
      R10         REGSYM    ---      BYTE      read
      00FF0003H   LINE      CODE     ---       #209
      00FF0003H   LINE      CODE     ---       #210
      00FF0003H   LINE      CODE     ---       #211
      00FF0005H   LINE      CODE     ---       #212
      00FF0008H   LINE      CODE     ---       #214
      00FF000AH   LINE      CODE     ---       #215
      00FF000CH   LINE      CODE     ---       #216
      00FF000FH   LINE      CODE     ---       #218
      00FF0011H   LINE      CODE     ---       #219
      00FF0011H   LINE      CODE     ---       #220
      00FF0013H   LINE      CODE     ---       #221
      00FF0017H   LINE      CODE     ---       #222
      00FF0019H   LINE      CODE     ---       #223
      ---         BLOCKEND  ---      ---       LVL=0

      00FF160FH   BLOCK     CODE     ---       LVL=0
      000000A9H   SYMBOL    EDATA    BYTE      addrHigh
      000000AAH   SYMBOL    EDATA    BYTE      addrMid
      000000ABH   SYMBOL    EDATA    BYTE      addrLow
L251 LINKER/LOCATER V4.66.93.0                                                        07/19/2023  21:16:02  PAGE 15


      REG=3       REGSYM    ---      ---       pbuff
      000000ACH   SYMBOL    EDATA    BYTE      DataLen
      00FF1623H   BLOCK     CODE     NEAR LAB  LVL=1
      000000ADH   SYMBOL    EDATA    BYTE      i
      ---         BLOCKEND  ---      ---       LVL=1
      00FF160FH   LINE      CODE     ---       #228
      00FF1623H   LINE      CODE     ---       #229
      00FF1623H   LINE      CODE     ---       #231
      00FF1625H   LINE      CODE     ---       #232
      00FF162AH   LINE      CODE     ---       #233
      00FF1631H   LINE      CODE     ---       #234
      00FF1638H   LINE      CODE     ---       #235
      00FF163FH   LINE      CODE     ---       #236
      00FF1642H   LINE      CODE     ---       #238
      00FF1652H   LINE      CODE     ---       #239
      00FF1665H   LINE      CODE     ---       #240
      00FF1667H   LINE      CODE     ---       #241
      ---         BLOCKEND  ---      ---       LVL=0

      00FF083AH   BLOCK     CODE     ---       LVL=0
      00000021H   SYMBOL    EDATA    BYTE      x
      00000022H   SYMBOL    EDATA    BYTE      y
      REG=3       REGSYM    ---      ---       text
      00FF0846H   BLOCK     CODE     NEAR LAB  LVL=1
      00000023H   SYMBOL    EDATA    BYTE      i
      00000024H   SYMBOL    EDATA    BYTE      addrHigh
      00000025H   SYMBOL    EDATA    BYTE      addrMid
      00000026H   SYMBOL    EDATA    BYTE      addrLow
      00000027H   SYMBOL    EDATA    ---       fontbuf
      00FF09D2H   BLOCK     CODE     NEAR LAB  LVL=2
      00000047H   SYMBOL    EDATA    ---       fontbuf
      ---         BLOCKEND  ---      ---       LVL=2
      ---         BLOCKEND  ---      ---       LVL=1
      00FF083AH   LINE      CODE     ---       #245
      00FF0846H   LINE      CODE     ---       #246
      00FF0846H   LINE      CODE     ---       #247
      00FF0847H   LINE      CODE     ---       #250
      00FF084AH   LINE      CODE     ---       #252
      00FF087AH   LINE      CODE     ---       #257
      00FF088DH   LINE      CODE     ---       #258
      00FF089BH   LINE      CODE     ---       #259
      00FF08AAH   LINE      CODE     ---       #261
      00FF08B4H   LINE      CODE     ---       #262
      00FF08BAH   LINE      CODE     ---       #263
      00FF08C0H   LINE      CODE     ---       #265
      00FF08CAH   LINE      CODE     ---       #267
      00FF08D9H   LINE      CODE     ---       #269
      00FF08E3H   LINE      CODE     ---       #270
      00FF08E9H   LINE      CODE     ---       #271
      00FF08ECH   LINE      CODE     ---       #272
      00FF092CH   LINE      CODE     ---       #275
      00FF094CH   LINE      CODE     ---       #276
      00FF095AH   LINE      CODE     ---       #277
      00FF0969H   LINE      CODE     ---       #279
      00FF0973H   LINE      CODE     ---       #280
      00FF0979H   LINE      CODE     ---       #281
      00FF097FH   LINE      CODE     ---       #283
      00FF0989H   LINE      CODE     ---       #284
      00FF0998H   LINE      CODE     ---       #285
      00FF09A2H   LINE      CODE     ---       #286
      00FF09A8H   LINE      CODE     ---       #287
      00FF09ABH   LINE      CODE     ---       #288
      00FF09D2H   LINE      CODE     ---       #289
      00FF09D2H   LINE      CODE     ---       #291
      00FF09EBH   LINE      CODE     ---       #292
L251 LINKER/LOCATER V4.66.93.0                                                        07/19/2023  21:16:02  PAGE 16


      00FF09F6H   LINE      CODE     ---       #293
      00FF0A02H   LINE      CODE     ---       #295
      00FF0A0CH   LINE      CODE     ---       #296
      00FF0A12H   LINE      CODE     ---       #297
      00FF0A18H   LINE      CODE     ---       #299
      00FF0A22H   LINE      CODE     ---       #300
      00FF0A31H   LINE      CODE     ---       #301
      00FF0A3BH   LINE      CODE     ---       #302
      00FF0A40H   LINE      CODE     ---       #303
      00FF0A42H   LINE      CODE     ---       #305
      00FF0A4BH   LINE      CODE     ---       #306
      00FF0A60H   LINE      CODE     ---       #307
      ---         BLOCKEND  ---      ---       LVL=0

      00FF1056H   BLOCK     CODE     ---       LVL=0
      00000008H   SYMBOL    EDATA    BYTE      x
      00000009H   SYMBOL    EDATA    BYTE      y
      REG=3       REGSYM    ---      ---       text
      00FF1062H   BLOCK     CODE     NEAR LAB  LVL=1
      0000000AH   SYMBOL    EDATA    BYTE      i
      0000000BH   SYMBOL    EDATA    BYTE      addrHigh
      0000000CH   SYMBOL    EDATA    BYTE      addrMid
      0000000DH   SYMBOL    EDATA    BYTE      addrLow
      00FF107CH   BLOCK     CODE     NEAR LAB  LVL=2
      0000000EH   SYMBOL    EDATA    ---       fontbuf
      ---         BLOCKEND  ---      ---       LVL=2
      ---         BLOCKEND  ---      ---       LVL=1
      00FF1056H   LINE      CODE     ---       #309
      00FF1062H   LINE      CODE     ---       #310
      00FF1062H   LINE      CODE     ---       #311
      00FF1063H   LINE      CODE     ---       #313
      00FF1065H   LINE      CODE     ---       #315
      00FF107CH   LINE      CODE     ---       #316
      00FF107CH   LINE      CODE     ---       #318
      00FF1088H   LINE      CODE     ---       #319
      00FF1092H   LINE      CODE     ---       #320
      00FF109EH   LINE      CODE     ---       #322
      00FF10A8H   LINE      CODE     ---       #323
      00FF10AEH   LINE      CODE     ---       #324
      00FF10B4H   LINE      CODE     ---       #326
      00FF10BEH   LINE      CODE     ---       #327
      00FF10CDH   LINE      CODE     ---       #328
      00FF10D7H   LINE      CODE     ---       #329
      00FF10DCH   LINE      CODE     ---       #330
      00FF10DEH   LINE      CODE     ---       #332
      00FF10E7H   LINE      CODE     ---       #333
      00FF10FCH   LINE      CODE     ---       #334
      ---         BLOCKEND  ---      ---       LVL=0

      00FF0DA3H   BLOCK     CODE     ---       LVL=0
      R15         REGSYM    ---      BYTE      x
      R14         REGSYM    ---      BYTE      y
      DR28        REGSYM    ---      FLOAT     num1
      R13         REGSYM    ---      BYTE      len
      00FF0DADH   BLOCK     CODE     NEAR LAB  LVL=1
      R12         REGSYM    ---      BYTE      i
      00000016H   SYMBOL    EDATA    DWORD     t
      0000001AH   SYMBOL    EDATA    DWORD     num
      ---         BLOCKEND  ---      ---       LVL=1
      00FF0DA3H   LINE      CODE     ---       #340
      00FF0DADH   LINE      CODE     ---       #341
      00FF0DADH   LINE      CODE     ---       #342
      00FF0DADH   LINE      CODE     ---       #343
      00FF0DB3H   LINE      CODE     ---       #344
      00FF0DC1H   LINE      CODE     ---       #345
L251 LINKER/LOCATER V4.66.93.0                                                        07/19/2023  21:16:02  PAGE 17


      00FF0DD3H   LINE      CODE     ---       #346
      00FF0DE6H   LINE      CODE     ---       #347
      00FF0DEBH   LINE      CODE     ---       #349
      00FF0DFEH   LINE      CODE     ---       #350
      00FF0E09H   LINE      CODE     ---       #351
      00FF0E0CH   LINE      CODE     ---       #352
      00FF0E14H   LINE      CODE     ---       #353
      00FF0E47H   LINE      CODE     ---       #355
      00FF0E55H   LINE      CODE     ---       #356
      00FF0E63H   LINE      CODE     ---       #357
      00FF0E71H   LINE      CODE     ---       #358
      00FF0E7FH   LINE      CODE     ---       #359
      00FF0E8DH   LINE      CODE     ---       #360
      00FF0E9BH   LINE      CODE     ---       #361
      00FF0EA9H   LINE      CODE     ---       #362
      00FF0EB7H   LINE      CODE     ---       #363
      00FF0EC5H   LINE      CODE     ---       #364
      00FF0ED4H   LINE      CODE     ---       #365
      00FF0ED4H   LINE      CODE     ---       #366
      00FF0EDDH   LINE      CODE     ---       #367
      ---         BLOCKEND  ---      ---       LVL=0

      00FF0EE0H   BLOCK     CODE     ---       LVL=0
      00FF0EE0H   LINE      CODE     ---       #370
      00FF0EE0H   LINE      CODE     ---       #373
      00FF0EE2H   LINE      CODE     ---       #374
      00FF0EE4H   LINE      CODE     ---       #375
      00FF0EEBH   LINE      CODE     ---       #376
      00FF0EF2H   LINE      CODE     ---       #377
      00FF0EF9H   LINE      CODE     ---       #378
      00FF0F00H   LINE      CODE     ---       #379
      00FF0F07H   LINE      CODE     ---       #380
      00FF0F0EH   LINE      CODE     ---       #381
      00FF0F15H   LINE      CODE     ---       #382
      00FF0F1CH   LINE      CODE     ---       #383
      00FF0F23H   LINE      CODE     ---       #384
      00FF0F2AH   LINE      CODE     ---       #385
      00FF0F31H   LINE      CODE     ---       #386
      00FF0F38H   LINE      CODE     ---       #387
      00FF0F3FH   LINE      CODE     ---       #388
      00FF0F46H   LINE      CODE     ---       #389
      00FF0F4DH   LINE      CODE     ---       #390
      00FF0F54H   LINE      CODE     ---       #391
      00FF0F5BH   LINE      CODE     ---       #392
      00FF0F61H   LINE      CODE     ---       #393
      00FF0F68H   LINE      CODE     ---       #394
      00FF0F6FH   LINE      CODE     ---       #395
      00FF0F76H   LINE      CODE     ---       #396
      00FF0F7DH   LINE      CODE     ---       #397
      00FF0F84H   LINE      CODE     ---       #398
      00FF0F8BH   LINE      CODE     ---       #399
      00FF0F92H   LINE      CODE     ---       #400
      00FF0F99H   LINE      CODE     ---       #401
      00FF0F9CH   LINE      CODE     ---       #402
      ---         BLOCKEND  ---      ---       LVL=0

      ---         MODULE    ---      ---       Meun
      00FF1C63H   PUBLIC    HCONST   ---       set
      00FF0A63H   PUBLIC    CODE     ---       Main_Meun
      00FF10FFH   PUBLIC    CODE     ---       Meun_2_control
      00FF119EH   PUBLIC    CODE     ---       Meun_2_angle
      00FF0FA3H   PUBLIC    CODE     ---       Memu
      00FF123DH   PUBLIC    CODE     ---       Meun_2_speed
      00FF12DCH   PUBLIC    CODE     ---       Meun_2_Pitching
      000000BEH   PUBLIC    EDATA    INT       page_table
L251 LINKER/LOCATER V4.66.93.0                                                        07/19/2023  21:16:02  PAGE 18


      000000D0H   SFRSYM    DATA     BYTE      PSW
      0000009DH   SFRSYM    DATA     BYTE      IRCBAND
      00000097H   SFRSYM    DATA     BYTE      AUXR2
      000000EFH   SFRSYM    DATA     BYTE      AUXINTIF
      000000FDH   SFRSYM    DATA     BYTE      S4CON
      000000ACH   SFRSYM    DATA     BYTE      S3CON
      0000009AH   SFRSYM    DATA     BYTE      S2CON
      000000B7H   SFRSYM    DATA     BYTE      IPH
      000000CDH   SFRSYM    DATA     BYTE      SPSTAT
      000000DDH   SFRSYM    DATA     BYTE      T4T3M
      000000C1H   SFRSYM    DATA     BYTE      WDT_CONTR
      000000DFH   SFRSYM    DATA     BYTE      IP3
      000000F4H   SFRSYM    DATA     BYTE      USBCON
      000000B5H   SFRSYM    DATA     BYTE      IP2
      000000FFH   SFRSYM    DATA     BYTE      RSTCFG
      000000C7H   SFRSYM    DATA     BYTE      IAP_CONTR
      000000F9H   SFRSYM    DATA     BYTE      LINICR
      0000008EH   SFRSYM    DATA     BYTE      AUXR
      000000AFH   SFRSYM    DATA     BYTE      IE2
      00000088H   SFRSYM    DATA     BYTE      TCON
      00000089H   SFRSYM    DATA     BYTE      TMOD
      00000098H   SFRSYM    DATA     BYTE      SCON
      000000F1H   SFRSYM    DATA     BYTE      CANICR
      00000087H   SFRSYM    DATA     BYTE      PCON
      000000BCH   SFRSYM    DATA     BYTE      ADC_CONTR
      000000E7H   SFRSYM    DATA     BYTE      CMPCR2
      000000E6H   SFRSYM    DATA     BYTE      CMPCR1
      000000DEH   SFRSYM    DATA     BYTE      ADCCFG
      000000B8H   SFRSYM    DATA     BYTE      IP
      0000008FH   SFRSYM    DATA     BYTE      INTCLKO
      000000EEH   SFRSYM    DATA     BYTE      IP3H
      000000B6H   SFRSYM    DATA     BYTE      IP2H
      000000A8H   SFRSYM    DATA     BYTE      IE
      000000BBH   SFRSYM    DATA     BYTE      P_SW3
      000000BAH   SFRSYM    DATA     BYTE      P_SW2
      000000A2H   SFRSYM    DATA     BYTE      P_SW1
      000000CEH   SFRSYM    DATA     BYTE      SPCTL
      000000F8H   SFRSYM    DATA     BYTE      P7
      000000E8H   SFRSYM    DATA     BYTE      P6
      000000C8H   SFRSYM    DATA     BYTE      P5
      000000C0H   SFRSYM    DATA     BYTE      P4
      000000B0H   SFRSYM    DATA     BYTE      P3
      000000A0H   SFRSYM    DATA     BYTE      P2
      00000090H   SFRSYM    DATA     BYTE      P1
      00000080H   SFRSYM    DATA     BYTE      P0

      00FF0FA3H   BLOCK     CODE     ---       LVL=0
      00FF0FA3H   LINE      CODE     ---       #42
      00FF0FA7H   LINE      CODE     ---       #44
      00FF0FB4H   LINE      CODE     ---       #46
      00FF0FB4H   LINE      CODE     ---       #47
      00FF0FB7H   LINE      CODE     ---       #48
      00FF0FBAH   LINE      CODE     ---       #49
      00FF0FBAH   LINE      CODE     ---       #50
      00FF0FE1H   LINE      CODE     ---       #51
      00FF1000H   LINE      CODE     ---       #52
      00FF101FH   LINE      CODE     ---       #53
      00FF1041H   LINE      CODE     ---       #54
      00FF1051H   LINE      CODE     ---       #55
      00FF1051H   LINE      CODE     ---       #56
      00FF1051H   LINE      CODE     ---       #57
      ---         BLOCKEND  ---      ---       LVL=0

      00FF0A63H   BLOCK     CODE     ---       LVL=0
      00FF0A63H   LINE      CODE     ---       #66
L251 LINKER/LOCATER V4.66.93.0                                                        07/19/2023  21:16:02  PAGE 19


      00FF0A65H   LINE      CODE     ---       #68
      00FF0A7EH   LINE      CODE     ---       #70
      00FF0A86H   LINE      CODE     ---       #71
      00FF0AAEH   LINE      CODE     ---       #72
      00FF0AD6H   LINE      CODE     ---       #73
      00FF0AFEH   LINE      CODE     ---       #74
      00FF0B1CH   LINE      CODE     ---       #75
      00FF0B1FH   LINE      CODE     ---       #76
      00FF0B2EH   LINE      CODE     ---       #78
      00FF0B31H   LINE      CODE     ---       #79
      00FF0B36H   LINE      CODE     ---       #80
      00FF0B3AH   LINE      CODE     ---       #81
      00FF0B3DH   LINE      CODE     ---       #82
      00FF0B52H   LINE      CODE     ---       #84
      00FF0B7AH   LINE      CODE     ---       #85
      00FF0BA2H   LINE      CODE     ---       #86
      00FF0BCAH   LINE      CODE     ---       #87
      00FF0BF2H   LINE      CODE     ---       #88
      00FF0BF4H   LINE      CODE     ---       #89
      00FF0C03H   LINE      CODE     ---       #91
      00FF0C06H   LINE      CODE     ---       #92
      00FF0C0CH   LINE      CODE     ---       #93
      00FF0C14H   LINE      CODE     ---       #94
      00FF0C14H   LINE      CODE     ---       #95
      00FF0C24H   LINE      CODE     ---       #97
      00FF0C2BH   LINE      CODE     ---       #98
      ---         BLOCKEND  ---      ---       LVL=0

      00FF123DH   BLOCK     CODE     ---       LVL=0
      00FF123DH   LINE      CODE     ---       #107
      00FF123DH   LINE      CODE     ---       #109
      00FF1265H   LINE      CODE     ---       #110
      00FF128CH   LINE      CODE     ---       #111
      00FF12B4H   LINE      CODE     ---       #112
      ---         BLOCKEND  ---      ---       LVL=0

      00FF119EH   BLOCK     CODE     ---       LVL=0
      00FF119EH   LINE      CODE     ---       #115
      00FF119EH   LINE      CODE     ---       #117
      00FF11C6H   LINE      CODE     ---       #118
      00FF11EDH   LINE      CODE     ---       #119
      00FF1215H   LINE      CODE     ---       #120
      ---         BLOCKEND  ---      ---       LVL=0

      00FF12DCH   BLOCK     CODE     ---       LVL=0
      00FF12DCH   LINE      CODE     ---       #123
      00FF12DCH   LINE      CODE     ---       #125
      00FF1304H   LINE      CODE     ---       #126
      00FF132BH   LINE      CODE     ---       #127
      00FF1353H   LINE      CODE     ---       #128
      ---         BLOCKEND  ---      ---       LVL=0

      00FF10FFH   BLOCK     CODE     ---       LVL=0
      00FF10FFH   LINE      CODE     ---       #131
      00FF10FFH   LINE      CODE     ---       #133
      00FF1127H   LINE      CODE     ---       #134
      00FF114EH   LINE      CODE     ---       #135
      00FF1176H   LINE      CODE     ---       #136
      ---         BLOCKEND  ---      ---       LVL=0

      ---         MODULE    ---      ---       Encoders
      00FF151DH   PUBLIC    CODE     ---       add
      00FF1596H   PUBLIC    CODE     ---       lose
      00FF1716H   PUBLIC    CODE     ---       up_key_detection
      00FF1765H   PUBLIC    CODE     ---       rotary_encoder
L251 LINKER/LOCATER V4.66.93.0                                                        07/19/2023  21:16:02  PAGE 20


      00FF137BH   PUBLIC    CODE     ---       Cancel_determine
      00FF0C2EH   PUBLIC    CODE     ---       Second_menu_value
      0000009BH   PUBLIC    EDATA    WORD      s_count
      0000009DH   PUBLIC    EDATA    ---       adjust
      000000A2H   PUBLIC    EDATA    ---       spin
      000000A6H   PUBLIC    EDATA    BYTE      part_count
      000000A7H   PUBLIC    EDATA    BYTE      Confirm_exit
      000000A8H   PUBLIC    EDATA    BYTE      part2_count
      00000020H.0 PUBLIC    BIT      BIT       rising_edge
      00000020H.1 PUBLIC    BIT      BIT       arrow_Value
      00000020H.2 PUBLIC    BIT      BIT       add_lose
      00000020H.3 PUBLIC    BIT      BIT       long_short
      00000020H.4 PUBLIC    BIT      BIT       falling_Down
      000000D0H   SFRSYM    DATA     BYTE      PSW
      0000009DH   SFRSYM    DATA     BYTE      IRCBAND
      00000097H   SFRSYM    DATA     BYTE      AUXR2
      000000EFH   SFRSYM    DATA     BYTE      AUXINTIF
      000000FDH   SFRSYM    DATA     BYTE      S4CON
      000000ACH   SFRSYM    DATA     BYTE      S3CON
      0000009AH   SFRSYM    DATA     BYTE      S2CON
      000000B7H   SFRSYM    DATA     BYTE      IPH
      000000CDH   SFRSYM    DATA     BYTE      SPSTAT
      000000DDH   SFRSYM    DATA     BYTE      T4T3M
      000000C1H   SFRSYM    DATA     BYTE      WDT_CONTR
      000000DFH   SFRSYM    DATA     BYTE      IP3
      000000F4H   SFRSYM    DATA     BYTE      USBCON
      000000B5H   SFRSYM    DATA     BYTE      IP2
      000000FFH   SFRSYM    DATA     BYTE      RSTCFG
      000000C7H   SFRSYM    DATA     BYTE      IAP_CONTR
      000000F9H   SFRSYM    DATA     BYTE      LINICR
      0000008EH   SFRSYM    DATA     BYTE      AUXR
      000000AFH   SFRSYM    DATA     BYTE      IE2
      00000088H   SFRSYM    DATA     BYTE      TCON
      00000089H   SFRSYM    DATA     BYTE      TMOD
      00000098H   SFRSYM    DATA     BYTE      SCON
      000000F1H   SFRSYM    DATA     BYTE      CANICR
      00000087H   SFRSYM    DATA     BYTE      PCON
      000000BCH   SFRSYM    DATA     BYTE      ADC_CONTR
      000000E7H   SFRSYM    DATA     BYTE      CMPCR2
      000000E6H   SFRSYM    DATA     BYTE      CMPCR1
      000000DEH   SFRSYM    DATA     BYTE      ADCCFG
      000000B8H   SFRSYM    DATA     BYTE      IP
      0000008FH   SFRSYM    DATA     BYTE      INTCLKO
      000000B0H.4 SFRSYM    DATA     BIT       EC11_K
      000000EEH   SFRSYM    DATA     BYTE      IP3H
      000000B6H   SFRSYM    DATA     BYTE      IP2H
      000000A8H   SFRSYM    DATA     BYTE      IE
      000000BBH   SFRSYM    DATA     BYTE      P_SW3
      000000BAH   SFRSYM    DATA     BYTE      P_SW2
      000000B0H.3 SFRSYM    DATA     BIT       EC11_B
      000000A2H   SFRSYM    DATA     BYTE      P_SW1
      000000B0H.2 SFRSYM    DATA     BIT       EC11_A
      000000CEH   SFRSYM    DATA     BYTE      SPCTL
      000000F8H   SFRSYM    DATA     BYTE      P7
      000000E8H   SFRSYM    DATA     BYTE      P6
      000000C8H   SFRSYM    DATA     BYTE      P5
      000000C0H   SFRSYM    DATA     BYTE      P4
      000000B0H   SFRSYM    DATA     BYTE      P3
      000000A0H   SFRSYM    DATA     BYTE      P2
      00000090H   SFRSYM    DATA     BYTE      P1
      00000080H   SFRSYM    DATA     BYTE      P0

      00FF1716H   BLOCK     CODE     ---       LVL=0
      00FF1716H   LINE      CODE     ---       #18
      00FF1718H   LINE      CODE     ---       #20
L251 LINKER/LOCATER V4.66.93.0                                                        07/19/2023  21:16:02  PAGE 21


      00FF1726H   LINE      CODE     ---       #21
      00FF172DH   LINE      CODE     ---       #23
      00FF1735H   LINE      CODE     ---       #24
      00FF173DH   LINE      CODE     ---       #25
      00FF174BH   LINE      CODE     ---       #27
      00FF174DH   LINE      CODE     ---       #28
      00FF175BH   LINE      CODE     ---       #29
      00FF1762H   LINE      CODE     ---       #30
      00FF1762H   LINE      CODE     ---       #31
      00FF1762H   LINE      CODE     ---       #32
      ---         BLOCKEND  ---      ---       LVL=0

      00FF1765H   BLOCK     CODE     ---       LVL=0
      00FF1765H   LINE      CODE     ---       #38
      00FF1765H   LINE      CODE     ---       #40
      00FF1775H   LINE      CODE     ---       #41
      00FF177CH   LINE      CODE     ---       #43
      00FF1784H   LINE      CODE     ---       #44
      00FF178CH   LINE      CODE     ---       #45
      00FF1798H   LINE      CODE     ---       #47
      00FF179AH   LINE      CODE     ---       #48
      00FF17A4H   LINE      CODE     ---       #49
      00FF17ADH   LINE      CODE     ---       #50
      00FF17ADH   LINE      CODE     ---       #51
      00FF17ADH   LINE      CODE     ---       #52
      ---         BLOCKEND  ---      ---       LVL=0

      00FF151DH   BLOCK     CODE     ---       LVL=0
      00FF151DH   LINE      CODE     ---       #60
      00FF151DH   LINE      CODE     ---       #62
      00FF1523H   LINE      CODE     ---       #64
      00FF152BH   LINE      CODE     ---       #66
      00FF1541H   LINE      CODE     ---       #67
      00FF1543H   LINE      CODE     ---       #68
      00FF1548H   LINE      CODE     ---       #70
      00FF155EH   LINE      CODE     ---       #71
      00FF155EH   LINE      CODE     ---       #72
      00FF1576H   LINE      CODE     ---       #73
      00FF158EH   LINE      CODE     ---       #74
      00FF1591H   LINE      CODE     ---       #75
      00FF1591H   LINE      CODE     ---       #78
      00FF1593H   LINE      CODE     ---       #79
      00FF1596H   LINE      CODE     ---       #80
      00FF1596H   LINE      CODE     ---       #81
      ---         BLOCKEND  ---      ---       LVL=0

      00FF1596H   BLOCK     CODE     ---       LVL=0
      00FF1596H   LINE      CODE     ---       #88
      00FF1596H   LINE      CODE     ---       #90
      00FF159CH   LINE      CODE     ---       #92
      00FF15A4H   LINE      CODE     ---       #94
      00FF15BAH   LINE      CODE     ---       #95
      00FF15BCH   LINE      CODE     ---       #96
      00FF15C1H   LINE      CODE     ---       #98
      00FF15D7H   LINE      CODE     ---       #99
      00FF15D7H   LINE      CODE     ---       #100
      00FF15EFH   LINE      CODE     ---       #101
      00FF1607H   LINE      CODE     ---       #102
      00FF160AH   LINE      CODE     ---       #103
      00FF160AH   LINE      CODE     ---       #106
      00FF160CH   LINE      CODE     ---       #107
      00FF160FH   LINE      CODE     ---       #108
      00FF160FH   LINE      CODE     ---       #109
      ---         BLOCKEND  ---      ---       LVL=0

L251 LINKER/LOCATER V4.66.93.0                                                        07/19/2023  21:16:02  PAGE 22


      00FF0C2EH   BLOCK     CODE     ---       LVL=0
      00FF0C2EH   LINE      CODE     ---       #115
      00FF0C2EH   LINE      CODE     ---       #117
      00FF0C49H   LINE      CODE     ---       #118
      00FF0C64H   LINE      CODE     ---       #119
      00FF0C8EH   LINE      CODE     ---       #120
      00FF0CA1H   LINE      CODE     ---       #122
      00FF0CB6H   LINE      CODE     ---       #123
      00FF0CCFH   LINE      CODE     ---       #124
      00FF0CE1H   LINE      CODE     ---       #125
      00FF0CF4H   LINE      CODE     ---       #127
      00FF0D09H   LINE      CODE     ---       #128
      00FF0D22H   LINE      CODE     ---       #129
      00FF0D33H   LINE      CODE     ---       #130
      00FF0D45H   LINE      CODE     ---       #132
      00FF0D5AH   LINE      CODE     ---       #133
      00FF0D73H   LINE      CODE     ---       #134
      00FF0D89H   LINE      CODE     ---       #135
      00FF0DA2H   LINE      CODE     ---       #136
      ---         BLOCKEND  ---      ---       LVL=0

      00FF137BH   BLOCK     CODE     ---       LVL=0
      00FF137BH   LINE      CODE     ---       #143
      00FF137BH   LINE      CODE     ---       #144
      00FF137BH   LINE      CODE     ---       #146
      00FF1387H   LINE      CODE     ---       #148
      00FF1398H   LINE      CODE     ---       #150
      00FF139EH   LINE      CODE     ---       #151
      00FF13A1H   LINE      CODE     ---       #152
      00FF13A3H   LINE      CODE     ---       #153
      00FF13B5H   LINE      CODE     ---       #154
      00FF13BEH   LINE      CODE     ---       #155
      00FF13C4H   LINE      CODE     ---       #156
      00FF13C5H   LINE      CODE     ---       #157
      00FF13D6H   LINE      CODE     ---       #159
      00FF13DCH   LINE      CODE     ---       #160
      00FF13DFH   LINE      CODE     ---       #161
      00FF13E1H   LINE      CODE     ---       #162
      00FF13E3H   LINE      CODE     ---       #163
      00FF13E8H   LINE      CODE     ---       #164
      00FF13ECH   LINE      CODE     ---       #165
      00FF13F0H   LINE      CODE     ---       #166
      00FF13F4H   LINE      CODE     ---       #167
      00FF13F5H   LINE      CODE     ---       #168
      00FF1406H   LINE      CODE     ---       #170
      00FF140CH   LINE      CODE     ---       #171
      00FF140CH   LINE      CODE     ---       #173
      ---         BLOCKEND  ---      ---       LVL=0

      ---         MODULE    ---      ---       timer
      00FF1BDCH   PUBLIC    CODE     ---       delay
      00FF1BA3H   PUBLIC    CODE     ---       Timer1Init
      000000C0H   PUBLIC    EDATA    WORD      delay_cnt
      000000D0H   SFRSYM    DATA     BYTE      PSW
      0000009DH   SFRSYM    DATA     BYTE      IRCBAND
      00000097H   SFRSYM    DATA     BYTE      AUXR2
      000000EFH   SFRSYM    DATA     BYTE      AUXINTIF
      000000FDH   SFRSYM    DATA     BYTE      S4CON
      000000ACH   SFRSYM    DATA     BYTE      S3CON
      0000009AH   SFRSYM    DATA     BYTE      S2CON
      000000B7H   SFRSYM    DATA     BYTE      IPH
      000000CDH   SFRSYM    DATA     BYTE      SPSTAT
      000000DDH   SFRSYM    DATA     BYTE      T4T3M
      000000C1H   SFRSYM    DATA     BYTE      WDT_CONTR
      00000088H.6 SFRSYM    DATA     BIT       TR1
L251 LINKER/LOCATER V4.66.93.0                                                        07/19/2023  21:16:02  PAGE 23


      0000008BH   SFRSYM    DATA     BYTE      TL1
      0000008DH   SFRSYM    DATA     BYTE      TH1
      000000DFH   SFRSYM    DATA     BYTE      IP3
      000000F4H   SFRSYM    DATA     BYTE      USBCON
      00000088H.7 SFRSYM    DATA     BIT       TF1
      000000B5H   SFRSYM    DATA     BYTE      IP2
      000000FFH   SFRSYM    DATA     BYTE      RSTCFG
      000000A8H.3 SFRSYM    DATA     BIT       ET1
      000000C7H   SFRSYM    DATA     BYTE      IAP_CONTR
      000000F9H   SFRSYM    DATA     BYTE      LINICR
      0000008EH   SFRSYM    DATA     BYTE      AUXR
      000000AFH   SFRSYM    DATA     BYTE      IE2
      00000088H   SFRSYM    DATA     BYTE      TCON
      00000089H   SFRSYM    DATA     BYTE      TMOD
      00000098H   SFRSYM    DATA     BYTE      SCON
      000000F1H   SFRSYM    DATA     BYTE      CANICR
      00000087H   SFRSYM    DATA     BYTE      PCON
      000000BCH   SFRSYM    DATA     BYTE      ADC_CONTR
      000000E7H   SFRSYM    DATA     BYTE      CMPCR2
      000000E6H   SFRSYM    DATA     BYTE      CMPCR1
      000000DEH   SFRSYM    DATA     BYTE      ADCCFG
      000000B8H   SFRSYM    DATA     BYTE      IP
      0000008FH   SFRSYM    DATA     BYTE      INTCLKO
      000000EEH   SFRSYM    DATA     BYTE      IP3H
      000000B6H   SFRSYM    DATA     BYTE      IP2H
      000000A8H   SFRSYM    DATA     BYTE      IE
      000000BBH   SFRSYM    DATA     BYTE      P_SW3
      000000BAH   SFRSYM    DATA     BYTE      P_SW2
      000000A2H   SFRSYM    DATA     BYTE      P_SW1
      000000CEH   SFRSYM    DATA     BYTE      SPCTL
      000000F8H   SFRSYM    DATA     BYTE      P7
      000000A8H.7 SFRSYM    DATA     BIT       EA
      000000E8H   SFRSYM    DATA     BYTE      P6
      000000C8H   SFRSYM    DATA     BYTE      P5
      000000C0H   SFRSYM    DATA     BYTE      P4
      000000B0H   SFRSYM    DATA     BYTE      P3
      000000A0H   SFRSYM    DATA     BYTE      P2
      00000090H   SFRSYM    DATA     BYTE      P1
      00000080H   SFRSYM    DATA     BYTE      P0

      00FF1BA3H   BLOCK     CODE     ---       LVL=0
      00FF1BA3H   LINE      CODE     ---       #3
      00FF1BA3H   LINE      CODE     ---       #5
      00FF1BA6H   LINE      CODE     ---       #6
      00FF1BA9H   LINE      CODE     ---       #7
      00FF1BACH   LINE      CODE     ---       #8
      00FF1BAFH   LINE      CODE     ---       #9
      00FF1BB1H   LINE      CODE     ---       #10
      00FF1BB3H   LINE      CODE     ---       #11
      00FF1BB5H   LINE      CODE     ---       #12
      00FF1BB7H   LINE      CODE     ---       #13
      ---         BLOCKEND  ---      ---       LVL=0

      00FF1BDCH   BLOCK     CODE     ---       LVL=0
      WR6         REGSYM    ---      WORD      delay
      00FF1BDCH   LINE      CODE     ---       #17
      00FF1BDCH   LINE      CODE     ---       #19
      00FF1BE0H   LINE      CODE     ---       #20
      00FF1BEAH   LINE      CODE     ---       #21
      ---         BLOCKEND  ---      ---       LVL=0

      ---         MODULE    ---      ---       Uart
      00FF1B1EH   PUBLIC    CODE     ---       UartInit
      00FF1C05H   PUBLIC    CODE     ---       Uart1_Isr
      00FF1C0FH   PUBLIC    CODE     ---       Uart_sendbyte
L251 LINKER/LOCATER V4.66.93.0                                                        07/19/2023  21:16:02  PAGE 24


      00FF1B63H   PUBLIC    CODE     ---       Uart_String
      000000D0H   SFRSYM    DATA     BYTE      PSW
      0000009DH   SFRSYM    DATA     BYTE      IRCBAND
      00000097H   SFRSYM    DATA     BYTE      AUXR2
      000000EFH   SFRSYM    DATA     BYTE      AUXINTIF
      000000FDH   SFRSYM    DATA     BYTE      S4CON
      000000ACH   SFRSYM    DATA     BYTE      S3CON
      0000009AH   SFRSYM    DATA     BYTE      S2CON
      000000B7H   SFRSYM    DATA     BYTE      IPH
      000000CDH   SFRSYM    DATA     BYTE      SPSTAT
      000000DDH   SFRSYM    DATA     BYTE      T4T3M
      000000C1H   SFRSYM    DATA     BYTE      WDT_CONTR
      000000D7H   SFRSYM    DATA     BYTE      T2L
      000000D6H   SFRSYM    DATA     BYTE      T2H
      000000DFH   SFRSYM    DATA     BYTE      IP3
      000000F4H   SFRSYM    DATA     BYTE      USBCON
      000000B5H   SFRSYM    DATA     BYTE      IP2
      000000FFH   SFRSYM    DATA     BYTE      RSTCFG
      000000C7H   SFRSYM    DATA     BYTE      IAP_CONTR
      000000F9H   SFRSYM    DATA     BYTE      LINICR
      0000008EH   SFRSYM    DATA     BYTE      AUXR
      000000AFH   SFRSYM    DATA     BYTE      IE2
      00000088H   SFRSYM    DATA     BYTE      TCON
      00000089H   SFRSYM    DATA     BYTE      TMOD
      00000098H   SFRSYM    DATA     BYTE      SCON
      000000F1H   SFRSYM    DATA     BYTE      CANICR
      00000087H   SFRSYM    DATA     BYTE      PCON
      00000099H   SFRSYM    DATA     BYTE      SBUF
      000000BCH   SFRSYM    DATA     BYTE      ADC_CONTR
      000000E7H   SFRSYM    DATA     BYTE      CMPCR2
      000000E6H   SFRSYM    DATA     BYTE      CMPCR1
      00000098H.1 SFRSYM    DATA     BIT       TI
      00000098H.0 SFRSYM    DATA     BIT       RI
      000000DEH   SFRSYM    DATA     BYTE      ADCCFG
      000000B8H   SFRSYM    DATA     BYTE      IP
      000000A8H.4 SFRSYM    DATA     BIT       ES
      0000008FH   SFRSYM    DATA     BYTE      INTCLKO
      000000EEH   SFRSYM    DATA     BYTE      IP3H
      000000B6H   SFRSYM    DATA     BYTE      IP2H
      000000A8H   SFRSYM    DATA     BYTE      IE
      000000BBH   SFRSYM    DATA     BYTE      P_SW3
      000000BAH   SFRSYM    DATA     BYTE      P_SW2
      000000A2H   SFRSYM    DATA     BYTE      P_SW1
      000000CEH   SFRSYM    DATA     BYTE      SPCTL
      000000F8H   SFRSYM    DATA     BYTE      P7
      000000A8H.7 SFRSYM    DATA     BIT       EA
      000000E8H   SFRSYM    DATA     BYTE      P6
      000000C8H   SFRSYM    DATA     BYTE      P5
      000000C0H   SFRSYM    DATA     BYTE      P4
      000000B0H   SFRSYM    DATA     BYTE      P3
      000000A0H   SFRSYM    DATA     BYTE      P2
      00000090H   SFRSYM    DATA     BYTE      P1
      00000080H   SFRSYM    DATA     BYTE      P0

      00FF1B1EH   BLOCK     CODE     ---       LVL=0
      00FF1B1EH   LINE      CODE     ---       #2
      00FF1B1EH   LINE      CODE     ---       #4
      00FF1B21H   LINE      CODE     ---       #5
      00FF1B24H   LINE      CODE     ---       #6
      00FF1B27H   LINE      CODE     ---       #7
      00FF1B2AH   LINE      CODE     ---       #8
      00FF1B2DH   LINE      CODE     ---       #9
      00FF1B30H   LINE      CODE     ---       #10
      00FF1B32H   LINE      CODE     ---       #11
      00FF1B34H   LINE      CODE     ---       #12
L251 LINKER/LOCATER V4.66.93.0                                                        07/19/2023  21:16:02  PAGE 25


      ---         BLOCKEND  ---      ---       LVL=0

      00FF1C0FH   BLOCK     CODE     ---       LVL=0
      R11         REGSYM    ---      BYTE      byte
      00FF1C0FH   LINE      CODE     ---       #14
      00FF1C0FH   LINE      CODE     ---       #16
      00FF1C12H   LINE      CODE     ---       #17
      00FF1C15H   LINE      CODE     ---       #18
      00FF1C17H   LINE      CODE     ---       #19
      ---         BLOCKEND  ---      ---       LVL=0

      00FF1B63H   BLOCK     CODE     ---       LVL=0
      REG=3       REGSYM    ---      ---       p
      00FF1B63H   LINE      CODE     ---       #21
      00FF1B67H   LINE      CODE     ---       #23
      00FF1B69H   LINE      CODE     ---       #25
      00FF1B71H   LINE      CODE     ---       #26
      00FF1B76H   LINE      CODE     ---       #27
      ---         BLOCKEND  ---      ---       LVL=0

      00FF1C05H   BLOCK     CODE     ---       LVL=0
      00FF1C05H   LINE      CODE     ---       #29
      00FF1C07H   LINE      CODE     ---       #31
      00FF1C0AH   LINE      CODE     ---       #33
      00FF1C0CH   LINE      CODE     ---       #34
      ---         BLOCKEND  ---      ---       LVL=0

      ---         MODULE    ---      ---       iic
      00FF1BF9H   PUBLIC    CODE     ---       IIC_Delay
      00FF1BCBH   PUBLIC    CODE     ---       IIC_Start
      00FF1974H   PUBLIC    CODE     ---       Hall_element
      00FF1B35H   PUBLIC    CODE     ---       IIC_SendAck
      00FF19A3H   PUBLIC    CODE     ---       IIC_SendByte
      00FF1BB8H   PUBLIC    CODE     ---       IIC_WaitAck
      00FF1BEBH   PUBLIC    CODE     ---       IIC_Stop
      00FF1AA8H   PUBLIC    CODE     ---       IIC_RecByte
      00000020H.5 PUBLIC    BIT      BIT       ?IIC_SendAck?BIT
      000000D0H   SFRSYM    DATA     BYTE      PSW
      0000009DH   SFRSYM    DATA     BYTE      IRCBAND
      00000097H   SFRSYM    DATA     BYTE      AUXR2
      000000EFH   SFRSYM    DATA     BYTE      AUXINTIF
      000000FDH   SFRSYM    DATA     BYTE      S4CON
      000000ACH   SFRSYM    DATA     BYTE      S3CON
      0000009AH   SFRSYM    DATA     BYTE      S2CON
      000000A0H.0 SFRSYM    DATA     BIT       SCL
      000000B7H   SFRSYM    DATA     BYTE      IPH
      000000CDH   SFRSYM    DATA     BYTE      SPSTAT
      000000DDH   SFRSYM    DATA     BYTE      T4T3M
      000000C1H   SFRSYM    DATA     BYTE      WDT_CONTR
      000000A0H.2 SFRSYM    DATA     BIT       SDA
      000000DFH   SFRSYM    DATA     BYTE      IP3
      000000F4H   SFRSYM    DATA     BYTE      USBCON
      000000B5H   SFRSYM    DATA     BYTE      IP2
      000000FFH   SFRSYM    DATA     BYTE      RSTCFG
      000000C7H   SFRSYM    DATA     BYTE      IAP_CONTR
      000000F9H   SFRSYM    DATA     BYTE      LINICR
      0000008EH   SFRSYM    DATA     BYTE      AUXR
      000000AFH   SFRSYM    DATA     BYTE      IE2
      00000088H   SFRSYM    DATA     BYTE      TCON
      00000089H   SFRSYM    DATA     BYTE      TMOD
      00000098H   SFRSYM    DATA     BYTE      SCON
      000000F1H   SFRSYM    DATA     BYTE      CANICR
      00000087H   SFRSYM    DATA     BYTE      PCON
      000000BCH   SFRSYM    DATA     BYTE      ADC_CONTR
      000000E7H   SFRSYM    DATA     BYTE      CMPCR2
L251 LINKER/LOCATER V4.66.93.0                                                        07/19/2023  21:16:02  PAGE 26


      000000E6H   SFRSYM    DATA     BYTE      CMPCR1
      000000DEH   SFRSYM    DATA     BYTE      ADCCFG
      000000B8H   SFRSYM    DATA     BYTE      IP
      0000008FH   SFRSYM    DATA     BYTE      INTCLKO
      000000EEH   SFRSYM    DATA     BYTE      IP3H
      000000B6H   SFRSYM    DATA     BYTE      IP2H
      000000A8H   SFRSYM    DATA     BYTE      IE
      000000BBH   SFRSYM    DATA     BYTE      P_SW3
      000000BAH   SFRSYM    DATA     BYTE      P_SW2
      000000A2H   SFRSYM    DATA     BYTE      P_SW1
      000000CEH   SFRSYM    DATA     BYTE      SPCTL
      000000F8H   SFRSYM    DATA     BYTE      P7
      000000E8H   SFRSYM    DATA     BYTE      P6
      000000C8H   SFRSYM    DATA     BYTE      P5
      000000C0H   SFRSYM    DATA     BYTE      P4
      000000B0H   SFRSYM    DATA     BYTE      P3
      000000A0H   SFRSYM    DATA     BYTE      P2
      00000090H   SFRSYM    DATA     BYTE      P1
      00000080H   SFRSYM    DATA     BYTE      P0

      00FF1BF9H   BLOCK     CODE     ---       LVL=0
      R7          REGSYM    ---      BYTE      i
      00FF1BF9H   LINE      CODE     ---       #8
      00FF1BFBH   LINE      CODE     ---       #10
      00FF1C04H   LINE      CODE     ---       #12
      ---         BLOCKEND  ---      ---       LVL=0

      00FF1BCBH   BLOCK     CODE     ---       LVL=0
      00FF1BCBH   LINE      CODE     ---       #15
      00FF1BCBH   LINE      CODE     ---       #17
      00FF1BCDH   LINE      CODE     ---       #18
      00FF1BCFH   LINE      CODE     ---       #19
      00FF1BD4H   LINE      CODE     ---       #20
      00FF1BD6H   LINE      CODE     ---       #21
      00FF1BD9H   LINE      CODE     ---       #22
      00FF1BDBH   LINE      CODE     ---       #23
      ---         BLOCKEND  ---      ---       LVL=0

      00FF1BEBH   BLOCK     CODE     ---       LVL=0
      00FF1BEBH   LINE      CODE     ---       #26
      00FF1BEBH   LINE      CODE     ---       #28
      00FF1BEDH   LINE      CODE     ---       #29
      00FF1BEFH   LINE      CODE     ---       #30
      00FF1BF4H   LINE      CODE     ---       #31
      00FF1BF6H   LINE      CODE     ---       #32
      ---         BLOCKEND  ---      ---       LVL=0

      00FF1B35H   BLOCK     CODE     ---       LVL=0
      00000020H.5 SYMBOL    BIT      BIT       ackbit
      00FF1B35H   LINE      CODE     ---       #36
      00FF1B35H   LINE      CODE     ---       #38
      00FF1B37H   LINE      CODE     ---       #39
      00FF1B3BH   LINE      CODE     ---       #40
      00FF1B40H   LINE      CODE     ---       #41
      00FF1B42H   LINE      CODE     ---       #42
      00FF1B45H   LINE      CODE     ---       #43
      00FF1B47H   LINE      CODE     ---       #44
      00FF1B49H   LINE      CODE     ---       #45
      ---         BLOCKEND  ---      ---       LVL=0

      00FF1BB8H   BLOCK     CODE     ---       LVL=0
      00000020H.6 SYMBOL    BIT      BIT       ackbit
      00FF1BB8H   LINE      CODE     ---       #49
      00FF1BB8H   LINE      CODE     ---       #50
      00FF1BB8H   LINE      CODE     ---       #52
L251 LINKER/LOCATER V4.66.93.0                                                        07/19/2023  21:16:02  PAGE 27


      00FF1BBAH   LINE      CODE     ---       #53
      00FF1BBFH   LINE      CODE     ---       #54
      00FF1BC3H   LINE      CODE     ---       #55
      00FF1BC5H   LINE      CODE     ---       #56
      00FF1BC8H   LINE      CODE     ---       #57
      00FF1BCAH   LINE      CODE     ---       #58
      ---         BLOCKEND  ---      ---       LVL=0

      00FF19A3H   BLOCK     CODE     ---       LVL=0
      R15         REGSYM    ---      BYTE      byt
      00FF19A7H   BLOCK     CODE     NEAR LAB  LVL=1
      R14         REGSYM    ---      BYTE      i
      ---         BLOCKEND  ---      ---       LVL=1
      00FF19A3H   LINE      CODE     ---       #61
      00FF19A7H   LINE      CODE     ---       #62
      00FF19A7H   LINE      CODE     ---       #63
      00FF19A7H   LINE      CODE     ---       #64
      00FF19AAH   LINE      CODE     ---       #66
      00FF19ACH   LINE      CODE     ---       #67
      00FF19B1H   LINE      CODE     ---       #68
      00FF19BAH   LINE      CODE     ---       #69
      00FF19BCH   LINE      CODE     ---       #70
      00FF19C1H   LINE      CODE     ---       #71
      00FF19C3H   LINE      CODE     ---       #72
      00FF19C5H   LINE      CODE     ---       #73
      00FF19C8H   LINE      CODE     ---       #74
      00FF19CCH   LINE      CODE     ---       #75
      00FF19CEH   LINE      CODE     ---       #76
      ---         BLOCKEND  ---      ---       LVL=0

      00FF1AA8H   BLOCK     CODE     ---       LVL=0
      00FF1AAAH   BLOCK     CODE     NEAR LAB  LVL=1
      R14         REGSYM    ---      BYTE      i
      R15         REGSYM    ---      BYTE      da
      ---         BLOCKEND  ---      ---       LVL=1
      00FF1AA8H   LINE      CODE     ---       #79
      00FF1AAAH   LINE      CODE     ---       #80
      00FF1AAAH   LINE      CODE     ---       #81
      00FF1AACH   LINE      CODE     ---       #82
      00FF1AAFH   LINE      CODE     ---       #84
      00FF1AB1H   LINE      CODE     ---       #85
      00FF1AB6H   LINE      CODE     ---       #86
      00FF1AB8H   LINE      CODE     ---       #87
      00FF1ABEH   LINE      CODE     ---       #88
      00FF1AC0H   LINE      CODE     ---       #89
      00FF1AC5H   LINE      CODE     ---       #90
      00FF1AC9H   LINE      CODE     ---       #91
      00FF1ACBH   LINE      CODE     ---       #92
      ---         BLOCKEND  ---      ---       LVL=0

      00FF1974H   BLOCK     CODE     ---       LVL=0
      R15         REGSYM    ---      BYTE      readaddr
      00FF1978H   BLOCK     CODE     NEAR LAB  LVL=1
      R15         REGSYM    ---      BYTE      temp
      ---         BLOCKEND  ---      ---       LVL=1
      00FF1974H   LINE      CODE     ---       #93
      00FF1978H   LINE      CODE     ---       #94
      00FF1978H   LINE      CODE     ---       #95
      00FF1978H   LINE      CODE     ---       #96
      00FF197BH   LINE      CODE     ---       #97
      00FF1980H   LINE      CODE     ---       #98
      00FF1983H   LINE      CODE     ---       #99
      00FF1988H   LINE      CODE     ---       #100
      00FF198BH   LINE      CODE     ---       #102
      00FF198EH   LINE      CODE     ---       #103
L251 LINKER/LOCATER V4.66.93.0                                                        07/19/2023  21:16:02  PAGE 28


      00FF1993H   LINE      CODE     ---       #104
      00FF1996H   LINE      CODE     ---       #105
      00FF199BH   LINE      CODE     ---       #106
      00FF199EH   LINE      CODE     ---       #107
      00FF19A0H   LINE      CODE     ---       #108
      ---         BLOCKEND  ---      ---       LVL=0

      ---         MODULE    ---      ---       pwm
      00FF1A7FH   PUBLIC    CODE     ---       Update_duty
      00FF140DH   PUBLIC    CODE     ---       PWMA_Config
      000000BAH   PUBLIC    EDATA    WORD      duty
      000000BCH   PUBLIC    EDATA    WORD      duty2
      000000D0H   SFRSYM    DATA     BYTE      PSW
      0000009DH   SFRSYM    DATA     BYTE      IRCBAND
      00000097H   SFRSYM    DATA     BYTE      AUXR2
      000000EFH   SFRSYM    DATA     BYTE      AUXINTIF
      000000FDH   SFRSYM    DATA     BYTE      S4CON
      000000ACH   SFRSYM    DATA     BYTE      S3CON
      0000009AH   SFRSYM    DATA     BYTE      S2CON
      000000B7H   SFRSYM    DATA     BYTE      IPH
      000000CDH   SFRSYM    DATA     BYTE      SPSTAT
      000000DDH   SFRSYM    DATA     BYTE      T4T3M
      000000C1H   SFRSYM    DATA     BYTE      WDT_CONTR
      000000DFH   SFRSYM    DATA     BYTE      IP3
      000000F4H   SFRSYM    DATA     BYTE      USBCON
      000000B5H   SFRSYM    DATA     BYTE      IP2
      000000FFH   SFRSYM    DATA     BYTE      RSTCFG
      000000C7H   SFRSYM    DATA     BYTE      IAP_CONTR
      000000F9H   SFRSYM    DATA     BYTE      LINICR
      0000008EH   SFRSYM    DATA     BYTE      AUXR
      000000AFH   SFRSYM    DATA     BYTE      IE2
      00000088H   SFRSYM    DATA     BYTE      TCON
      00000089H   SFRSYM    DATA     BYTE      TMOD
      00000098H   SFRSYM    DATA     BYTE      SCON
      000000F1H   SFRSYM    DATA     BYTE      CANICR
      00000087H   SFRSYM    DATA     BYTE      PCON
      000000BCH   SFRSYM    DATA     BYTE      ADC_CONTR
      000000E7H   SFRSYM    DATA     BYTE      CMPCR2
      000000E6H   SFRSYM    DATA     BYTE      CMPCR1
      000000DEH   SFRSYM    DATA     BYTE      ADCCFG
      000000B8H   SFRSYM    DATA     BYTE      IP
      0000008FH   SFRSYM    DATA     BYTE      INTCLKO
      000000EEH   SFRSYM    DATA     BYTE      IP3H
      000000B6H   SFRSYM    DATA     BYTE      IP2H
      000000A8H   SFRSYM    DATA     BYTE      IE
      000000BBH   SFRSYM    DATA     BYTE      P_SW3
      000000BAH   SFRSYM    DATA     BYTE      P_SW2
      000000A2H   SFRSYM    DATA     BYTE      P_SW1
      000000CEH   SFRSYM    DATA     BYTE      SPCTL
      000000F8H   SFRSYM    DATA     BYTE      P7
      000000E8H   SFRSYM    DATA     BYTE      P6
      000000C8H   SFRSYM    DATA     BYTE      P5
      000000C0H   SFRSYM    DATA     BYTE      P4
      000000B0H   SFRSYM    DATA     BYTE      P3
      000000A0H   SFRSYM    DATA     BYTE      P2
      00000090H   SFRSYM    DATA     BYTE      P1
      00000080H   SFRSYM    DATA     BYTE      P0

      00FF140DH   BLOCK     CODE     ---       LVL=0
      00FF140DH   LINE      CODE     ---       #9
      00FF140DH   LINE      CODE     ---       #11
      00FF141AH   LINE      CODE     ---       #13
      00FF1422H   LINE      CODE     ---       #14
      00FF142BH   LINE      CODE     ---       #16
      00FF1433H   LINE      CODE     ---       #17
L251 LINKER/LOCATER V4.66.93.0                                                        07/19/2023  21:16:02  PAGE 29


      00FF1440H   LINE      CODE     ---       #18
      00FF1447H   LINE      CODE     ---       #19
      00FF144CH   LINE      CODE     ---       #21
      00FF1455H   LINE      CODE     ---       #22
      00FF145EH   LINE      CODE     ---       #24
      00FF1467H   LINE      CODE     ---       #25
      00FF1470H   LINE      CODE     ---       #27
      00FF1479H   LINE      CODE     ---       #28
      00FF1482H   LINE      CODE     ---       #30
      00FF148BH   LINE      CODE     ---       #31
      00FF1494H   LINE      CODE     ---       #33
      00FF149DH   LINE      CODE     ---       #34
      ---         BLOCKEND  ---      ---       LVL=0

      00FF1A7FH   BLOCK     CODE     ---       LVL=0
      00FF1A7FH   LINE      CODE     ---       #36
      00FF1A7FH   LINE      CODE     ---       #54
      00FF1A8EH   LINE      CODE     ---       #55
      00FF1A95H   LINE      CODE     ---       #57
      00FF1AA0H   LINE      CODE     ---       #58
      00FF1AA7H   LINE      CODE     ---       #63
      ---         BLOCKEND  ---      ---       LVL=0

      ---         MODULE    ---      ---       GPIO
      00FF18CCH   PUBLIC    CODE     ---       GPIO_init
      00000094H   SFRSYM    DATA     BYTE      P0M0
      000000D0H   SFRSYM    DATA     BYTE      PSW
      000000BAH.7 SFRSYM    DATA     BIT       EAXFR
      0000009DH   SFRSYM    DATA     BYTE      IRCBAND
      00000097H   SFRSYM    DATA     BYTE      AUXR2
      000000EAH   SFRSYM    DATA     BYTE      CKCON
      000000EFH   SFRSYM    DATA     BYTE      AUXINTIF
      000000FDH   SFRSYM    DATA     BYTE      S4CON
      000000ACH   SFRSYM    DATA     BYTE      S3CON
      0000009AH   SFRSYM    DATA     BYTE      S2CON
      000000B7H   SFRSYM    DATA     BYTE      IPH
      000000CDH   SFRSYM    DATA     BYTE      SPSTAT
      000000DDH   SFRSYM    DATA     BYTE      T4T3M
      000000C1H   SFRSYM    DATA     BYTE      WDT_CONTR
      000000E9H   SFRSYM    DATA     BYTE      WTST
      000000DFH   SFRSYM    DATA     BYTE      IP3
      000000F4H   SFRSYM    DATA     BYTE      USBCON
      000000B5H   SFRSYM    DATA     BYTE      IP2
      000000FFH   SFRSYM    DATA     BYTE      RSTCFG
      000000C7H   SFRSYM    DATA     BYTE      IAP_CONTR
      000000F9H   SFRSYM    DATA     BYTE      LINICR
      0000008EH   SFRSYM    DATA     BYTE      AUXR
      000000AFH   SFRSYM    DATA     BYTE      IE2
      00000088H   SFRSYM    DATA     BYTE      TCON
      00000089H   SFRSYM    DATA     BYTE      TMOD
      00000098H   SFRSYM    DATA     BYTE      SCON
      000000F1H   SFRSYM    DATA     BYTE      CANICR
      00000087H   SFRSYM    DATA     BYTE      PCON
      000000BCH   SFRSYM    DATA     BYTE      ADC_CONTR
      000000E7H   SFRSYM    DATA     BYTE      CMPCR2
      000000E6H   SFRSYM    DATA     BYTE      CMPCR1
      000000DEH   SFRSYM    DATA     BYTE      ADCCFG
      000000B8H   SFRSYM    DATA     BYTE      IP
      0000008FH   SFRSYM    DATA     BYTE      INTCLKO
      000000EEH   SFRSYM    DATA     BYTE      IP3H
      000000B6H   SFRSYM    DATA     BYTE      IP2H
      000000A8H   SFRSYM    DATA     BYTE      IE
      000000BBH   SFRSYM    DATA     BYTE      P_SW3
      000000BAH   SFRSYM    DATA     BYTE      P_SW2
      000000A2H   SFRSYM    DATA     BYTE      P_SW1
L251 LINKER/LOCATER V4.66.93.0                                                        07/19/2023  21:16:02  PAGE 30


      000000CEH   SFRSYM    DATA     BYTE      SPCTL
      000000F8H   SFRSYM    DATA     BYTE      P7
      000000E1H   SFRSYM    DATA     BYTE      P7M1
      000000E8H   SFRSYM    DATA     BYTE      P6
      000000C8H   SFRSYM    DATA     BYTE      P5
      000000CBH   SFRSYM    DATA     BYTE      P6M1
      000000E2H   SFRSYM    DATA     BYTE      P7M0
      000000C0H   SFRSYM    DATA     BYTE      P4
      000000C9H   SFRSYM    DATA     BYTE      P5M1
      000000CCH   SFRSYM    DATA     BYTE      P6M0
      000000B0H   SFRSYM    DATA     BYTE      P3
      000000B3H   SFRSYM    DATA     BYTE      P4M1
      000000CAH   SFRSYM    DATA     BYTE      P5M0
      000000A0H   SFRSYM    DATA     BYTE      P2
      000000B1H   SFRSYM    DATA     BYTE      P3M1
      000000B4H   SFRSYM    DATA     BYTE      P4M0
      00000090H   SFRSYM    DATA     BYTE      P1
      00000095H   SFRSYM    DATA     BYTE      P2M1
      000000B2H   SFRSYM    DATA     BYTE      P3M0
      00000080H   SFRSYM    DATA     BYTE      P0
      00000091H   SFRSYM    DATA     BYTE      P1M1
      00000096H   SFRSYM    DATA     BYTE      P2M0
      00000092H   SFRSYM    DATA     BYTE      P1M0
      00000093H   SFRSYM    DATA     BYTE      P0M1

      00FF18CCH   BLOCK     CODE     ---       LVL=0
      00FF18CCH   LINE      CODE     ---       #3
      00FF18CCH   LINE      CODE     ---       #5
      00FF18CFH   LINE      CODE     ---       #6
      00FF18D2H   LINE      CODE     ---       #7
      00FF18D5H   LINE      CODE     ---       #9
      00FF18DBH   LINE      CODE     ---       #10
      00FF18E1H   LINE      CODE     ---       #11
      00FF18E7H   LINE      CODE     ---       #12
      00FF18EDH   LINE      CODE     ---       #13
      00FF18F3H   LINE      CODE     ---       #14
      00FF18F9H   LINE      CODE     ---       #15
      00FF18FFH   LINE      CODE     ---       #16
      00FF1905H   LINE      CODE     ---       #17
      ---         BLOCKEND  ---      ---       LVL=0

      ---         MODULE    ---      ---       motor
      000000D0H   SFRSYM    DATA     BYTE      PSW
      0000009DH   SFRSYM    DATA     BYTE      IRCBAND
      00000097H   SFRSYM    DATA     BYTE      AUXR2
      000000EFH   SFRSYM    DATA     BYTE      AUXINTIF
      000000FDH   SFRSYM    DATA     BYTE      S4CON
      000000ACH   SFRSYM    DATA     BYTE      S3CON
      0000009AH   SFRSYM    DATA     BYTE      S2CON
      000000B7H   SFRSYM    DATA     BYTE      IPH
      000000CDH   SFRSYM    DATA     BYTE      SPSTAT
      000000DDH   SFRSYM    DATA     BYTE      T4T3M
      000000C1H   SFRSYM    DATA     BYTE      WDT_CONTR
      000000DFH   SFRSYM    DATA     BYTE      IP3
      000000F4H   SFRSYM    DATA     BYTE      USBCON
      000000B5H   SFRSYM    DATA     BYTE      IP2
      000000FFH   SFRSYM    DATA     BYTE      RSTCFG
      000000C7H   SFRSYM    DATA     BYTE      IAP_CONTR
      000000F9H   SFRSYM    DATA     BYTE      LINICR
      0000008EH   SFRSYM    DATA     BYTE      AUXR
      000000AFH   SFRSYM    DATA     BYTE      IE2
      00000088H   SFRSYM    DATA     BYTE      TCON
      00000089H   SFRSYM    DATA     BYTE      TMOD
      00000098H   SFRSYM    DATA     BYTE      SCON
      000000F1H   SFRSYM    DATA     BYTE      CANICR
L251 LINKER/LOCATER V4.66.93.0                                                        07/19/2023  21:16:02  PAGE 31


      00000087H   SFRSYM    DATA     BYTE      PCON
      000000BCH   SFRSYM    DATA     BYTE      ADC_CONTR
      000000E7H   SFRSYM    DATA     BYTE      CMPCR2
      000000E6H   SFRSYM    DATA     BYTE      CMPCR1
      000000DEH   SFRSYM    DATA     BYTE      ADCCFG
      000000B8H   SFRSYM    DATA     BYTE      IP
      0000008FH   SFRSYM    DATA     BYTE      INTCLKO
      000000EEH   SFRSYM    DATA     BYTE      IP3H
      000000B6H   SFRSYM    DATA     BYTE      IP2H
      000000A8H   SFRSYM    DATA     BYTE      IE
      000000BBH   SFRSYM    DATA     BYTE      P_SW3
      000000BAH   SFRSYM    DATA     BYTE      P_SW2
      000000A2H   SFRSYM    DATA     BYTE      P_SW1
      000000CEH   SFRSYM    DATA     BYTE      SPCTL
      000000F8H   SFRSYM    DATA     BYTE      P7
      000000E8H   SFRSYM    DATA     BYTE      P6
      000000C8H   SFRSYM    DATA     BYTE      P5
      000000C0H   SFRSYM    DATA     BYTE      P4
      000000B0H   SFRSYM    DATA     BYTE      P3
      000000A0H   SFRSYM    DATA     BYTE      P2
      00000090H   SFRSYM    DATA     BYTE      P1
      00000080H   SFRSYM    DATA     BYTE      P0

      ---         MODULE    ---      ---       ADC
      00FF17F9H   PUBLIC    CODE     ---       ADC_Read
      00FF1B4CH   PUBLIC    CODE     ---       ADC_Init
      000000C3H   PUBLIC    EDATA    BYTE      Switching_channel
      000000D0H   SFRSYM    DATA     BYTE      PSW
      0000009DH   SFRSYM    DATA     BYTE      IRCBAND
      00000097H   SFRSYM    DATA     BYTE      AUXR2
      000000EFH   SFRSYM    DATA     BYTE      AUXINTIF
      000000FDH   SFRSYM    DATA     BYTE      S4CON
      000000ACH   SFRSYM    DATA     BYTE      S3CON
      0000009AH   SFRSYM    DATA     BYTE      S2CON
      000000B7H   SFRSYM    DATA     BYTE      IPH
      000000CDH   SFRSYM    DATA     BYTE      SPSTAT
      000000BEH   SFRSYM    DATA     BYTE      ADC_RESL
      000000DDH   SFRSYM    DATA     BYTE      T4T3M
      000000C1H   SFRSYM    DATA     BYTE      WDT_CONTR
      000000DFH   SFRSYM    DATA     BYTE      IP3
      000000F4H   SFRSYM    DATA     BYTE      USBCON
      000000B5H   SFRSYM    DATA     BYTE      IP2
      000000FFH   SFRSYM    DATA     BYTE      RSTCFG
      000000BCH.5 SFRSYM    DATA     BIT       ADC_FLAG
      000000C7H   SFRSYM    DATA     BYTE      IAP_CONTR
      000000F9H   SFRSYM    DATA     BYTE      LINICR
      0000008EH   SFRSYM    DATA     BYTE      AUXR
      000000AFH   SFRSYM    DATA     BYTE      IE2
      000000BCH.6 SFRSYM    DATA     BIT       ADC_START
      000000BCH.7 SFRSYM    DATA     BIT       ADC_POWER
      00000088H   SFRSYM    DATA     BYTE      TCON
      00000089H   SFRSYM    DATA     BYTE      TMOD
      00000098H   SFRSYM    DATA     BYTE      SCON
      000000F1H   SFRSYM    DATA     BYTE      CANICR
      00000087H   SFRSYM    DATA     BYTE      PCON
      000000BCH   SFRSYM    DATA     BYTE      ADC_CONTR
      000000E7H   SFRSYM    DATA     BYTE      CMPCR2
      000000E6H   SFRSYM    DATA     BYTE      CMPCR1
      000000DEH   SFRSYM    DATA     BYTE      ADCCFG
      000000B8H   SFRSYM    DATA     BYTE      IP
      0000008FH   SFRSYM    DATA     BYTE      INTCLKO
      000000EEH   SFRSYM    DATA     BYTE      IP3H
      000000B6H   SFRSYM    DATA     BYTE      IP2H
      000000BDH   SFRSYM    DATA     BYTE      ADC_RES
      000000A8H   SFRSYM    DATA     BYTE      IE
L251 LINKER/LOCATER V4.66.93.0                                                        07/19/2023  21:16:02  PAGE 32


      000000BBH   SFRSYM    DATA     BYTE      P_SW3
      000000BAH   SFRSYM    DATA     BYTE      P_SW2
      000000A2H   SFRSYM    DATA     BYTE      P_SW1
      000000CEH   SFRSYM    DATA     BYTE      SPCTL
      000000F8H   SFRSYM    DATA     BYTE      P7
      000000E8H   SFRSYM    DATA     BYTE      P6
      000000C8H   SFRSYM    DATA     BYTE      P5
      000000C0H   SFRSYM    DATA     BYTE      P4
      000000B0H   SFRSYM    DATA     BYTE      P3
      000000A0H   SFRSYM    DATA     BYTE      P2
      00000090H   SFRSYM    DATA     BYTE      P1
      00000080H   SFRSYM    DATA     BYTE      P0

      00FF1B4CH   BLOCK     CODE     ---       LVL=0
      00FF1B4CH   LINE      CODE     ---       #5
      00FF1B4CH   LINE      CODE     ---       #7
      00FF1B59H   LINE      CODE     ---       #8
      00FF1B5CH   LINE      CODE     ---       #9
      00FF1B5FH   LINE      CODE     ---       #10
      00FF1B62H   LINE      CODE     ---       #11
      ---         BLOCKEND  ---      ---       LVL=0

      00FF17F9H   BLOCK     CODE     ---       LVL=0
      WR6         REGSYM    ---      WORD      value
      00FF17F9H   LINE      CODE     ---       #13
      00FF17F9H   LINE      CODE     ---       #14
      00FF17F9H   LINE      CODE     ---       #15
      00FF17F9H   LINE      CODE     ---       #17
      00FF17FCH   LINE      CODE     ---       #18
      00FF17FDH   LINE      CODE     ---       #19
      00FF17FEH   LINE      CODE     ---       #21
      00FF1802H   LINE      CODE     ---       #22
      00FF1805H   LINE      CODE     ---       #24
      00FF1811H   LINE      CODE     ---       #26
      00FF181AH   LINE      CODE     ---       #27
      00FF1825H   LINE      CODE     ---       #29
      00FF1825H   LINE      CODE     ---       #30
      00FF182DH   LINE      CODE     ---       #31
      00FF182EH   LINE      CODE     ---       #32
      00FF182EH   LINE      CODE     ---       #33
      00FF1836H   LINE      CODE     ---       #34
      00FF1837H   LINE      CODE     ---       #35
      00FF1837H   LINE      CODE     ---       #36
      00FF183AH   LINE      CODE     ---       #37
      00FF183FH   LINE      CODE     ---       #38
      00FF183FH   LINE      CODE     ---       #39
      00FF183FH   LINE      CODE     ---       #40
      00FF183FH   LINE      CODE     ---       #41
      ---         BLOCKEND  ---      ---       LVL=0

      ---         MODULE    ---      ---       ?C?FPMUL
      00FF0026H   PUBLIC    CODE     ---       ?C?FPMUL

      ---         MODULE    ---      ---       ?C?FPDIV
      00FF00C6H   PUBLIC    CODE     ---       ?C?FPDIV

      ---         MODULE    ---      ---       ?C?FCAST
      00FF0151H   PUBLIC    CODE     NEAR LAB  ?C?FCASTC
      00FF014CH   PUBLIC    CODE     NEAR LAB  ?C?FCASTI
      00FF0147H   PUBLIC    CODE     NEAR LAB  ?C?FCASTL

      ---         MODULE    ---      ---       ?C?CASTF
      00FF0184H   PUBLIC    CODE     NEAR LAB  ?C?CASTF

      ---         MODULE    ---      ---       SPRINTF
L251 LINKER/LOCATER V4.66.93.0                                                        07/19/2023  21:16:02  PAGE 33


      0000007FH   PUBLIC    EDATA    ---       ?SPRINTF?BYTE
      00FF01C1H   PUBLIC    CODE     NEAR LAB  SPRINTF

      ---         MODULE    ---      ---       ?C?FPGETOPN
      00FF01E1H   PUBLIC    CODE     ---       ?C?FPGETOPN2
      00FF021EH   PUBLIC    CODE     ---       ?C?FPNANRESULT
      00FF0226H   PUBLIC    CODE     ---       ?C?FPOVERFLOW
      00FF01FAH   PUBLIC    CODE     ---       ?C?FPRESULT
      00FF0210H   PUBLIC    CODE     ---       ?C?FPRESULT2
      00FF0223H   PUBLIC    CODE     ---       ?C?FPUNDERFLOW

      ---         MODULE    ---      ---       ?C?PRNFMT
      00FF025FH   PUBLIC    CODE     ---       ?C?PRNFMT

      ---         MODULE    ---      ---       ?C?FPCONVERT
      00FF067CH   PUBLIC    CODE     ---       ?C?FPCONVERT
      00FF0734H   PUBLIC    CODE     ---       ?C?FPROUND

      ---         MODULE    ---      ---       ?C?FTNPWR
      00FF07A7H   PUBLIC    CODE     ---       ?C?FTNPWR

      ---         MODULE    ---      ---       ?C_START
      00FF0000H   PUBLIC    CODE     ---       ?C?STARTUP
      00FF0000H   PUBLIC    CODE     ---       ?C_STARTUP

      ---         MODULE    ---      ---       ?C?INITEDATA
      00FF17CDH   PUBLIC    CODE     ---       ?C?INITEDATA

      ---         MODULE    ---      ---       ?C?LIMUL
      00FF07DEH   PUBLIC    CODE     ---       ?C?LIMUL

      ---         MODULE    ---      ---       ?C?ULDIV
      00FF07E9H   PUBLIC    CODE     NEAR LAB  ?C?ULDIV
      00FF07E7H   PUBLIC    CODE     NEAR LAB  ?C?ULIDIV

      ---         MODULE    ---      ---       ?C?INITEDATA_END
      00FF1D2DH   PUBLIC    HCONST   WORD      ?C?INITEDATA_END



*** WARNING L57: UNCALLED FUNCTION, IGNORED FOR OVERLAY PROCESS
    NAME:    OLED_Display_string_5x7/oled

*** WARNING L57: UNCALLED FUNCTION, IGNORED FOR OVERLAY PROCESS
    NAME:    OLED_DisPlay_Off/oled

*** WARNING L57: UNCALLED FUNCTION, IGNORED FOR OVERLAY PROCESS
    NAME:    OLED_Display_128x64/oled

*** WARNING L57: UNCALLED FUNCTION, IGNORED FOR OVERLAY PROCESS
    NAME:    OLED_DisPlay_On/oled

*** WARNING L57: UNCALLED FUNCTION, IGNORED FOR OVERLAY PROCESS
    NAME:    Meun_2_control/Meun

*** WARNING L57: UNCALLED FUNCTION, IGNORED FOR OVERLAY PROCESS
    NAME:    Meun_2_angle/Meun

*** WARNING L57: UNCALLED FUNCTION, IGNORED FOR OVERLAY PROCESS
    NAME:    Memu/Meun

*** WARNING L57: UNCALLED FUNCTION, IGNORED FOR OVERLAY PROCESS
    NAME:    Meun_2_speed/Meun

*** WARNING L57: UNCALLED FUNCTION, IGNORED FOR OVERLAY PROCESS
L251 LINKER/LOCATER V4.66.93.0                                                        07/19/2023  21:16:02  PAGE 34


    NAME:    Meun_2_Pitching/Meun

*** WARNING L57: UNCALLED FUNCTION, IGNORED FOR OVERLAY PROCESS
    NAME:    rotary_encoder/Encoders

*** WARNING L57: UNCALLED FUNCTION, IGNORED FOR OVERLAY PROCESS
    NAME:    Cancel_determine/Encoders

*** WARNING L57: UNCALLED FUNCTION, IGNORED FOR OVERLAY PROCESS
    NAME:    Hall_element/iic

*** WARNING L57: UNCALLED FUNCTION, IGNORED FOR OVERLAY PROCESS
    NAME:    IIC_SendAck/iic

Program Size: data=8.7 edata+hdata=443 xdata=0 const=317 code=7186
L251 RUN COMPLETE.  13 WARNING(S),  0 ERROR(S)
